ccopy_reg
_reconstructor
p0
(cclasses
Tree
p1
c__builtin__
object
p2
Ntp3
Rp4
(dp5
S'root'
p6
g0
(cclasses
Root
p7
g2
Ntp8
Rp9
(dp10
S'nodes'
p11
(lp12
g0
(cclasses
Node
p13
g2
Ntp14
Rp15
(dp16
S'depth'
p17
I1
sS'value_condition'
p18
cnumpy.core.multiarray
scalar
p19
(cnumpy
dtype
p20
(S'i8'
p21
I0
I1
tp22
Rp23
(I3
S'<'
p24
NNNI-1
I-1
I0
tp25
bS'9\x00\x00\x00\x00\x00\x00\x00'
p26
tp27
Rp28
sg11
(lp29
g0
(g13
g2
Ntp30
Rp31
(dp32
g17
I2
sg18
g19
(g23
S'\n\x00\x00\x00\x00\x00\x00\x00'
p33
tp34
Rp35
sg11
(lp36
g0
(cclasses
Leaf
p37
g2
Ntp38
Rp39
(dp40
S'value'
p41
g19
(g20
(S'f8'
p42
I0
I1
tp43
Rp44
(I3
S'<'
p45
NNNI-1
I-1
I0
tp46
bS'\x00\x00\x00\x00\x00\xb0q@'
p47
tp48
Rp49
sbasS'target'
p50
S'duration'
p51
sS'feature'
p52
S'start_date_hour'
p53
sbag0
(g13
g2
Ntp54
Rp55
(dp56
g17
I2
sg18
g19
(g23
S'\x0b\x00\x00\x00\x00\x00\x00\x00'
p57
tp58
Rp59
sg11
(lp60
g0
(g37
g2
Ntp61
Rp62
(dp63
g41
g19
(g44
S'\x00\x00\x00\x00\x00`r@'
p64
tp65
Rp66
sbasg50
g51
sg52
g53
sbag0
(g13
g2
Ntp67
Rp68
(dp69
g17
I2
sg18
g19
(g23
S'\x08\x00\x00\x00\x00\x00\x00\x00'
p70
tp71
Rp72
sg11
(lp73
g0
(g37
g2
Ntp74
Rp75
(dp76
g41
g19
(g44
S'\x00\x00\x00\x00\x00\xc0p@'
p77
tp78
Rp79
sbasg50
g51
sg52
g53
sbag0
(g13
g2
Ntp80
Rp81
(dp82
g17
I2
sg18
g19
(g23
S'\x06\x00\x00\x00\x00\x00\x00\x00'
p83
tp84
Rp85
sg11
(lp86
g0
(g37
g2
Ntp87
Rp88
(dp89
g41
g19
(g44
S'\x00\x00\x00\x00\x00 \x80@'
p90
tp91
Rp92
sbasg50
g51
sg52
g53
sbag0
(g13
g2
Ntp93
Rp94
(dp95
g17
I2
sg18
g19
(g23
S'\x15\x00\x00\x00\x00\x00\x00\x00'
p96
tp97
Rp98
sg11
(lp99
g0
(g37
g2
Ntp100
Rp101
(dp102
g41
g19
(g44
S'\x00\x00\x00\x00\x00`{@'
p103
tp104
Rp105
sbasg50
g51
sg52
g53
sbag0
(g13
g2
Ntp106
Rp107
(dp108
g17
I2
sg18
g19
(g23
S'\x11\x00\x00\x00\x00\x00\x00\x00'
p109
tp110
Rp111
sg11
(lp112
g0
(g37
g2
Ntp113
Rp114
(dp115
g41
g19
(g44
S'\x00\x00\x00\x00\x000\x7f@'
p116
tp117
Rp118
sbasg50
g51
sg52
g53
sbag0
(g13
g2
Ntp119
Rp120
(dp121
g17
I2
sg18
g19
(g23
S'\x0c\x00\x00\x00\x00\x00\x00\x00'
p122
tp123
Rp124
sg11
(lp125
g0
(g37
g2
Ntp126
Rp127
(dp128
g41
g19
(g44
S'\x00\x00\x00\x00\x00@\x81@'
p129
tp130
Rp131
sbasg50
g51
sg52
g53
sbag0
(g13
g2
Ntp132
Rp133
(dp134
g17
I2
sg18
g19
(g23
S'\x07\x00\x00\x00\x00\x00\x00\x00'
p135
tp136
Rp137
sg11
(lp138
g0
(g37
g2
Ntp139
Rp140
(dp141
g41
g19
(g44
S'\x00\x00\x00\x00\x00px@'
p142
tp143
Rp144
sbasg50
g51
sg52
g53
sbag0
(g13
g2
Ntp145
Rp146
(dp147
g17
I2
sg18
g19
(g23
S'\t\x00\x00\x00\x00\x00\x00\x00'
p148
tp149
Rp150
sg11
(lp151
g0
(g37
g2
Ntp152
Rp153
(dp154
g41
g19
(g44
S'\x00\x00\x00\x00\x00x\x80@'
p155
tp156
Rp157
sbasg50
g51
sg52
g53
sbasg50
g51
sg52
S'start_station_id'
p158
sbag0
(g13
g2
Ntp159
Rp160
(dp161
g17
I1
sg18
g19
(g23
S';\x00\x00\x00\x00\x00\x00\x00'
p162
tp163
Rp164
sg11
(lp165
g0
(g13
g2
Ntp166
Rp167
(dp168
g17
I2
sg18
g19
(g23
S'\x04\x00\x00\x00\x00\x00\x00\x00'
p169
tp170
Rp171
sg11
(lp172
g0
(g37
g2
Ntp173
Rp174
(dp175
g41
g19
(g44
S'\x00\x00\x00\x00\x00x\x96@'
p176
tp177
Rp178
sbasg50
g51
sg52
S'start_date_month'
p179
sbag0
(g13
g2
Ntp180
Rp181
(dp182
g17
I2
sg18
g19
(g23
S'\x06\x00\x00\x00\x00\x00\x00\x00'
p183
tp184
Rp185
sg11
(lp186
g0
(g37
g2
Ntp187
Rp188
(dp189
g41
g19
(g44
S'\x00\x00\x00\x00\x00\x00~@'
p190
tp191
Rp192
sbasg50
g51
sg52
g179
sbag0
(g13
g2
Ntp193
Rp194
(dp195
g17
I2
sg18
g19
(g23
S'\n\x00\x00\x00\x00\x00\x00\x00'
p196
tp197
Rp198
sg11
(lp199
g0
(g13
g2
Ntp200
Rp201
(dp202
g17
I3
sg18
g19
(g23
S'\x06\x00\x00\x00\x00\x00\x00\x00'
p203
tp204
Rp205
sg11
(lp206
g0
(g37
g2
Ntp207
Rp208
(dp209
g41
g19
(g44
S'\x00\x00\x00\x00\x00\x18\x85@'
p210
tp211
Rp212
sbasg50
g51
sg52
S'start_date_weekday'
p213
sbag0
(g13
g2
Ntp214
Rp215
(dp216
g17
I3
sg18
g19
(g23
S'\x01\x00\x00\x00\x00\x00\x00\x00'
p217
tp218
Rp219
sg11
(lp220
g0
(g37
g2
Ntp221
Rp222
(dp223
g41
g19
(g44
S'\x00\x00\x00\x00\x00\xe0r@'
p224
tp225
Rp226
sbasg50
g51
sg52
g213
sbasg50
g51
sg52
g179
sbasg50
g51
sg52
g158
sbag0
(g13
g2
Ntp227
Rp228
(dp229
g17
I1
sg18
g19
(g23
S'.\x00\x00\x00\x00\x00\x00\x00'
p230
tp231
Rp232
sg11
(lp233
g0
(g13
g2
Ntp234
Rp235
(dp236
g17
I2
sg18
g19
(g23
S'\x0b\x00\x00\x00\x00\x00\x00\x00'
p237
tp238
Rp239
sg11
(lp240
g0
(g13
g2
Ntp241
Rp242
(dp243
g17
I3
sg18
g19
(g23
S'\x00\x00\x00\x00\x00\x00\x00\x00'
p244
tp245
Rp246
sg11
(lp247
g0
(g37
g2
Ntp248
Rp249
(dp250
g41
g19
(g44
S'\x00\x00\x00\x00\x00\x98\x8d@'
p251
tp252
Rp253
sbasg50
g51
sg52
g213
sbag0
(g13
g2
Ntp254
Rp255
(dp256
g17
I3
sg18
g19
(g23
S'\x06\x00\x00\x00\x00\x00\x00\x00'
p257
tp258
Rp259
sg11
(lp260
g0
(g37
g2
Ntp261
Rp262
(dp263
g41
g19
(g44
S'\x00\x00\x00\x00\x00 \x86@'
p264
tp265
Rp266
sbasg50
g51
sg52
g213
sbasg50
g51
sg52
g179
sbag0
(g13
g2
Ntp267
Rp268
(dp269
g17
I2
sg18
g19
(g23
S'\x06\x00\x00\x00\x00\x00\x00\x00'
p270
tp271
Rp272
sg11
(lp273
g0
(g37
g2
Ntp274
Rp275
(dp276
g41
g19
(g44
S'\x00\x00\x00\x00\x00\xf0r@'
p277
tp278
Rp279
sbasg50
g51
sg52
g179
sbag0
(g13
g2
Ntp280
Rp281
(dp282
g17
I2
sg18
g19
(g23
S'\x07\x00\x00\x00\x00\x00\x00\x00'
p283
tp284
Rp285
sg11
(lp286
g0
(g37
g2
Ntp287
Rp288
(dp289
g41
g19
(g44
S'\x00\x00\x00\x00\x00p\x82@'
p290
tp291
Rp292
sbasg50
g51
sg52
g179
sbag0
(g13
g2
Ntp293
Rp294
(dp295
g17
I2
sg18
g19
(g23
S'\x0c\x00\x00\x00\x00\x00\x00\x00'
p296
tp297
Rp298
sg11
(lp299
g0
(g37
g2
Ntp300
Rp301
(dp302
g41
g19
(g44
S'\x00\x00\x00\x00\x00py@'
p303
tp304
Rp305
sbasg50
g51
sg52
g179
sbag0
(g13
g2
Ntp306
Rp307
(dp308
g17
I2
sg18
g19
(g23
S'\x08\x00\x00\x00\x00\x00\x00\x00'
p309
tp310
Rp311
sg11
(lp312
g0
(g13
g2
Ntp313
Rp314
(dp315
g17
I3
sg18
g19
(g23
S'\x00\x00\x00\x00\x00\x00\x00\x00'
p316
tp317
Rp318
sg11
(lp319
g0
(g37
g2
Ntp320
Rp321
(dp322
g41
g19
(g44
S'\x00\x00\x00\x00\x00\x00\x83@'
p323
tp324
Rp325
sbasg50
g51
sg52
g213
sbag0
(g13
g2
Ntp326
Rp327
(dp328
g17
I3
sg18
g19
(g23
S'\x04\x00\x00\x00\x00\x00\x00\x00'
p329
tp330
Rp331
sg11
(lp332
g0
(g37
g2
Ntp333
Rp334
(dp335
g41
g19
(g44
S'\x00\x00\x00\x00\x00\x88\x8b@'
p336
tp337
Rp338
sbasg50
g51
sg52
g213
sbasg50
g51
sg52
g179
sbag0
(g13
g2
Ntp339
Rp340
(dp341
g17
I2
sg18
g19
(g23
S'\x03\x00\x00\x00\x00\x00\x00\x00'
p342
tp343
Rp344
sg11
(lp345
g0
(g37
g2
Ntp346
Rp347
(dp348
g41
g19
(g44
S'\x00\x00\x00\x00\x00\xc0r@'
p349
tp350
Rp351
sbasg50
g51
sg52
g179
sbag0
(g13
g2
Ntp352
Rp353
(dp354
g17
I2
sg18
g19
(g23
S'\t\x00\x00\x00\x00\x00\x00\x00'
p355
tp356
Rp357
sg11
(lp358
g0
(g37
g2
Ntp359
Rp360
(dp361
g41
g19
(g44
S'\x00\x00\x00\x00\x00\x84\xc5@'
p362
tp363
Rp364
sbasg50
g51
sg52
g179
sbag0
(g13
g2
Ntp365
Rp366
(dp367
g17
I2
sg18
g19
(g23
S'\x04\x00\x00\x00\x00\x00\x00\x00'
p368
tp369
Rp370
sg11
(lp371
g0
(g37
g2
Ntp372
Rp373
(dp374
g41
g19
(g44
S'\x00\x00\x00\x00\x00\xf8\x91@'
p375
tp376
Rp377
sbasg50
g51
sg52
g179
sbasg50
g51
sg52
g158
sbag0
(g13
g2
Ntp378
Rp379
(dp380
g17
I1
sg18
g19
(g23
S"'\x00\x00\x00\x00\x00\x00\x00"
p381
tp382
Rp383
sg11
(lp384
g0
(g13
g2
Ntp385
Rp386
(dp387
g17
I2
sg18
g19
(g23
S'\x07\x00\x00\x00\x00\x00\x00\x00'
p388
tp389
Rp390
sg11
(lp391
g0
(g37
g2
Ntp392
Rp393
(dp394
g41
g19
(g44
S'\x00\x00\x00\x00\x008\x8a@'
p395
tp396
Rp397
sbasg50
g51
sg52
g179
sbag0
(g13
g2
Ntp398
Rp399
(dp400
g17
I2
sg18
g19
(g23
S'\t\x00\x00\x00\x00\x00\x00\x00'
p401
tp402
Rp403
sg11
(lp404
g0
(g13
g2
Ntp405
Rp406
(dp407
g17
I3
sg18
g19
(g23
S'\x00\x00\x00\x00\x00\x00\x00\x00'
p408
tp409
Rp410
sg11
(lp411
g0
(g37
g2
Ntp412
Rp413
(dp414
g41
g19
(g44
S'\x00\x00\x00\x00\x00\x10q@'
p415
tp416
Rp417
sbasg50
g51
sg52
g213
sbag0
(g13
g2
Ntp418
Rp419
(dp420
g17
I3
sg18
g19
(g23
S'\x03\x00\x00\x00\x00\x00\x00\x00'
p421
tp422
Rp423
sg11
(lp424
g0
(g37
g2
Ntp425
Rp426
(dp427
g41
g19
(g44
S'\x00\x00\x00\x00\x00\xf0y@'
p428
tp429
Rp430
sbasg50
g51
sg52
g213
sbasg50
g51
sg52
g179
sbag0
(g13
g2
Ntp431
Rp432
(dp433
g17
I2
sg18
g19
(g23
S'\x05\x00\x00\x00\x00\x00\x00\x00'
p434
tp435
Rp436
sg11
(lp437
g0
(g13
g2
Ntp438
Rp439
(dp440
g17
I3
sg18
g19
(g23
S'\x01\x00\x00\x00\x00\x00\x00\x00'
p441
tp442
Rp443
sg11
(lp444
g0
(g37
g2
Ntp445
Rp446
(dp447
g41
g19
(g44
S'\x00\x00\x00\x00\x00\xf8\x82@'
p448
tp449
Rp450
sbasg50
g51
sg52
g213
sbag0
(g13
g2
Ntp451
Rp452
(dp453
g17
I3
sg18
g19
(g23
S'\x04\x00\x00\x00\x00\x00\x00\x00'
p454
tp455
Rp456
sg11
(lp457
g0
(g37
g2
Ntp458
Rp459
(dp460
g41
g19
(g44
S'\x00\x00\x00\x00\x00\xa0|@'
p461
tp462
Rp463
sbasg50
g51
sg52
g213
sbasg50
g51
sg52
g179
sbag0
(g13
g2
Ntp464
Rp465
(dp466
g17
I2
sg18
g19
(g23
S'\x0b\x00\x00\x00\x00\x00\x00\x00'
p467
tp468
Rp469
sg11
(lp470
g0
(g13
g2
Ntp471
Rp472
(dp473
g17
I3
sg18
g19
(g23
S'\x02\x00\x00\x00\x00\x00\x00\x00'
p474
tp475
Rp476
sg11
(lp477
g0
(g37
g2
Ntp478
Rp479
(dp480
g41
g19
(g44
S'\x00\x00\x00\x00\x00\x80c@'
p481
tp482
Rp483
sbasg50
g51
sg52
g213
sbag0
(g13
g2
Ntp484
Rp485
(dp486
g17
I3
sg18
g19
(g23
S'\x03\x00\x00\x00\x00\x00\x00\x00'
p487
tp488
Rp489
sg11
(lp490
g0
(g37
g2
Ntp491
Rp492
(dp493
g41
g19
(g44
S'\x00\x00\x00\x00\x00\x90w@'
p494
tp495
Rp496
sbasg50
g51
sg52
g213
sbasg50
g51
sg52
g179
sbag0
(g13
g2
Ntp497
Rp498
(dp499
g17
I2
sg18
g19
(g23
S'\x06\x00\x00\x00\x00\x00\x00\x00'
p500
tp501
Rp502
sg11
(lp503
g0
(g37
g2
Ntp504
Rp505
(dp506
g41
g19
(g44
S'\x00\x00\x00\x00\x00\x80x@'
p507
tp508
Rp509
sbasg50
g51
sg52
g179
sbag0
(g13
g2
Ntp510
Rp511
(dp512
g17
I2
sg18
g19
(g23
S'\x04\x00\x00\x00\x00\x00\x00\x00'
p513
tp514
Rp515
sg11
(lp516
g0
(g13
g2
Ntp517
Rp518
(dp519
g17
I3
sg18
g19
(g23
S'\x00\x00\x00\x00\x00\x00\x00\x00'
p520
tp521
Rp522
sg11
(lp523
g0
(g37
g2
Ntp524
Rp525
(dp526
g41
g19
(g44
S'\x00\x00\x00\x00\x00\xf0w@'
p527
tp528
Rp529
sbasg50
g51
sg52
g213
sbag0
(g13
g2
Ntp530
Rp531
(dp532
g17
I3
sg18
g19
(g23
S'\x01\x00\x00\x00\x00\x00\x00\x00'
p533
tp534
Rp535
sg11
(lp536
g0
(g37
g2
Ntp537
Rp538
(dp539
g41
g19
(g44
S'\x00\x00\x00\x00\x00\xf0z@'
p540
tp541
Rp542
sbasg50
g51
sg52
g213
sbasg50
g51
sg52
g179
sbag0
(g13
g2
Ntp543
Rp544
(dp545
g17
I2
sg18
g19
(g23
S'\x03\x00\x00\x00\x00\x00\x00\x00'
p546
tp547
Rp548
sg11
(lp549
g0
(g37
g2
Ntp550
Rp551
(dp552
g41
g19
(g44
S'\x00\x00\x00\x00\x00`\x80@'
p553
tp554
Rp555
sbasg50
g51
sg52
g179
sbasg50
g51
sg52
g158
sbag0
(g13
g2
Ntp556
Rp557
(dp558
g17
I1
sg18
g19
(g23
S':\x00\x00\x00\x00\x00\x00\x00'
p559
tp560
Rp561
sg11
(lp562
g0
(g13
g2
Ntp563
Rp564
(dp565
g17
I2
sg18
g19
(g23
S'\x01\x00\x00\x00\x00\x00\x00\x00'
p566
tp567
Rp568
sg11
(lp569
g0
(g37
g2
Ntp570
Rp571
(dp572
g41
g19
(g44
S'\x00\x00\x00\x00\x00\xc0{@'
p573
tp574
Rp575
sbasg50
g51
sg52
g179
sbag0
(g13
g2
Ntp576
Rp577
(dp578
g17
I2
sg18
g19
(g23
S'\x07\x00\x00\x00\x00\x00\x00\x00'
p579
tp580
Rp581
sg11
(lp582
g0
(g37
g2
Ntp583
Rp584
(dp585
g41
g19
(g44
S'\x00\x00\x00\x00\x00\x9c\x92@'
p586
tp587
Rp588
sbasg50
g51
sg52
g179
sbag0
(g13
g2
Ntp589
Rp590
(dp591
g17
I2
sg18
g19
(g23
S'\x0b\x00\x00\x00\x00\x00\x00\x00'
p592
tp593
Rp594
sg11
(lp595
g0
(g37
g2
Ntp596
Rp597
(dp598
g41
g19
(g44
S'\x00\x00\x00\x00\x00H\x87@'
p599
tp600
Rp601
sbasg50
g51
sg52
g179
sbag0
(g13
g2
Ntp602
Rp603
(dp604
g17
I2
sg18
g19
(g23
S'\n\x00\x00\x00\x00\x00\x00\x00'
p605
tp606
Rp607
sg11
(lp608
g0
(g13
g2
Ntp609
Rp610
(dp611
g17
I3
sg18
g19
(g23
S'\x11\x00\x00\x00\x00\x00\x00\x00'
p612
tp613
Rp614
sg11
(lp615
g0
(g37
g2
Ntp616
Rp617
(dp618
g41
g19
(g44
S'\x00\x00\x00\x00\x00\xd0t@'
p619
tp620
Rp621
sbasg50
g51
sg52
g53
sbag0
(g13
g2
Ntp622
Rp623
(dp624
g17
I3
sg18
g19
(g23
S'\x08\x00\x00\x00\x00\x00\x00\x00'
p625
tp626
Rp627
sg11
(lp628
g0
(g37
g2
Ntp629
Rp630
(dp631
g41
g19
(g44
S'\x00\x00\x00\x00\x00\xc0\x86@'
p632
tp633
Rp634
sbasg50
g51
sg52
g53
sbasg50
g51
sg52
g179
sbag0
(g13
g2
Ntp635
Rp636
(dp637
g17
I2
sg18
g19
(g23
S'\x08\x00\x00\x00\x00\x00\x00\x00'
p638
tp639
Rp640
sg11
(lp641
g0
(g37
g2
Ntp642
Rp643
(dp644
g41
g19
(g44
S'\x00\x00\x00\x00\x00P~@'
p645
tp646
Rp647
sbasg50
g51
sg52
g179
sbasg50
g51
sg52
g158
sbag0
(g13
g2
Ntp648
Rp649
(dp650
g17
I1
sg18
g19
(g23
S'\n\x00\x00\x00\x00\x00\x00\x00'
p651
tp652
Rp653
sg11
(lp654
g0
(g13
g2
Ntp655
Rp656
(dp657
g17
I2
sg18
g19
(g23
S'\x0b\x00\x00\x00\x00\x00\x00\x00'
p658
tp659
Rp660
sg11
(lp661
g0
(g37
g2
Ntp662
Rp663
(dp664
g41
g19
(g44
S'\x00\x00\x00\x00\x00\x00k@'
p665
tp666
Rp667
sbasg50
g51
sg52
g53
sbag0
(g13
g2
Ntp668
Rp669
(dp670
g17
I2
sg18
g19
(g23
S'\x0e\x00\x00\x00\x00\x00\x00\x00'
p671
tp672
Rp673
sg11
(lp674
g0
(g13
g2
Ntp675
Rp676
(dp677
g17
I3
sg18
g19
(g23
S'\x04\x00\x00\x00\x00\x00\x00\x00'
p678
tp679
Rp680
sg11
(lp681
g0
(g37
g2
Ntp682
Rp683
(dp684
g41
g19
(g44
S'\x00\x00\x00\x00\x00 \x87@'
p685
tp686
Rp687
sbasg50
g51
sg52
g213
sbag0
(g13
g2
Ntp688
Rp689
(dp690
g17
I3
sg18
g19
(g23
S'\x02\x00\x00\x00\x00\x00\x00\x00'
p691
tp692
Rp693
sg11
(lp694
g0
(g37
g2
Ntp695
Rp696
(dp697
g41
g19
(g44
S'\x00\x00\x00\x00\x00\xb0\x80@'
p698
tp699
Rp700
sbasg50
g51
sg52
g213
sbasg50
g51
sg52
g53
sbag0
(g13
g2
Ntp701
Rp702
(dp703
g17
I2
sg18
g19
(g23
S'\x0f\x00\x00\x00\x00\x00\x00\x00'
p704
tp705
Rp706
sg11
(lp707
g0
(g37
g2
Ntp708
Rp709
(dp710
g41
g19
(g44
S'\x00\x00\x00\x00\x00\xa0r@'
p711
tp712
Rp713
sbasg50
g51
sg52
g53
sbag0
(g13
g2
Ntp714
Rp715
(dp716
g17
I2
sg18
g19
(g23
S'\x10\x00\x00\x00\x00\x00\x00\x00'
p717
tp718
Rp719
sg11
(lp720
g0
(g37
g2
Ntp721
Rp722
(dp723
g41
g19
(g44
S'\x00\x00\x00\x00\x000\x85@'
p724
tp725
Rp726
sbasg50
g51
sg52
g53
sbasg50
g51
sg52
g158
sbag0
(g13
g2
Ntp727
Rp728
(dp729
g17
I1
sg18
g19
(g23
S'>\x00\x00\x00\x00\x00\x00\x00'
p730
tp731
Rp732
sg11
(lp733
g0
(g13
g2
Ntp734
Rp735
(dp736
g17
I2
sg18
g19
(g23
S'\x10\x00\x00\x00\x00\x00\x00\x00'
p737
tp738
Rp739
sg11
(lp740
g0
(g13
g2
Ntp741
Rp742
(dp743
g17
I3
sg18
g19
(g23
S'\x06\x00\x00\x00\x00\x00\x00\x00'
p744
tp745
Rp746
sg11
(lp747
g0
(g37
g2
Ntp748
Rp749
(dp750
g41
g19
(g44
S'\x00\x00\x00\x00\x00`s@'
p751
tp752
Rp753
sbasg50
g51
sg52
g179
sbag0
(g13
g2
Ntp754
Rp755
(dp756
g17
I3
sg18
g19
(g23
S'\x0c\x00\x00\x00\x00\x00\x00\x00'
p757
tp758
Rp759
sg11
(lp760
g0
(g13
g2
Ntp761
Rp762
(dp763
g17
I4
sg18
g19
(g23
S'\x00\x00\x00\x00\x00\x00\x00\x00'
p764
tp765
Rp766
sg11
(lp767
g0
(g37
g2
Ntp768
Rp769
(dp770
g41
g19
(g44
S'\x00\x00\x00\x00\x00\x00s@'
p771
tp772
Rp773
sbasg50
g51
sg52
g213
sbag0
(g13
g2
Ntp774
Rp775
(dp776
g17
I4
sg18
g19
(g23
S'\x01\x00\x00\x00\x00\x00\x00\x00'
p777
tp778
Rp779
sg11
(lp780
g0
(g37
g2
Ntp781
Rp782
(dp783
g41
g19
(g44
S'\x00\x00\x00\x00\x00\x90p@'
p784
tp785
Rp786
sbasg50
g51
sg52
g213
sbasg50
g51
sg52
g179
sbag0
(g13
g2
Ntp787
Rp788
(dp789
g17
I3
sg18
g19
(g23
S'\x01\x00\x00\x00\x00\x00\x00\x00'
p790
tp791
Rp792
sg11
(lp793
g0
(g37
g2
Ntp794
Rp795
(dp796
g41
g19
(g44
S'\x00\x00\x00\x00\x00\x90p@'
p797
tp798
Rp799
sbasg50
g51
sg52
g179
sbasg50
g51
sg52
g53
sbag0
(g13
g2
Ntp800
Rp801
(dp802
g17
I2
sg18
g19
(g23
S'\r\x00\x00\x00\x00\x00\x00\x00'
p803
tp804
Rp805
sg11
(lp806
g0
(g37
g2
Ntp807
Rp808
(dp809
g41
g19
(g44
S'\x00\x00\x00\x00\x00@^@'
p810
tp811
Rp812
sbasg50
g51
sg52
g53
sbag0
(g13
g2
Ntp813
Rp814
(dp815
g17
I2
sg18
g19
(g23
S'\x11\x00\x00\x00\x00\x00\x00\x00'
p816
tp817
Rp818
sg11
(lp819
g0
(g13
g2
Ntp820
Rp821
(dp822
g17
I3
sg18
g19
(g23
S'\x04\x00\x00\x00\x00\x00\x00\x00'
p823
tp824
Rp825
sg11
(lp826
g0
(g37
g2
Ntp827
Rp828
(dp829
g41
g19
(g44
S'\x00\x00\x00\x00\x00\xe0z@'
p830
tp831
Rp832
sbasg50
g51
sg52
g213
sbag0
(g13
g2
Ntp833
Rp834
(dp835
g17
I3
sg18
g19
(g23
S'\x00\x00\x00\x00\x00\x00\x00\x00'
p836
tp837
Rp838
sg11
(lp839
g0
(g37
g2
Ntp840
Rp841
(dp842
g41
g19
(g44
S'\x00\x00\x00\x00\x00\xe0\x83@'
p843
tp844
Rp845
sbasg50
g51
sg52
g213
sbag0
(g13
g2
Ntp846
Rp847
(dp848
g17
I3
sg18
g19
(g23
S'\x01\x00\x00\x00\x00\x00\x00\x00'
p849
tp850
Rp851
sg11
(lp852
g0
(g37
g2
Ntp853
Rp854
(dp855
g41
g19
(g44
S'\x00\x00\x00\x00\x00\xa0{@'
p856
tp857
Rp858
sbasg50
g51
sg52
g213
sbasg50
g51
sg52
g53
sbag0
(g13
g2
Ntp859
Rp860
(dp861
g17
I2
sg18
g19
(g23
S'\x0c\x00\x00\x00\x00\x00\x00\x00'
p862
tp863
Rp864
sg11
(lp865
g0
(g13
g2
Ntp866
Rp867
(dp868
g17
I3
sg18
g19
(g23
S'\x01\x00\x00\x00\x00\x00\x00\x00'
p869
tp870
Rp871
sg11
(lp872
g0
(g37
g2
Ntp873
Rp874
(dp875
g41
g19
(g44
S'\x00\x00\x00\x00\x80+\xc8@'
p876
tp877
Rp878
sbasg50
g51
sg52
S'subscription_type'
p879
sbag0
(g13
g2
Ntp880
Rp881
(dp882
g17
I3
sg18
g19
(g23
S'\x02\x00\x00\x00\x00\x00\x00\x00'
p883
tp884
Rp885
sg11
(lp886
g0
(g37
g2
Ntp887
Rp888
(dp889
g41
g19
(g44
S'\x00\x00\x00\x00\x00\x88\x90@'
p890
tp891
Rp892
sbasg50
g51
sg52
g879
sbasg50
g51
sg52
g53
sbag0
(g13
g2
Ntp893
Rp894
(dp895
g17
I2
sg18
g19
(g23
S'\x05\x00\x00\x00\x00\x00\x00\x00'
p896
tp897
Rp898
sg11
(lp899
g0
(g37
g2
Ntp900
Rp901
(dp902
g41
g19
(g44
S'\x00\x00\x00\x00\x00\xa0d@'
p903
tp904
Rp905
sbasg50
g51
sg52
g53
sbag0
(g13
g2
Ntp906
Rp907
(dp908
g17
I2
sg18
g19
(g23
S'\x12\x00\x00\x00\x00\x00\x00\x00'
p909
tp910
Rp911
sg11
(lp912
g0
(g37
g2
Ntp913
Rp914
(dp915
g41
g19
(g44
S'\x00\x00\x00\x00\x00\xc0n@'
p916
tp917
Rp918
sbasg50
g51
sg52
g53
sbag0
(g13
g2
Ntp919
Rp920
(dp921
g17
I2
sg18
g19
(g23
S'\x15\x00\x00\x00\x00\x00\x00\x00'
p922
tp923
Rp924
sg11
(lp925
g0
(g37
g2
Ntp926
Rp927
(dp928
g41
g19
(g44
S'\x00\x00\x00\x00\x000q@'
p929
tp930
Rp931
sbasg50
g51
sg52
g53
sbasg50
g51
sg52
g158
sbag0
(g13
g2
Ntp932
Rp933
(dp934
g17
I1
sg18
g19
(g23
S'6\x00\x00\x00\x00\x00\x00\x00'
p935
tp936
Rp937
sg11
(lp938
g0
(g13
g2
Ntp939
Rp940
(dp941
g17
I2
sg18
g19
(g23
S'\x06\x00\x00\x00\x00\x00\x00\x00'
p942
tp943
Rp944
sg11
(lp945
g0
(g13
g2
Ntp946
Rp947
(dp948
g17
I3
sg18
g19
(g23
S'\x01\x00\x00\x00\x00\x00\x00\x00'
p949
tp950
Rp951
sg11
(lp952
g0
(g13
g2
Ntp953
Rp954
(dp955
g17
I4
sg18
g19
(g23
S'\x01\x00\x00\x00\x00\x00\x00\x00'
p956
tp957
Rp958
sg11
(lp959
g0
(g13
g2
Ntp960
Rp961
(dp962
g17
I5
sg18
g19
(g23
S'6\x00\x00\x00\x00\x00\x00\x00'
p963
tp964
Rp965
sg11
(lp966
g0
(g13
g2
Ntp967
Rp968
(dp969
g17
I6
sg18
g19
(g23
S'6\x00\x00\x00\x00\x00\x00\x00'
p970
tp971
Rp972
sg11
(lp973
g0
(g13
g2
Ntp974
Rp975
(dp976
g17
I7
sg18
g19
(g23
S'\x07\x00\x00\x00\x00\x00\x00\x00'
p977
tp978
Rp979
sg11
(lp980
g0
(g37
g2
Ntp981
Rp982
(dp983
g41
g19
(g44
S'\x00\x00\x00\x00\x00\xc0\x7f@'
p984
tp985
Rp986
sbasg50
g51
sg52
g53
sbag0
(g13
g2
Ntp987
Rp988
(dp989
g17
I7
sg18
g19
(g23
S'\r\x00\x00\x00\x00\x00\x00\x00'
p990
tp991
Rp992
sg11
(lp993
g0
(g37
g2
Ntp994
Rp995
(dp996
g41
g19
(g44
S'\x00\x00\x00\x00\x00@l@'
p997
tp998
Rp999
sbasg50
g51
sg52
g53
sbasg50
g51
sg52
g158
sbasg50
g51
sg52
g158
sbasg50
g51
sg52
g879
sbasg50
g51
sg52
g879
sbasg50
g51
sg52
g179
sbag0
(g13
g2
Ntp1000
Rp1001
(dp1002
g17
I2
sg18
g19
(g23
S'\x03\x00\x00\x00\x00\x00\x00\x00'
p1003
tp1004
Rp1005
sg11
(lp1006
g0
(g37
g2
Ntp1007
Rp1008
(dp1009
g41
g19
(g44
S'\x00\x00\x00\x00\x00\xb0~@'
p1010
tp1011
Rp1012
sbasg50
g51
sg52
g179
sbag0
(g13
g2
Ntp1013
Rp1014
(dp1015
g17
I2
sg18
g19
(g23
S'\x07\x00\x00\x00\x00\x00\x00\x00'
p1016
tp1017
Rp1018
sg11
(lp1019
g0
(g37
g2
Ntp1020
Rp1021
(dp1022
g41
g19
(g44
S'\x00\x00\x00\x00\x00`\x9c@'
p1023
tp1024
Rp1025
sbasg50
g51
sg52
g179
sbag0
(g13
g2
Ntp1026
Rp1027
(dp1028
g17
I2
sg18
g19
(g23
S'\x05\x00\x00\x00\x00\x00\x00\x00'
p1029
tp1030
Rp1031
sg11
(lp1032
g0
(g37
g2
Ntp1033
Rp1034
(dp1035
g41
g19
(g44
S'\x00\x00\x00\x00\x00\x80b@'
p1036
tp1037
Rp1038
sbasg50
g51
sg52
g179
sbag0
(g13
g2
Ntp1039
Rp1040
(dp1041
g17
I2
sg18
g19
(g23
S'\x04\x00\x00\x00\x00\x00\x00\x00'
p1042
tp1043
Rp1044
sg11
(lp1045
g0
(g37
g2
Ntp1046
Rp1047
(dp1048
g41
g19
(g44
S'\x00\x00\x00\x00\x00h\x83@'
p1049
tp1050
Rp1051
sbasg50
g51
sg52
g179
sbag0
(g13
g2
Ntp1052
Rp1053
(dp1054
g17
I2
sg18
g19
(g23
S'\n\x00\x00\x00\x00\x00\x00\x00'
p1055
tp1056
Rp1057
sg11
(lp1058
g0
(g37
g2
Ntp1059
Rp1060
(dp1061
g41
g19
(g44
S'\x00\x00\x00\x00\x000|@'
p1062
tp1063
Rp1064
sbasg50
g51
sg52
g179
sbasg50
g51
sg52
g158
sbag0
(g13
g2
Ntp1065
Rp1066
(dp1067
g17
I1
sg18
g19
(g23
S'A\x00\x00\x00\x00\x00\x00\x00'
p1068
tp1069
Rp1070
sg11
(lp1071
g0
(g13
g2
Ntp1072
Rp1073
(dp1074
g17
I2
sg18
g19
(g23
S'\x14\x00\x00\x00\x00\x00\x00\x00'
p1075
tp1076
Rp1077
sg11
(lp1078
g0
(g37
g2
Ntp1079
Rp1080
(dp1081
g41
g19
(g44
S'\x00\x00\x00\x00\x00\xa0\x88@'
p1082
tp1083
Rp1084
sbasg50
g51
sg52
g53
sbag0
(g13
g2
Ntp1085
Rp1086
(dp1087
g17
I2
sg18
g19
(g23
S'\x10\x00\x00\x00\x00\x00\x00\x00'
p1088
tp1089
Rp1090
sg11
(lp1091
g0
(g13
g2
Ntp1092
Rp1093
(dp1094
g17
I3
sg18
g19
(g23
S'\x02\x00\x00\x00\x00\x00\x00\x00'
p1095
tp1096
Rp1097
sg11
(lp1098
g0
(g37
g2
Ntp1099
Rp1100
(dp1101
g41
g19
(g44
S'\x00\x00\x00\x00\x00h\x92@'
p1102
tp1103
Rp1104
sbasg50
g51
sg52
g213
sbag0
(g13
g2
Ntp1105
Rp1106
(dp1107
g17
I3
sg18
g19
(g23
S'\x06\x00\x00\x00\x00\x00\x00\x00'
p1108
tp1109
Rp1110
sg11
(lp1111
g0
(g37
g2
Ntp1112
Rp1113
(dp1114
g41
g19
(g44
S'\x00\x00\x00\x00\x00\xf0p@'
p1115
tp1116
Rp1117
sbasg50
g51
sg52
g213
sbag0
(g13
g2
Ntp1118
Rp1119
(dp1120
g17
I3
sg18
g19
(g23
S'\x03\x00\x00\x00\x00\x00\x00\x00'
p1121
tp1122
Rp1123
sg11
(lp1124
g0
(g37
g2
Ntp1125
Rp1126
(dp1127
g41
g19
(g44
S'\x00\x00\x00\x00\x00\x00e@'
p1128
tp1129
Rp1130
sbasg50
g51
sg52
g213
sbag0
(g13
g2
Ntp1131
Rp1132
(dp1133
g17
I3
sg18
g19
(g23
S'\x00\x00\x00\x00\x00\x00\x00\x00'
p1134
tp1135
Rp1136
sg11
(lp1137
g0
(g13
g2
Ntp1138
Rp1139
(dp1140
g17
I4
sg18
g19
(g23
S'\x04\x00\x00\x00\x00\x00\x00\x00'
p1141
tp1142
Rp1143
sg11
(lp1144
g0
(g37
g2
Ntp1145
Rp1146
(dp1147
g41
g19
(g44
S'\x00\x00\x00\x00\x00(\x87@'
p1148
tp1149
Rp1150
sbasg50
g51
sg52
g179
sbag0
(g13
g2
Ntp1151
Rp1152
(dp1153
g17
I4
sg18
g19
(g23
S'\x01\x00\x00\x00\x00\x00\x00\x00'
p1154
tp1155
Rp1156
sg11
(lp1157
g0
(g37
g2
Ntp1158
Rp1159
(dp1160
g41
g19
(g44
S'\x00\x00\x00\x00\x00\\\x91@'
p1161
tp1162
Rp1163
sbasg50
g51
sg52
g179
sbasg50
g51
sg52
g213
sbasg50
g51
sg52
g53
sbag0
(g13
g2
Ntp1164
Rp1165
(dp1166
g17
I2
sg18
g19
(g23
S'\t\x00\x00\x00\x00\x00\x00\x00'
p1167
tp1168
Rp1169
sg11
(lp1170
g0
(g37
g2
Ntp1171
Rp1172
(dp1173
g41
g19
(g44
S'\x00\x00\x00\x00\x00\xa0\x82@'
p1174
tp1175
Rp1176
sbasg50
g51
sg52
g53
sbag0
(g13
g2
Ntp1177
Rp1178
(dp1179
g17
I2
sg18
g19
(g23
S'\x16\x00\x00\x00\x00\x00\x00\x00'
p1180
tp1181
Rp1182
sg11
(lp1183
g0
(g37
g2
Ntp1184
Rp1185
(dp1186
g41
g19
(g44
S'\x00\x00\x00\x00\x00\xa0q@'
p1187
tp1188
Rp1189
sbasg50
g51
sg52
g53
sbag0
(g13
g2
Ntp1190
Rp1191
(dp1192
g17
I2
sg18
g19
(g23
S'\n\x00\x00\x00\x00\x00\x00\x00'
p1193
tp1194
Rp1195
sg11
(lp1196
g0
(g13
g2
Ntp1197
Rp1198
(dp1199
g17
I3
sg18
g19
(g23
S'\x06\x00\x00\x00\x00\x00\x00\x00'
p1200
tp1201
Rp1202
sg11
(lp1203
g0
(g37
g2
Ntp1204
Rp1205
(dp1206
g41
g19
(g44
S'\x00\x00\x00\x00\x00\x10\x89@'
p1207
tp1208
Rp1209
sbasg50
g51
sg52
g213
sbag0
(g13
g2
Ntp1210
Rp1211
(dp1212
g17
I3
sg18
g19
(g23
S'\x01\x00\x00\x00\x00\x00\x00\x00'
p1213
tp1214
Rp1215
sg11
(lp1216
g0
(g37
g2
Ntp1217
Rp1218
(dp1219
g41
g19
(g44
S'\x00\x00\x00\x00\x00\xc0\x86@'
p1220
tp1221
Rp1222
sbasg50
g51
sg52
g213
sbasg50
g51
sg52
g53
sbag0
(g13
g2
Ntp1223
Rp1224
(dp1225
g17
I2
sg18
g19
(g23
S'\x08\x00\x00\x00\x00\x00\x00\x00'
p1226
tp1227
Rp1228
sg11
(lp1229
g0
(g37
g2
Ntp1230
Rp1231
(dp1232
g41
g19
(g44
S'\x00\x00\x00\x00\x00\x88\x82@'
p1233
tp1234
Rp1235
sbasg50
g51
sg52
g53
sbag0
(g13
g2
Ntp1236
Rp1237
(dp1238
g17
I2
sg18
g19
(g23
S'\x0e\x00\x00\x00\x00\x00\x00\x00'
p1239
tp1240
Rp1241
sg11
(lp1242
g0
(g37
g2
Ntp1243
Rp1244
(dp1245
g41
g19
(g44
S'\x00\x00\x00\x00\x00\xa0~@'
p1246
tp1247
Rp1248
sbasg50
g51
sg52
g53
sbag0
(g13
g2
Ntp1249
Rp1250
(dp1251
g17
I2
sg18
g19
(g23
S'\x0c\x00\x00\x00\x00\x00\x00\x00'
p1252
tp1253
Rp1254
sg11
(lp1255
g0
(g37
g2
Ntp1256
Rp1257
(dp1258
g41
g19
(g44
S'\x00\x00\x00\x00\x00\xd0\x8b@'
p1259
tp1260
Rp1261
sbasg50
g51
sg52
g53
sbag0
(g13
g2
Ntp1262
Rp1263
(dp1264
g17
I2
sg18
g19
(g23
S'\r\x00\x00\x00\x00\x00\x00\x00'
p1265
tp1266
Rp1267
sg11
(lp1268
g0
(g37
g2
Ntp1269
Rp1270
(dp1271
g41
g19
(g44
S'\x00\x00\x00\x00\x00\x08\x82@'
p1272
tp1273
Rp1274
sbasg50
g51
sg52
g53
sbag0
(g13
g2
Ntp1275
Rp1276
(dp1277
g17
I2
sg18
g19
(g23
S'\x0b\x00\x00\x00\x00\x00\x00\x00'
p1278
tp1279
Rp1280
sg11
(lp1281
g0
(g13
g2
Ntp1282
Rp1283
(dp1284
g17
I3
sg18
g19
(g23
S'\x02\x00\x00\x00\x00\x00\x00\x00'
p1285
tp1286
Rp1287
sg11
(lp1288
g0
(g37
g2
Ntp1289
Rp1290
(dp1291
g41
g19
(g44
S'\x00\x00\x00\x00\x00\x04\x90@'
p1292
tp1293
Rp1294
sbasg50
g51
sg52
g213
sbag0
(g13
g2
Ntp1295
Rp1296
(dp1297
g17
I3
sg18
g19
(g23
S'\x03\x00\x00\x00\x00\x00\x00\x00'
p1298
tp1299
Rp1300
sg11
(lp1301
g0
(g37
g2
Ntp1302
Rp1303
(dp1304
g41
g19
(g44
S'\x00\x00\x00\x00\x00\xb0z@'
p1305
tp1306
Rp1307
sbasg50
g51
sg52
g213
sbasg50
g51
sg52
g53
sbag0
(g13
g2
Ntp1308
Rp1309
(dp1310
g17
I2
sg18
g19
(g23
S'\x11\x00\x00\x00\x00\x00\x00\x00'
p1311
tp1312
Rp1313
sg11
(lp1314
g0
(g13
g2
Ntp1315
Rp1316
(dp1317
g17
I3
sg18
g19
(g23
S'\x04\x00\x00\x00\x00\x00\x00\x00'
p1318
tp1319
Rp1320
sg11
(lp1321
g0
(g37
g2
Ntp1322
Rp1323
(dp1324
g41
g19
(g44
S'\x00\x00\x00\x00\x00(\x84@'
p1325
tp1326
Rp1327
sbasg50
g51
sg52
g179
sbag0
(g13
g2
Ntp1328
Rp1329
(dp1330
g17
I3
sg18
g19
(g23
S'\x07\x00\x00\x00\x00\x00\x00\x00'
p1331
tp1332
Rp1333
sg11
(lp1334
g0
(g37
g2
Ntp1335
Rp1336
(dp1337
g41
g19
(g44
S'\x00\x00\x00\x00\x00P\x8d@'
p1338
tp1339
Rp1340
sbasg50
g51
sg52
g179
sbasg50
g51
sg52
g53
sbasg50
g51
sg52
g158
sbag0
(g13
g2
Ntp1341
Rp1342
(dp1343
g17
I1
sg18
g19
(g23
S'I\x00\x00\x00\x00\x00\x00\x00'
p1344
tp1345
Rp1346
sg11
(lp1347
g0
(g13
g2
Ntp1348
Rp1349
(dp1350
g17
I2
sg18
g19
(g23
S'\x07\x00\x00\x00\x00\x00\x00\x00'
p1351
tp1352
Rp1353
sg11
(lp1354
g0
(g13
g2
Ntp1355
Rp1356
(dp1357
g17
I3
sg18
g19
(g23
S'\x01\x00\x00\x00\x00\x00\x00\x00'
p1358
tp1359
Rp1360
sg11
(lp1361
g0
(g37
g2
Ntp1362
Rp1363
(dp1364
g41
g19
(g44
S'\x00\x00\x00\x00\x00\xc0\x80@'
p1365
tp1366
Rp1367
sbasg50
g51
sg52
g213
sbag0
(g13
g2
Ntp1368
Rp1369
(dp1370
g17
I3
sg18
g19
(g23
S'\x02\x00\x00\x00\x00\x00\x00\x00'
p1371
tp1372
Rp1373
sg11
(lp1374
g0
(g37
g2
Ntp1375
Rp1376
(dp1377
g41
g19
(g44
S'\x00\x00\x00\x00\x00\xa0~@'
p1378
tp1379
Rp1380
sbasg50
g51
sg52
g213
sbasg50
g51
sg52
g53
sbag0
(g13
g2
Ntp1381
Rp1382
(dp1383
g17
I2
sg18
g19
(g23
S'\x0e\x00\x00\x00\x00\x00\x00\x00'
p1384
tp1385
Rp1386
sg11
(lp1387
g0
(g13
g2
Ntp1388
Rp1389
(dp1390
g17
I3
sg18
g19
(g23
S'\x01\x00\x00\x00\x00\x00\x00\x00'
p1391
tp1392
Rp1393
sg11
(lp1394
g0
(g37
g2
Ntp1395
Rp1396
(dp1397
g41
g19
(g44
S'\x00\x00\x00\x00\x00\xe8\x85@'
p1398
tp1399
Rp1400
sbasg50
g51
sg52
g879
sbag0
(g13
g2
Ntp1401
Rp1402
(dp1403
g17
I3
sg18
g19
(g23
S'\x02\x00\x00\x00\x00\x00\x00\x00'
p1404
tp1405
Rp1406
sg11
(lp1407
g0
(g37
g2
Ntp1408
Rp1409
(dp1410
g41
g19
(g44
S'\x00\x00\x00\x00\x00\xd8\x98@'
p1411
tp1412
Rp1413
sbasg50
g51
sg52
g879
sbasg50
g51
sg52
g53
sbag0
(g13
g2
Ntp1414
Rp1415
(dp1416
g17
I2
sg18
g19
(g23
S'\r\x00\x00\x00\x00\x00\x00\x00'
p1417
tp1418
Rp1419
sg11
(lp1420
g0
(g37
g2
Ntp1421
Rp1422
(dp1423
g41
g19
(g44
S'\x00\x00\x00\x00\x00\x8c\x9c@'
p1424
tp1425
Rp1426
sbasg50
g51
sg52
g53
sbag0
(g13
g2
Ntp1427
Rp1428
(dp1429
g17
I2
sg18
g19
(g23
S'\x0b\x00\x00\x00\x00\x00\x00\x00'
p1430
tp1431
Rp1432
sg11
(lp1433
g0
(g37
g2
Ntp1434
Rp1435
(dp1436
g41
g19
(g44
S'\x00\x00\x00\x00\x00\x00{@'
p1437
tp1438
Rp1439
sbasg50
g51
sg52
g53
sbag0
(g13
g2
Ntp1440
Rp1441
(dp1442
g17
I2
sg18
g19
(g23
S'\t\x00\x00\x00\x00\x00\x00\x00'
p1443
tp1444
Rp1445
sg11
(lp1446
g0
(g37
g2
Ntp1447
Rp1448
(dp1449
g41
g19
(g44
S'\x00\x00\x00\x00\x00\xb0s@'
p1450
tp1451
Rp1452
sbasg50
g51
sg52
g53
sbag0
(g13
g2
Ntp1453
Rp1454
(dp1455
g17
I2
sg18
g19
(g23
S'\x16\x00\x00\x00\x00\x00\x00\x00'
p1456
tp1457
Rp1458
sg11
(lp1459
g0
(g37
g2
Ntp1460
Rp1461
(dp1462
g41
g19
(g44
S'\x00\x00\x00\x00\x00\x98\x8b@'
p1463
tp1464
Rp1465
sbasg50
g51
sg52
g53
sbag0
(g13
g2
Ntp1466
Rp1467
(dp1468
g17
I2
sg18
g19
(g23
S'\x10\x00\x00\x00\x00\x00\x00\x00'
p1469
tp1470
Rp1471
sg11
(lp1472
g0
(g37
g2
Ntp1473
Rp1474
(dp1475
g41
g19
(g44
S'\x00\x00\x00\x00\x00P\x85@'
p1476
tp1477
Rp1478
sbasg50
g51
sg52
g53
sbag0
(g13
g2
Ntp1479
Rp1480
(dp1481
g17
I2
sg18
g19
(g23
S'\x05\x00\x00\x00\x00\x00\x00\x00'
p1482
tp1483
Rp1484
sg11
(lp1485
g0
(g37
g2
Ntp1486
Rp1487
(dp1488
g41
g19
(g44
S'\x00\x00\x00\x00\x00\xb0q@'
p1489
tp1490
Rp1491
sbasg50
g51
sg52
g53
sbag0
(g13
g2
Ntp1492
Rp1493
(dp1494
g17
I2
sg18
g19
(g23
S'\x0c\x00\x00\x00\x00\x00\x00\x00'
p1495
tp1496
Rp1497
sg11
(lp1498
g0
(g37
g2
Ntp1499
Rp1500
(dp1501
g41
g19
(g44
S'\x00\x00\x00\x00\x00\xa0r@'
p1502
tp1503
Rp1504
sbasg50
g51
sg52
g53
sbag0
(g13
g2
Ntp1505
Rp1506
(dp1507
g17
I2
sg18
g19
(g23
S'\x13\x00\x00\x00\x00\x00\x00\x00'
p1508
tp1509
Rp1510
sg11
(lp1511
g0
(g37
g2
Ntp1512
Rp1513
(dp1514
g41
g19
(g44
S'\x00\x00\x00\x00\x00l\x98@'
p1515
tp1516
Rp1517
sbasg50
g51
sg52
g53
sbasg50
g51
sg52
g158
sbag0
(g13
g2
Ntp1518
Rp1519
(dp1520
g17
I1
sg18
g19
(g23
S')\x00\x00\x00\x00\x00\x00\x00'
p1521
tp1522
Rp1523
sg11
(lp1524
g0
(g13
g2
Ntp1525
Rp1526
(dp1527
g17
I2
sg18
g19
(g23
S'\x08\x00\x00\x00\x00\x00\x00\x00'
p1528
tp1529
Rp1530
sg11
(lp1531
g0
(g13
g2
Ntp1532
Rp1533
(dp1534
g17
I3
sg18
g19
(g23
S'\x12\x00\x00\x00\x00\x00\x00\x00'
p1535
tp1536
Rp1537
sg11
(lp1538
g0
(g37
g2
Ntp1539
Rp1540
(dp1541
g41
g19
(g44
S'\x00\x00\x00\x00\x00\x80j@'
p1542
tp1543
Rp1544
sbasg50
g51
sg52
g53
sbag0
(g13
g2
Ntp1545
Rp1546
(dp1547
g17
I3
sg18
g19
(g23
S'\x10\x00\x00\x00\x00\x00\x00\x00'
p1548
tp1549
Rp1550
sg11
(lp1551
g0
(g37
g2
Ntp1552
Rp1553
(dp1554
g41
g19
(g44
S'\x00\x00\x00\x00\x00\x90v@'
p1555
tp1556
Rp1557
sbasg50
g51
sg52
g53
sbasg50
g51
sg52
g179
sbag0
(g13
g2
Ntp1558
Rp1559
(dp1560
g17
I2
sg18
g19
(g23
S'\t\x00\x00\x00\x00\x00\x00\x00'
p1561
tp1562
Rp1563
sg11
(lp1564
g0
(g13
g2
Ntp1565
Rp1566
(dp1567
g17
I3
sg18
g19
(g23
S'\x00\x00\x00\x00\x00\x00\x00\x00'
p1568
tp1569
Rp1570
sg11
(lp1571
g0
(g37
g2
Ntp1572
Rp1573
(dp1574
g41
g19
(g44
S'\x00\x00\x00\x00\x00\xe8\x82@'
p1575
tp1576
Rp1577
sbasg50
g51
sg52
g213
sbag0
(g13
g2
Ntp1578
Rp1579
(dp1580
g17
I3
sg18
g19
(g23
S'\x02\x00\x00\x00\x00\x00\x00\x00'
p1581
tp1582
Rp1583
sg11
(lp1584
g0
(g37
g2
Ntp1585
Rp1586
(dp1587
g41
g19
(g44
S'\x00\x00\x00\x00\x00ps@'
p1588
tp1589
Rp1590
sbasg50
g51
sg52
g213
sbag0
(g13
g2
Ntp1591
Rp1592
(dp1593
g17
I3
sg18
g19
(g23
S'\x03\x00\x00\x00\x00\x00\x00\x00'
p1594
tp1595
Rp1596
sg11
(lp1597
g0
(g37
g2
Ntp1598
Rp1599
(dp1600
g41
g19
(g44
S'\x00\x00\x00\x00\x00\x00\x7f@'
p1601
tp1602
Rp1603
sbasg50
g51
sg52
g213
sbasg50
g51
sg52
g179
sbag0
(g13
g2
Ntp1604
Rp1605
(dp1606
g17
I2
sg18
g19
(g23
S'\x0b\x00\x00\x00\x00\x00\x00\x00'
p1607
tp1608
Rp1609
sg11
(lp1610
g0
(g37
g2
Ntp1611
Rp1612
(dp1613
g41
g19
(g44
S'\x00\x00\x00\x00\x008\x82@'
p1614
tp1615
Rp1616
sbasg50
g51
sg52
g179
sbag0
(g13
g2
Ntp1617
Rp1618
(dp1619
g17
I2
sg18
g19
(g23
S'\x01\x00\x00\x00\x00\x00\x00\x00'
p1620
tp1621
Rp1622
sg11
(lp1623
g0
(g13
g2
Ntp1624
Rp1625
(dp1626
g17
I3
sg18
g19
(g23
S'\x00\x00\x00\x00\x00\x00\x00\x00'
p1627
tp1628
Rp1629
sg11
(lp1630
g0
(g37
g2
Ntp1631
Rp1632
(dp1633
g41
g19
(g44
S'\x00\x00\x00\x00\x000u@'
p1634
tp1635
Rp1636
sbasg50
g51
sg52
g213
sbag0
(g13
g2
Ntp1637
Rp1638
(dp1639
g17
I3
sg18
g19
(g23
S'\x03\x00\x00\x00\x00\x00\x00\x00'
p1640
tp1641
Rp1642
sg11
(lp1643
g0
(g37
g2
Ntp1644
Rp1645
(dp1646
g41
g19
(g44
S'\x00\x00\x00\x00\x00\x00\x91@'
p1647
tp1648
Rp1649
sbasg50
g51
sg52
g213
sbasg50
g51
sg52
g179
sbag0
(g13
g2
Ntp1650
Rp1651
(dp1652
g17
I2
sg18
g19
(g23
S'\x02\x00\x00\x00\x00\x00\x00\x00'
p1653
tp1654
Rp1655
sg11
(lp1656
g0
(g37
g2
Ntp1657
Rp1658
(dp1659
g41
g19
(g44
S'\x00\x00\x00\x00\x00P\x7f@'
p1660
tp1661
Rp1662
sbasg50
g51
sg52
g179
sbasg50
g51
sg52
g158
sbag0
(g13
g2
Ntp1663
Rp1664
(dp1665
g17
I1
sg18
g19
(g23
S'*\x00\x00\x00\x00\x00\x00\x00'
p1666
tp1667
Rp1668
sg11
(lp1669
g0
(g13
g2
Ntp1670
Rp1671
(dp1672
g17
I2
sg18
g19
(g23
S'\x05\x00\x00\x00\x00\x00\x00\x00'
p1673
tp1674
Rp1675
sg11
(lp1676
g0
(g13
g2
Ntp1677
Rp1678
(dp1679
g17
I3
sg18
g19
(g23
S'\x03\x00\x00\x00\x00\x00\x00\x00'
p1680
tp1681
Rp1682
sg11
(lp1683
g0
(g37
g2
Ntp1684
Rp1685
(dp1686
g41
g19
(g44
S'\x00\x00\x00\x00\x00(\x85@'
p1687
tp1688
Rp1689
sbasg50
g51
sg52
g213
sbag0
(g13
g2
Ntp1690
Rp1691
(dp1692
g17
I3
sg18
g19
(g23
S'\x00\x00\x00\x00\x00\x00\x00\x00'
p1693
tp1694
Rp1695
sg11
(lp1696
g0
(g37
g2
Ntp1697
Rp1698
(dp1699
g41
g19
(g44
S'\x00\x00\x00\x00\x00 h@'
p1700
tp1701
Rp1702
sbasg50
g51
sg52
g213
sbasg50
g51
sg52
g179
sbag0
(g13
g2
Ntp1703
Rp1704
(dp1705
g17
I2
sg18
g19
(g23
S'\x0b\x00\x00\x00\x00\x00\x00\x00'
p1706
tp1707
Rp1708
sg11
(lp1709
g0
(g37
g2
Ntp1710
Rp1711
(dp1712
g41
g19
(g44
S'\x00\x00\x00\x00\x00 d@'
p1713
tp1714
Rp1715
sbasg50
g51
sg52
g179
sbag0
(g13
g2
Ntp1716
Rp1717
(dp1718
g17
I2
sg18
g19
(g23
S'\x08\x00\x00\x00\x00\x00\x00\x00'
p1719
tp1720
Rp1721
sg11
(lp1722
g0
(g37
g2
Ntp1723
Rp1724
(dp1725
g41
g19
(g44
S'\x00\x00\x00\x00\x00\xf0q@'
p1726
tp1727
Rp1728
sbasg50
g51
sg52
g179
sbag0
(g13
g2
Ntp1729
Rp1730
(dp1731
g17
I2
sg18
g19
(g23
S'\x03\x00\x00\x00\x00\x00\x00\x00'
p1732
tp1733
Rp1734
sg11
(lp1735
g0
(g37
g2
Ntp1736
Rp1737
(dp1738
g41
g19
(g44
S'\x00\x00\x00\x00\x00t\x90@'
p1739
tp1740
Rp1741
sbasg50
g51
sg52
g179
sbag0
(g13
g2
Ntp1742
Rp1743
(dp1744
g17
I2
sg18
g19
(g23
S'\n\x00\x00\x00\x00\x00\x00\x00'
p1745
tp1746
Rp1747
sg11
(lp1748
g0
(g37
g2
Ntp1749
Rp1750
(dp1751
g41
g19
(g44
S'\x00\x00\x00\x00\x00\xc4\x92@'
p1752
tp1753
Rp1754
sbasg50
g51
sg52
g179
sbag0
(g13
g2
Ntp1755
Rp1756
(dp1757
g17
I2
sg18
g19
(g23
S'\x07\x00\x00\x00\x00\x00\x00\x00'
p1758
tp1759
Rp1760
sg11
(lp1761
g0
(g13
g2
Ntp1762
Rp1763
(dp1764
g17
I3
sg18
g19
(g23
S'\x03\x00\x00\x00\x00\x00\x00\x00'
p1765
tp1766
Rp1767
sg11
(lp1768
g0
(g37
g2
Ntp1769
Rp1770
(dp1771
g41
g19
(g44
S'\x00\x00\x00\x00\x008\x82@'
p1772
tp1773
Rp1774
sbasg50
g51
sg52
g213
sbag0
(g13
g2
Ntp1775
Rp1776
(dp1777
g17
I3
sg18
g19
(g23
S'\x01\x00\x00\x00\x00\x00\x00\x00'
p1778
tp1779
Rp1780
sg11
(lp1781
g0
(g37
g2
Ntp1782
Rp1783
(dp1784
g41
g19
(g44
S'\x00\x00\x00\x00\x00T\x92@'
p1785
tp1786
Rp1787
sbasg50
g51
sg52
g213
sbasg50
g51
sg52
g179
sbasg50
g51
sg52
g158
sbag0
(g13
g2
Ntp1788
Rp1789
(dp1790
g17
I1
sg18
g19
(g23
S'\x1e\x00\x00\x00\x00\x00\x00\x00'
p1791
tp1792
Rp1793
sg11
(lp1794
g0
(g13
g2
Ntp1795
Rp1796
(dp1797
g17
I2
sg18
g19
(g23
S'\x02\x00\x00\x00\x00\x00\x00\x00'
p1798
tp1799
Rp1800
sg11
(lp1801
g0
(g37
g2
Ntp1802
Rp1803
(dp1804
g41
g19
(g44
S'\x00\x00\x00\x00\x00`j@'
p1805
tp1806
Rp1807
sbasg50
g51
sg52
g213
sbag0
(g13
g2
Ntp1808
Rp1809
(dp1810
g17
I2
sg18
g19
(g23
S'\x04\x00\x00\x00\x00\x00\x00\x00'
p1811
tp1812
Rp1813
sg11
(lp1814
g0
(g37
g2
Ntp1815
Rp1816
(dp1817
g41
g19
(g44
S'\x00\x00\x00\x00\x00\x80h@'
p1818
tp1819
Rp1820
sbasg50
g51
sg52
g213
sbasg50
g51
sg52
g158
sbag0
(g13
g2
Ntp1821
Rp1822
(dp1823
g17
I1
sg18
g19
(g23
S'C\x00\x00\x00\x00\x00\x00\x00'
p1824
tp1825
Rp1826
sg11
(lp1827
g0
(g13
g2
Ntp1828
Rp1829
(dp1830
g17
I2
sg18
g19
(g23
S'\x08\x00\x00\x00\x00\x00\x00\x00'
p1831
tp1832
Rp1833
sg11
(lp1834
g0
(g13
g2
Ntp1835
Rp1836
(dp1837
g17
I3
sg18
g19
(g23
S'\x02\x00\x00\x00\x00\x00\x00\x00'
p1838
tp1839
Rp1840
sg11
(lp1841
g0
(g13
g2
Ntp1842
Rp1843
(dp1844
g17
I4
sg18
g19
(g23
S'\x02\x00\x00\x00\x00\x00\x00\x00'
p1845
tp1846
Rp1847
sg11
(lp1848
g0
(g37
g2
Ntp1849
Rp1850
(dp1851
g41
g19
(g44
S'\x00\x00\x00\x00\x00\x10\x83@'
p1852
tp1853
Rp1854
sbasg50
g51
sg52
g213
sbag0
(g13
g2
Ntp1855
Rp1856
(dp1857
g17
I4
sg18
g19
(g23
S'\x06\x00\x00\x00\x00\x00\x00\x00'
p1858
tp1859
Rp1860
sg11
(lp1861
g0
(g37
g2
Ntp1862
Rp1863
(dp1864
g41
g19
(g44
S'\x00\x00\x00\x00\x00H\x89@'
p1865
tp1866
Rp1867
sbasg50
g51
sg52
g213
sbag0
(g13
g2
Ntp1868
Rp1869
(dp1870
g17
I4
sg18
g19
(g23
S'\x05\x00\x00\x00\x00\x00\x00\x00'
p1871
tp1872
Rp1873
sg11
(lp1874
g0
(g37
g2
Ntp1875
Rp1876
(dp1877
g41
g19
(g44
S'\x00\x00\x00\x00\x00\x80\x91@'
p1878
tp1879
Rp1880
sbasg50
g51
sg52
g213
sbasg50
g51
sg52
g879
sbag0
(g13
g2
Ntp1881
Rp1882
(dp1883
g17
I3
sg18
g19
(g23
S'\x01\x00\x00\x00\x00\x00\x00\x00'
p1884
tp1885
Rp1886
sg11
(lp1887
g0
(g13
g2
Ntp1888
Rp1889
(dp1890
g17
I4
sg18
g19
(g23
S'\x08\x00\x00\x00\x00\x00\x00\x00'
p1891
tp1892
Rp1893
sg11
(lp1894
g0
(g37
g2
Ntp1895
Rp1896
(dp1897
g41
g19
(g44
S'\x00\x00\x00\x00\x00`\x80@'
p1898
tp1899
Rp1900
sbasg50
g51
sg52
g53
sbag0
(g13
g2
Ntp1901
Rp1902
(dp1903
g17
I4
sg18
g19
(g23
S'\x0b\x00\x00\x00\x00\x00\x00\x00'
p1904
tp1905
Rp1906
sg11
(lp1907
g0
(g37
g2
Ntp1908
Rp1909
(dp1910
g41
g19
(g44
S'\x00\x00\x00\x00\x00\xe2\xaf@'
p1911
tp1912
Rp1913
sbasg50
g51
sg52
g53
sbasg50
g51
sg52
g879
sbasg50
g51
sg52
g179
sbag0
(g13
g2
Ntp1914
Rp1915
(dp1916
g17
I2
sg18
g19
(g23
S'\n\x00\x00\x00\x00\x00\x00\x00'
p1917
tp1918
Rp1919
sg11
(lp1920
g0
(g13
g2
Ntp1921
Rp1922
(dp1923
g17
I3
sg18
g19
(g23
S'\x01\x00\x00\x00\x00\x00\x00\x00'
p1924
tp1925
Rp1926
sg11
(lp1927
g0
(g13
g2
Ntp1928
Rp1929
(dp1930
g17
I4
sg18
g19
(g23
S'\x0c\x00\x00\x00\x00\x00\x00\x00'
p1931
tp1932
Rp1933
sg11
(lp1934
g0
(g37
g2
Ntp1935
Rp1936
(dp1937
g41
g19
(g44
S'\x00\x00\x00\x00\x00\x90\x80@'
p1938
tp1939
Rp1940
sbasg50
g51
sg52
g53
sbag0
(g13
g2
Ntp1941
Rp1942
(dp1943
g17
I4
sg18
g19
(g23
S'\t\x00\x00\x00\x00\x00\x00\x00'
p1944
tp1945
Rp1946
sg11
(lp1947
g0
(g37
g2
Ntp1948
Rp1949
(dp1950
g41
g19
(g44
S'\x00\x00\x00\x00\x00Pt@'
p1951
tp1952
Rp1953
sbasg50
g51
sg52
g53
sbasg50
g51
sg52
g879
sbag0
(g13
g2
Ntp1954
Rp1955
(dp1956
g17
I3
sg18
g19
(g23
S'\x02\x00\x00\x00\x00\x00\x00\x00'
p1957
tp1958
Rp1959
sg11
(lp1960
g0
(g37
g2
Ntp1961
Rp1962
(dp1963
g41
g19
(g44
S'\x00\x00\x00\x00\x00d\x92@'
p1964
tp1965
Rp1966
sbasg50
g51
sg52
g879
sbasg50
g51
sg52
g179
sbag0
(g13
g2
Ntp1967
Rp1968
(dp1969
g17
I2
sg18
g19
(g23
S'\x04\x00\x00\x00\x00\x00\x00\x00'
p1970
tp1971
Rp1972
sg11
(lp1973
g0
(g13
g2
Ntp1974
Rp1975
(dp1976
g17
I3
sg18
g19
(g23
S'\x02\x00\x00\x00\x00\x00\x00\x00'
p1977
tp1978
Rp1979
sg11
(lp1980
g0
(g13
g2
Ntp1981
Rp1982
(dp1983
g17
I4
sg18
g19
(g23
S'\x05\x00\x00\x00\x00\x00\x00\x00'
p1984
tp1985
Rp1986
sg11
(lp1987
g0
(g37
g2
Ntp1988
Rp1989
(dp1990
g41
g19
(g44
S'\x00\x00\x00\x00\x00\x08\x89@'
p1991
tp1992
Rp1993
sbasg50
g51
sg52
g53
sbag0
(g13
g2
Ntp1994
Rp1995
(dp1996
g17
I4
sg18
g19
(g23
S'\x06\x00\x00\x00\x00\x00\x00\x00'
p1997
tp1998
Rp1999
sg11
(lp2000
g0
(g37
g2
Ntp2001
Rp2002
(dp2003
g41
g19
(g44
S'\x00\x00\x00\x00\x00@t@'
p2004
tp2005
Rp2006
sbasg50
g51
sg52
g53
sbasg50
g51
sg52
g213
sbag0
(g13
g2
Ntp2007
Rp2008
(dp2009
g17
I3
sg18
g19
(g23
S'\x04\x00\x00\x00\x00\x00\x00\x00'
p2010
tp2011
Rp2012
sg11
(lp2013
g0
(g37
g2
Ntp2014
Rp2015
(dp2016
g41
g19
(g44
S'\x00\x00\x00\x00\x00\x80q@'
p2017
tp2018
Rp2019
sbasg50
g51
sg52
g213
sbag0
(g13
g2
Ntp2020
Rp2021
(dp2022
g17
I3
sg18
g19
(g23
S'\x00\x00\x00\x00\x00\x00\x00\x00'
p2023
tp2024
Rp2025
sg11
(lp2026
g0
(g37
g2
Ntp2027
Rp2028
(dp2029
g41
g19
(g44
S'\x00\x00\x00\x00\x00\xa8\x84@'
p2030
tp2031
Rp2032
sbasg50
g51
sg52
g213
sbasg50
g51
sg52
g179
sbag0
(g13
g2
Ntp2033
Rp2034
(dp2035
g17
I2
sg18
g19
(g23
S'\x0b\x00\x00\x00\x00\x00\x00\x00'
p2036
tp2037
Rp2038
sg11
(lp2039
g0
(g37
g2
Ntp2040
Rp2041
(dp2042
g41
g19
(g44
S'\x00\x00\x00\x00\x00\xf8\x81@'
p2043
tp2044
Rp2045
sbasg50
g51
sg52
g179
sbag0
(g13
g2
Ntp2046
Rp2047
(dp2048
g17
I2
sg18
g19
(g23
S'\x06\x00\x00\x00\x00\x00\x00\x00'
p2049
tp2050
Rp2051
sg11
(lp2052
g0
(g13
g2
Ntp2053
Rp2054
(dp2055
g17
I3
sg18
g19
(g23
S'\x04\x00\x00\x00\x00\x00\x00\x00'
p2056
tp2057
Rp2058
sg11
(lp2059
g0
(g37
g2
Ntp2060
Rp2061
(dp2062
g41
g19
(g44
S'\x00\x00\x00\x00\x00 \x83@'
p2063
tp2064
Rp2065
sbasg50
g51
sg52
g213
sbag0
(g13
g2
Ntp2066
Rp2067
(dp2068
g17
I3
sg18
g19
(g23
S'\x06\x00\x00\x00\x00\x00\x00\x00'
p2069
tp2070
Rp2071
sg11
(lp2072
g0
(g37
g2
Ntp2073
Rp2074
(dp2075
g41
g19
(g44
S'\x00\x00\x00\x00\x00\xfa\xa9@'
p2076
tp2077
Rp2078
sbasg50
g51
sg52
g213
sbag0
(g13
g2
Ntp2079
Rp2080
(dp2081
g17
I3
sg18
g19
(g23
S'\x02\x00\x00\x00\x00\x00\x00\x00'
p2082
tp2083
Rp2084
sg11
(lp2085
g0
(g37
g2
Ntp2086
Rp2087
(dp2088
g41
g19
(g44
S'\x00\x00\x00\x00\x00\x80z@'
p2089
tp2090
Rp2091
sbasg50
g51
sg52
g213
sbasg50
g51
sg52
g179
sbag0
(g13
g2
Ntp2092
Rp2093
(dp2094
g17
I2
sg18
g19
(g23
S'\x03\x00\x00\x00\x00\x00\x00\x00'
p2095
tp2096
Rp2097
sg11
(lp2098
g0
(g13
g2
Ntp2099
Rp2100
(dp2101
g17
I3
sg18
g19
(g23
S'\x06\x00\x00\x00\x00\x00\x00\x00'
p2102
tp2103
Rp2104
sg11
(lp2105
g0
(g37
g2
Ntp2106
Rp2107
(dp2108
g41
g19
(g44
S'\x00\x00\x00\x00\x00\x10|@'
p2109
tp2110
Rp2111
sbasg50
g51
sg52
g213
sbag0
(g13
g2
Ntp2112
Rp2113
(dp2114
g17
I3
sg18
g19
(g23
S'\x01\x00\x00\x00\x00\x00\x00\x00'
p2115
tp2116
Rp2117
sg11
(lp2118
g0
(g37
g2
Ntp2119
Rp2120
(dp2121
g41
g19
(g44
S'\x00\x00\x00\x00\x00\x10\x7f@'
p2122
tp2123
Rp2124
sbasg50
g51
sg52
g213
sbasg50
g51
sg52
g179
sbag0
(g13
g2
Ntp2125
Rp2126
(dp2127
g17
I2
sg18
g19
(g23
S'\x07\x00\x00\x00\x00\x00\x00\x00'
p2128
tp2129
Rp2130
sg11
(lp2131
g0
(g37
g2
Ntp2132
Rp2133
(dp2134
g41
g19
(g44
S'\x00\x00\x00\x00\x00\xc8\x82@'
p2135
tp2136
Rp2137
sbasg50
g51
sg52
g179
sbag0
(g13
g2
Ntp2138
Rp2139
(dp2140
g17
I2
sg18
g19
(g23
S'\x0c\x00\x00\x00\x00\x00\x00\x00'
p2141
tp2142
Rp2143
sg11
(lp2144
g0
(g13
g2
Ntp2145
Rp2146
(dp2147
g17
I3
sg18
g19
(g23
S'\x02\x00\x00\x00\x00\x00\x00\x00'
p2148
tp2149
Rp2150
sg11
(lp2151
g0
(g37
g2
Ntp2152
Rp2153
(dp2154
g41
g19
(g44
S'\x00\x00\x00\x00\x00\x90x@'
p2155
tp2156
Rp2157
sbasg50
g51
sg52
g213
sbag0
(g13
g2
Ntp2158
Rp2159
(dp2160
g17
I3
sg18
g19
(g23
S'\x00\x00\x00\x00\x00\x00\x00\x00'
p2161
tp2162
Rp2163
sg11
(lp2164
g0
(g13
g2
Ntp2165
Rp2166
(dp2167
g17
I4
sg18
g19
(g23
S'C\x00\x00\x00\x00\x00\x00\x00'
p2168
tp2169
Rp2170
sg11
(lp2171
g0
(g13
g2
Ntp2172
Rp2173
(dp2174
g17
I5
sg18
g19
(g23
S'C\x00\x00\x00\x00\x00\x00\x00'
p2175
tp2176
Rp2177
sg11
(lp2178
g0
(g13
g2
Ntp2179
Rp2180
(dp2181
g17
I6
sg18
g19
(g23
S'\x00\x00\x00\x00\x00\x00\x00\x00'
p2182
tp2183
Rp2184
sg11
(lp2185
g0
(g13
g2
Ntp2186
Rp2187
(dp2188
g17
I7
sg18
g19
(g23
S'C\x00\x00\x00\x00\x00\x00\x00'
p2189
tp2190
Rp2191
sg11
(lp2192
g0
(g13
g2
Ntp2193
Rp2194
(dp2195
g17
I8
sg18
g19
(g23
S'C\x00\x00\x00\x00\x00\x00\x00'
p2196
tp2197
Rp2198
sg11
(lp2199
g0
(g13
g2
Ntp2200
Rp2201
(dp2202
g17
I9
sg18
g19
(g23
S'C\x00\x00\x00\x00\x00\x00\x00'
p2203
tp2204
Rp2205
sg11
(lp2206
g0
(g13
g2
Ntp2207
Rp2208
(dp2209
g17
I10
sg18
g19
(g23
S'\x00\x00\x00\x00\x00\x00\x00\x00'
p2210
tp2211
Rp2212
sg11
(lp2213
g0
(g13
g2
Ntp2214
Rp2215
(dp2216
g17
I11
sg18
g19
(g23
S'C\x00\x00\x00\x00\x00\x00\x00'
p2217
tp2218
Rp2219
sg11
(lp2220
g0
(g13
g2
Ntp2221
Rp2222
(dp2223
g17
I12
sg18
g19
(g23
S'C\x00\x00\x00\x00\x00\x00\x00'
p2224
tp2225
Rp2226
sg11
(lp2227
g0
(g13
g2
Ntp2228
Rp2229
(dp2230
g17
I13
sg18
g19
(g23
S'C\x00\x00\x00\x00\x00\x00\x00'
p2231
tp2232
Rp2233
sg11
(lp2234
g0
(g13
g2
Ntp2235
Rp2236
(dp2237
g17
I14
sg18
g19
(g23
S'\x01\x00\x00\x00\x00\x00\x00\x00'
p2238
tp2239
Rp2240
sg11
(lp2241
g0
(g13
g2
Ntp2242
Rp2243
(dp2244
g17
I15
sg18
g19
(g23
S'C\x00\x00\x00\x00\x00\x00\x00'
p2245
tp2246
Rp2247
sg11
(lp2248
g0
(g13
g2
Ntp2249
Rp2250
(dp2251
g17
I16
sg18
g19
(g23
S'C\x00\x00\x00\x00\x00\x00\x00'
p2252
tp2253
Rp2254
sg11
(lp2255
g0
(g13
g2
Ntp2256
Rp2257
(dp2258
g17
I17
sg18
g19
(g23
S'C\x00\x00\x00\x00\x00\x00\x00'
p2259
tp2260
Rp2261
sg11
(lp2262
g0
(g13
g2
Ntp2263
Rp2264
(dp2265
g17
I18
sg18
g19
(g23
S'\x00\x00\x00\x00\x00\x00\x00\x00'
p2266
tp2267
Rp2268
sg11
(lp2269
g0
(g13
g2
Ntp2270
Rp2271
(dp2272
g17
I19
sg18
g19
(g23
S'C\x00\x00\x00\x00\x00\x00\x00'
p2273
tp2274
Rp2275
sg11
(lp2276
g0
(g13
g2
Ntp2277
Rp2278
(dp2279
g17
I20
sg18
g19
(g23
S'C\x00\x00\x00\x00\x00\x00\x00'
p2280
tp2281
Rp2282
sg11
(lp2283
g0
(g13
g2
Ntp2284
Rp2285
(dp2286
g17
I21
sg18
g19
(g23
S'\x01\x00\x00\x00\x00\x00\x00\x00'
p2287
tp2288
Rp2289
sg11
(lp2290
g0
(g13
g2
Ntp2291
Rp2292
(dp2293
g17
I22
sg18
g19
(g23
S'C\x00\x00\x00\x00\x00\x00\x00'
p2294
tp2295
Rp2296
sg11
(lp2297
g0
(g13
g2
Ntp2298
Rp2299
(dp2300
g17
I23
sg18
g19
(g23
S'C\x00\x00\x00\x00\x00\x00\x00'
p2301
tp2302
Rp2303
sg11
(lp2304
g0
(g13
g2
Ntp2305
Rp2306
(dp2307
g17
I24
sg18
g19
(g23
S'C\x00\x00\x00\x00\x00\x00\x00'
p2308
tp2309
Rp2310
sg11
(lp2311
g0
(g13
g2
Ntp2312
Rp2313
(dp2314
g17
I25
sg18
g19
(g23
S'C\x00\x00\x00\x00\x00\x00\x00'
p2315
tp2316
Rp2317
sg11
(lp2318
g0
(g37
g2
Ntp2319
Rp2320
(dp2321
g41
g19
(g44
S'\x00\x00\x00\x00\x00P|@'
p2322
tp2323
Rp2324
sbasg50
g51
sg52
g158
sbasg50
g51
sg52
g158
sbasg50
g51
sg52
g158
sbasg50
g51
sg52
g158
sbasg50
g51
sg52
g879
sbasg50
g51
sg52
g158
sbasg50
g51
sg52
g158
sbasg50
g51
sg52
g213
sbasg50
g51
sg52
g158
sbasg50
g51
sg52
g158
sbasg50
g51
sg52
g158
sbasg50
g51
sg52
g879
sbasg50
g51
sg52
g158
sbasg50
g51
sg52
g158
sbasg50
g51
sg52
g158
sbasg50
g51
sg52
g213
sbasg50
g51
sg52
g158
sbasg50
g51
sg52
g158
sbasg50
g51
sg52
g158
sbasg50
g51
sg52
g213
sbasg50
g51
sg52
g158
sbasg50
g51
sg52
g158
sbasg50
g51
sg52
g213
sbasg50
g51
sg52
g179
sbag0
(g13
g2
Ntp2325
Rp2326
(dp2327
g17
I2
sg18
g19
(g23
S'\t\x00\x00\x00\x00\x00\x00\x00'
p2328
tp2329
Rp2330
sg11
(lp2331
g0
(g37
g2
Ntp2332
Rp2333
(dp2334
g41
g19
(g44
S'\x00\x00\x00\x00\x00@l@'
p2335
tp2336
Rp2337
sbasg50
g51
sg52
g179
sbag0
(g13
g2
Ntp2338
Rp2339
(dp2340
g17
I2
sg18
g19
(g23
S'\x05\x00\x00\x00\x00\x00\x00\x00'
p2341
tp2342
Rp2343
sg11
(lp2344
g0
(g37
g2
Ntp2345
Rp2346
(dp2347
g41
g19
(g44
S'\x00\x00\x00\x00\x00\x04\x91@'
p2348
tp2349
Rp2350
sbasg50
g51
sg52
g179
sbasg50
g51
sg52
g158
sbag0
(g13
g2
Ntp2351
Rp2352
(dp2353
g17
I1
sg18
g19
(g23
S'L\x00\x00\x00\x00\x00\x00\x00'
p2354
tp2355
Rp2356
sg11
(lp2357
g0
(g13
g2
Ntp2358
Rp2359
(dp2360
g17
I2
sg18
g19
(g23
S'\x15\x00\x00\x00\x00\x00\x00\x00'
p2361
tp2362
Rp2363
sg11
(lp2364
g0
(g37
g2
Ntp2365
Rp2366
(dp2367
g41
g19
(g44
S'\x00\x00\x00\x00\x00\xa8\x80@'
p2368
tp2369
Rp2370
sbasg50
g51
sg52
g53
sbag0
(g13
g2
Ntp2371
Rp2372
(dp2373
g17
I2
sg18
g19
(g23
S'\x07\x00\x00\x00\x00\x00\x00\x00'
p2374
tp2375
Rp2376
sg11
(lp2377
g0
(g37
g2
Ntp2378
Rp2379
(dp2380
g41
g19
(g44
S'\x00\x00\x00\x00\x00\x00k@'
p2381
tp2382
Rp2383
sbasg50
g51
sg52
g53
sbag0
(g13
g2
Ntp2384
Rp2385
(dp2386
g17
I2
sg18
g19
(g23
S'\x12\x00\x00\x00\x00\x00\x00\x00'
p2387
tp2388
Rp2389
sg11
(lp2390
g0
(g13
g2
Ntp2391
Rp2392
(dp2393
g17
I3
sg18
g19
(g23
S'\x08\x00\x00\x00\x00\x00\x00\x00'
p2394
tp2395
Rp2396
sg11
(lp2397
g0
(g37
g2
Ntp2398
Rp2399
(dp2400
g41
g19
(g44
S'\x00\x00\x00\x00\x00\xf0\x80@'
p2401
tp2402
Rp2403
sbasg50
g51
sg52
g179
sbag0
(g13
g2
Ntp2404
Rp2405
(dp2406
g17
I3
sg18
g19
(g23
S'\x0b\x00\x00\x00\x00\x00\x00\x00'
p2407
tp2408
Rp2409
sg11
(lp2410
g0
(g37
g2
Ntp2411
Rp2412
(dp2413
g41
g19
(g44
S'\x00\x00\x00\x00\x00@y@'
p2414
tp2415
Rp2416
sbasg50
g51
sg52
g179
sbag0
(g13
g2
Ntp2417
Rp2418
(dp2419
g17
I3
sg18
g19
(g23
S'\x03\x00\x00\x00\x00\x00\x00\x00'
p2420
tp2421
Rp2422
sg11
(lp2423
g0
(g37
g2
Ntp2424
Rp2425
(dp2426
g41
g19
(g44
S'\x00\x00\x00\x00\x00\x00z@'
p2427
tp2428
Rp2429
sbasg50
g51
sg52
g179
sbag0
(g13
g2
Ntp2430
Rp2431
(dp2432
g17
I3
sg18
g19
(g23
S'\x06\x00\x00\x00\x00\x00\x00\x00'
p2433
tp2434
Rp2435
sg11
(lp2436
g0
(g37
g2
Ntp2437
Rp2438
(dp2439
g41
g19
(g44
S'\x00\x00\x00\x00\x00@y@'
p2440
tp2441
Rp2442
sbasg50
g51
sg52
g179
sbag0
(g13
g2
Ntp2443
Rp2444
(dp2445
g17
I3
sg18
g19
(g23
S'\x05\x00\x00\x00\x00\x00\x00\x00'
p2446
tp2447
Rp2448
sg11
(lp2449
g0
(g37
g2
Ntp2450
Rp2451
(dp2452
g41
g19
(g44
S'\x00\x00\x00\x00\x00\xb0~@'
p2453
tp2454
Rp2455
sbasg50
g51
sg52
g179
sbasg50
g51
sg52
g53
sbag0
(g13
g2
Ntp2456
Rp2457
(dp2458
g17
I2
sg18
g19
(g23
S'\t\x00\x00\x00\x00\x00\x00\x00'
p2459
tp2460
Rp2461
sg11
(lp2462
g0
(g37
g2
Ntp2463
Rp2464
(dp2465
g41
g19
(g44
S'\x00\x00\x00\x00\x00H\x93@'
p2466
tp2467
Rp2468
sbasg50
g51
sg52
g53
sbag0
(g13
g2
Ntp2469
Rp2470
(dp2471
g17
I2
sg18
g19
(g23
S'\x14\x00\x00\x00\x00\x00\x00\x00'
p2472
tp2473
Rp2474
sg11
(lp2475
g0
(g13
g2
Ntp2476
Rp2477
(dp2478
g17
I3
sg18
g19
(g23
S'\x05\x00\x00\x00\x00\x00\x00\x00'
p2479
tp2480
Rp2481
sg11
(lp2482
g0
(g37
g2
Ntp2483
Rp2484
(dp2485
g41
g19
(g44
S'\x00\x00\x00\x00\x00X\x89@'
p2486
tp2487
Rp2488
sbasg50
g51
sg52
g213
sbag0
(g13
g2
Ntp2489
Rp2490
(dp2491
g17
I3
sg18
g19
(g23
S'\x01\x00\x00\x00\x00\x00\x00\x00'
p2492
tp2493
Rp2494
sg11
(lp2495
g0
(g37
g2
Ntp2496
Rp2497
(dp2498
g41
g19
(g44
S'\x00\x00\x00\x00\x00\xc0\x85@'
p2499
tp2500
Rp2501
sbasg50
g51
sg52
g213
sbag0
(g13
g2
Ntp2502
Rp2503
(dp2504
g17
I3
sg18
g19
(g23
S'\x03\x00\x00\x00\x00\x00\x00\x00'
p2505
tp2506
Rp2507
sg11
(lp2508
g0
(g37
g2
Ntp2509
Rp2510
(dp2511
g41
g19
(g44
S'\x00\x00\x00\x00\x00\xb0y@'
p2512
tp2513
Rp2514
sbasg50
g51
sg52
g213
sbasg50
g51
sg52
g53
sbag0
(g13
g2
Ntp2515
Rp2516
(dp2517
g17
I2
sg18
g19
(g23
S'\x16\x00\x00\x00\x00\x00\x00\x00'
p2518
tp2519
Rp2520
sg11
(lp2521
g0
(g37
g2
Ntp2522
Rp2523
(dp2524
g41
g19
(g44
S'\x00\x00\x00\x00\x00\x90x@'
p2525
tp2526
Rp2527
sbasg50
g51
sg52
g53
sbag0
(g13
g2
Ntp2528
Rp2529
(dp2530
g17
I2
sg18
g19
(g23
S'\x0f\x00\x00\x00\x00\x00\x00\x00'
p2531
tp2532
Rp2533
sg11
(lp2534
g0
(g37
g2
Ntp2535
Rp2536
(dp2537
g41
g19
(g44
S'\x00\x00\x00\x00\x00`\x80@'
p2538
tp2539
Rp2540
sbasg50
g51
sg52
g53
sbag0
(g13
g2
Ntp2541
Rp2542
(dp2543
g17
I2
sg18
g19
(g23
S'\x10\x00\x00\x00\x00\x00\x00\x00'
p2544
tp2545
Rp2546
sg11
(lp2547
g0
(g13
g2
Ntp2548
Rp2549
(dp2550
g17
I3
sg18
g19
(g23
S'\x03\x00\x00\x00\x00\x00\x00\x00'
p2551
tp2552
Rp2553
sg11
(lp2554
g0
(g37
g2
Ntp2555
Rp2556
(dp2557
g41
g19
(g44
S'\x00\x00\x00\x00\x00p\x7f@'
p2558
tp2559
Rp2560
sbasg50
g51
sg52
g213
sbag0
(g13
g2
Ntp2561
Rp2562
(dp2563
g17
I3
sg18
g19
(g23
S'\x02\x00\x00\x00\x00\x00\x00\x00'
p2564
tp2565
Rp2566
sg11
(lp2567
g0
(g37
g2
Ntp2568
Rp2569
(dp2570
g41
g19
(g44
S'\x00\x00\x00\x00\x00\xd0~@'
p2571
tp2572
Rp2573
sbasg50
g51
sg52
g213
sbasg50
g51
sg52
g53
sbag0
(g13
g2
Ntp2574
Rp2575
(dp2576
g17
I2
sg18
g19
(g23
S'\x0c\x00\x00\x00\x00\x00\x00\x00'
p2577
tp2578
Rp2579
sg11
(lp2580
g0
(g37
g2
Ntp2581
Rp2582
(dp2583
g41
g19
(g44
S'\x00\x00\x00\x00\x00\xe0r@'
p2584
tp2585
Rp2586
sbasg50
g51
sg52
g53
sbag0
(g13
g2
Ntp2587
Rp2588
(dp2589
g17
I2
sg18
g19
(g23
S'\x13\x00\x00\x00\x00\x00\x00\x00'
p2590
tp2591
Rp2592
sg11
(lp2593
g0
(g13
g2
Ntp2594
Rp2595
(dp2596
g17
I3
sg18
g19
(g23
S'\x0c\x00\x00\x00\x00\x00\x00\x00'
p2597
tp2598
Rp2599
sg11
(lp2600
g0
(g37
g2
Ntp2601
Rp2602
(dp2603
g41
g19
(g44
S'\x00\x00\x00\x00\x00\xc0}@'
p2604
tp2605
Rp2606
sbasg50
g51
sg52
g179
sbag0
(g13
g2
Ntp2607
Rp2608
(dp2609
g17
I3
sg18
g19
(g23
S'\x02\x00\x00\x00\x00\x00\x00\x00'
p2610
tp2611
Rp2612
sg11
(lp2613
g0
(g37
g2
Ntp2614
Rp2615
(dp2616
g41
g19
(g44
S'\x00\x00\x00\x00\x00\xf8\x82@'
p2617
tp2618
Rp2619
sbasg50
g51
sg52
g179
sbasg50
g51
sg52
g53
sbag0
(g13
g2
Ntp2620
Rp2621
(dp2622
g17
I2
sg18
g19
(g23
S'\x11\x00\x00\x00\x00\x00\x00\x00'
p2623
tp2624
Rp2625
sg11
(lp2626
g0
(g37
g2
Ntp2627
Rp2628
(dp2629
g41
g19
(g44
S'\x00\x00\x00\x00\x00\xa8\x86@'
p2630
tp2631
Rp2632
sbasg50
g51
sg52
g53
sbag0
(g13
g2
Ntp2633
Rp2634
(dp2635
g17
I2
sg18
g19
(g23
S'\n\x00\x00\x00\x00\x00\x00\x00'
p2636
tp2637
Rp2638
sg11
(lp2639
g0
(g37
g2
Ntp2640
Rp2641
(dp2642
g41
g19
(g44
S'\x00\x00\x00\x00\x00`}@'
p2643
tp2644
Rp2645
sbasg50
g51
sg52
g53
sbag0
(g13
g2
Ntp2646
Rp2647
(dp2648
g17
I2
sg18
g19
(g23
S'\r\x00\x00\x00\x00\x00\x00\x00'
p2649
tp2650
Rp2651
sg11
(lp2652
g0
(g13
g2
Ntp2653
Rp2654
(dp2655
g17
I3
sg18
g19
(g23
S'\x01\x00\x00\x00\x00\x00\x00\x00'
p2656
tp2657
Rp2658
sg11
(lp2659
g0
(g37
g2
Ntp2660
Rp2661
(dp2662
g41
g19
(g44
S'\x00\x00\x00\x00\x00@p@'
p2663
tp2664
Rp2665
sbasg50
g51
sg52
g213
sbag0
(g13
g2
Ntp2666
Rp2667
(dp2668
g17
I3
sg18
g19
(g23
S'\x03\x00\x00\x00\x00\x00\x00\x00'
p2669
tp2670
Rp2671
sg11
(lp2672
g0
(g37
g2
Ntp2673
Rp2674
(dp2675
g41
g19
(g44
S'\x00\x00\x00\x00\x00\xc0r@'
p2676
tp2677
Rp2678
sbasg50
g51
sg52
g213
sbasg50
g51
sg52
g53
sbasg50
g51
sg52
g158
sbag0
(g13
g2
Ntp2679
Rp2680
(dp2681
g17
I1
sg18
g19
(g23
S'F\x00\x00\x00\x00\x00\x00\x00'
p2682
tp2683
Rp2684
sg11
(lp2685
g0
(g13
g2
Ntp2686
Rp2687
(dp2688
g17
I2
sg18
g19
(g23
S'\x0b\x00\x00\x00\x00\x00\x00\x00'
p2689
tp2690
Rp2691
sg11
(lp2692
g0
(g13
g2
Ntp2693
Rp2694
(dp2695
g17
I3
sg18
g19
(g23
S'\x00\x00\x00\x00\x00\x00\x00\x00'
p2696
tp2697
Rp2698
sg11
(lp2699
g0
(g37
g2
Ntp2700
Rp2701
(dp2702
g41
g19
(g44
S'\x00\x00\x00\x00\x00\x00p@'
p2703
tp2704
Rp2705
sbasg50
g51
sg52
g213
sbag0
(g13
g2
Ntp2706
Rp2707
(dp2708
g17
I3
sg18
g19
(g23
S'\x03\x00\x00\x00\x00\x00\x00\x00'
p2709
tp2710
Rp2711
sg11
(lp2712
g0
(g37
g2
Ntp2713
Rp2714
(dp2715
g41
g19
(g44
S'\x00\x00\x00\x00\x00\x98\x85@'
p2716
tp2717
Rp2718
sbasg50
g51
sg52
g213
sbag0
(g13
g2
Ntp2719
Rp2720
(dp2721
g17
I3
sg18
g19
(g23
S'\x05\x00\x00\x00\x00\x00\x00\x00'
p2722
tp2723
Rp2724
sg11
(lp2725
g0
(g37
g2
Ntp2726
Rp2727
(dp2728
g41
g19
(g44
S'\x00\x00\x00\x00\x00Pu@'
p2729
tp2730
Rp2731
sbasg50
g51
sg52
g213
sbag0
(g13
g2
Ntp2732
Rp2733
(dp2734
g17
I3
sg18
g19
(g23
S'\x01\x00\x00\x00\x00\x00\x00\x00'
p2735
tp2736
Rp2737
sg11
(lp2738
g0
(g37
g2
Ntp2739
Rp2740
(dp2741
g41
g19
(g44
S'\x00\x00\x00\x00\x00\xd8\x85@'
p2742
tp2743
Rp2744
sbasg50
g51
sg52
g213
sbasg50
g51
sg52
g179
sbag0
(g13
g2
Ntp2745
Rp2746
(dp2747
g17
I2
sg18
g19
(g23
S'\x05\x00\x00\x00\x00\x00\x00\x00'
p2748
tp2749
Rp2750
sg11
(lp2751
g0
(g13
g2
Ntp2752
Rp2753
(dp2754
g17
I3
sg18
g19
(g23
S'\x00\x00\x00\x00\x00\x00\x00\x00'
p2755
tp2756
Rp2757
sg11
(lp2758
g0
(g37
g2
Ntp2759
Rp2760
(dp2761
g41
g19
(g44
S'\x00\x00\x00\x00\x00\xd0\x8d@'
p2762
tp2763
Rp2764
sbasg50
g51
sg52
g213
sbag0
(g13
g2
Ntp2765
Rp2766
(dp2767
g17
I3
sg18
g19
(g23
S'\x01\x00\x00\x00\x00\x00\x00\x00'
p2768
tp2769
Rp2770
sg11
(lp2771
g0
(g37
g2
Ntp2772
Rp2773
(dp2774
g41
g19
(g44
S'\x00\x00\x00\x00\x00\xd8\x8c@'
p2775
tp2776
Rp2777
sbasg50
g51
sg52
g213
sbag0
(g13
g2
Ntp2778
Rp2779
(dp2780
g17
I3
sg18
g19
(g23
S'\x02\x00\x00\x00\x00\x00\x00\x00'
p2781
tp2782
Rp2783
sg11
(lp2784
g0
(g37
g2
Ntp2785
Rp2786
(dp2787
g41
g19
(g44
S'\x00\x00\x00\x00\x00H\x80@'
p2788
tp2789
Rp2790
sbasg50
g51
sg52
g213
sbag0
(g13
g2
Ntp2791
Rp2792
(dp2793
g17
I3
sg18
g19
(g23
S'\x04\x00\x00\x00\x00\x00\x00\x00'
p2794
tp2795
Rp2796
sg11
(lp2797
g0
(g13
g2
Ntp2798
Rp2799
(dp2800
g17
I4
sg18
g19
(g23
S'F\x00\x00\x00\x00\x00\x00\x00'
p2801
tp2802
Rp2803
sg11
(lp2804
g0
(g13
g2
Ntp2805
Rp2806
(dp2807
g17
I5
sg18
g19
(g23
S'\x08\x00\x00\x00\x00\x00\x00\x00'
p2808
tp2809
Rp2810
sg11
(lp2811
g0
(g37
g2
Ntp2812
Rp2813
(dp2814
g41
g19
(g44
S'\x00\x00\x00\x00\x00\xd8\x84@'
p2815
tp2816
Rp2817
sbasg50
g51
sg52
g53
sbag0
(g13
g2
Ntp2818
Rp2819
(dp2820
g17
I5
sg18
g19
(g23
S'\t\x00\x00\x00\x00\x00\x00\x00'
p2821
tp2822
Rp2823
sg11
(lp2824
g0
(g37
g2
Ntp2825
Rp2826
(dp2827
g41
g19
(g44
S'\x00\x00\x00\x00\x00\xe8\x8c@'
p2828
tp2829
Rp2830
sbasg50
g51
sg52
g53
sbasg50
g51
sg52
g158
sbasg50
g51
sg52
g213
sbasg50
g51
sg52
g179
sbag0
(g13
g2
Ntp2831
Rp2832
(dp2833
g17
I2
sg18
g19
(g23
S'\x08\x00\x00\x00\x00\x00\x00\x00'
p2834
tp2835
Rp2836
sg11
(lp2837
g0
(g37
g2
Ntp2838
Rp2839
(dp2840
g41
g19
(g44
S'\x00\x00\x00\x00\x00\xe0\x8b@'
p2841
tp2842
Rp2843
sbasg50
g51
sg52
g179
sbag0
(g13
g2
Ntp2844
Rp2845
(dp2846
g17
I2
sg18
g19
(g23
S'\x03\x00\x00\x00\x00\x00\x00\x00'
p2847
tp2848
Rp2849
sg11
(lp2850
g0
(g13
g2
Ntp2851
Rp2852
(dp2853
g17
I3
sg18
g19
(g23
S'\x15\x00\x00\x00\x00\x00\x00\x00'
p2854
tp2855
Rp2856
sg11
(lp2857
g0
(g37
g2
Ntp2858
Rp2859
(dp2860
g41
g19
(g44
S'\x00\x00\x00\x00\x00@u@'
p2861
tp2862
Rp2863
sbasg50
g51
sg52
g53
sbag0
(g13
g2
Ntp2864
Rp2865
(dp2866
g17
I3
sg18
g19
(g23
S'\t\x00\x00\x00\x00\x00\x00\x00'
p2867
tp2868
Rp2869
sg11
(lp2870
g0
(g37
g2
Ntp2871
Rp2872
(dp2873
g41
g19
(g44
S'\x00\x00\x00\x00\x00\x10\x89@'
p2874
tp2875
Rp2876
sbasg50
g51
sg52
g53
sbag0
(g13
g2
Ntp2877
Rp2878
(dp2879
g17
I3
sg18
g19
(g23
S'\x08\x00\x00\x00\x00\x00\x00\x00'
p2880
tp2881
Rp2882
sg11
(lp2883
g0
(g37
g2
Ntp2884
Rp2885
(dp2886
g41
g19
(g44
S'\x00\x00\x00\x00\x00\xe8\x81@'
p2887
tp2888
Rp2889
sbasg50
g51
sg52
g53
sbag0
(g13
g2
Ntp2890
Rp2891
(dp2892
g17
I3
sg18
g19
(g23
S'\x11\x00\x00\x00\x00\x00\x00\x00'
p2893
tp2894
Rp2895
sg11
(lp2896
g0
(g37
g2
Ntp2897
Rp2898
(dp2899
g41
g19
(g44
S'\x00\x00\x00\x00\x00P\x84@'
p2900
tp2901
Rp2902
sbasg50
g51
sg52
g53
sbasg50
g51
sg52
g179
sbag0
(g13
g2
Ntp2903
Rp2904
(dp2905
g17
I2
sg18
g19
(g23
S'\x02\x00\x00\x00\x00\x00\x00\x00'
p2906
tp2907
Rp2908
sg11
(lp2909
g0
(g13
g2
Ntp2910
Rp2911
(dp2912
g17
I3
sg18
g19
(g23
S'\t\x00\x00\x00\x00\x00\x00\x00'
p2913
tp2914
Rp2915
sg11
(lp2916
g0
(g37
g2
Ntp2917
Rp2918
(dp2919
g41
g19
(g44
S'\x00\x00\x00\x00\x00\x18\x81@'
p2920
tp2921
Rp2922
sbasg50
g51
sg52
g53
sbag0
(g13
g2
Ntp2923
Rp2924
(dp2925
g17
I3
sg18
g19
(g23
S'\x08\x00\x00\x00\x00\x00\x00\x00'
p2926
tp2927
Rp2928
sg11
(lp2929
g0
(g37
g2
Ntp2930
Rp2931
(dp2932
g41
g19
(g44
S'\x00\x00\x00\x00\x00\x80\x80@'
p2933
tp2934
Rp2935
sbasg50
g51
sg52
g53
sbasg50
g51
sg52
g179
sbag0
(g13
g2
Ntp2936
Rp2937
(dp2938
g17
I2
sg18
g19
(g23
S'\x0c\x00\x00\x00\x00\x00\x00\x00'
p2939
tp2940
Rp2941
sg11
(lp2942
g0
(g13
g2
Ntp2943
Rp2944
(dp2945
g17
I3
sg18
g19
(g23
S'\x02\x00\x00\x00\x00\x00\x00\x00'
p2946
tp2947
Rp2948
sg11
(lp2949
g0
(g37
g2
Ntp2950
Rp2951
(dp2952
g41
g19
(g44
S'\x00\x00\x00\x00\x00\xd8\x88@'
p2953
tp2954
Rp2955
sbasg50
g51
sg52
g213
sbag0
(g13
g2
Ntp2956
Rp2957
(dp2958
g17
I3
sg18
g19
(g23
S'\x00\x00\x00\x00\x00\x00\x00\x00'
p2959
tp2960
Rp2961
sg11
(lp2962
g0
(g37
g2
Ntp2963
Rp2964
(dp2965
g41
g19
(g44
S'\x00\x00\x00\x00\x00\x90\x8d@'
p2966
tp2967
Rp2968
sbasg50
g51
sg52
g213
sbasg50
g51
sg52
g179
sbag0
(g13
g2
Ntp2969
Rp2970
(dp2971
g17
I2
sg18
g19
(g23
S'\x04\x00\x00\x00\x00\x00\x00\x00'
p2972
tp2973
Rp2974
sg11
(lp2975
g0
(g13
g2
Ntp2976
Rp2977
(dp2978
g17
I3
sg18
g19
(g23
S'\x04\x00\x00\x00\x00\x00\x00\x00'
p2979
tp2980
Rp2981
sg11
(lp2982
g0
(g37
g2
Ntp2983
Rp2984
(dp2985
g41
g19
(g44
S'\x00\x00\x00\x00\x00\xd0p@'
p2986
tp2987
Rp2988
sbasg50
g51
sg52
g213
sbag0
(g13
g2
Ntp2989
Rp2990
(dp2991
g17
I3
sg18
g19
(g23
S'\x01\x00\x00\x00\x00\x00\x00\x00'
p2992
tp2993
Rp2994
sg11
(lp2995
g0
(g37
g2
Ntp2996
Rp2997
(dp2998
g41
g19
(g44
S'\x00\x00\x00\x00\x00\xc0\x9a@'
p2999
tp3000
Rp3001
sbasg50
g51
sg52
g213
sbag0
(g13
g2
Ntp3002
Rp3003
(dp3004
g17
I3
sg18
g19
(g23
S'\x03\x00\x00\x00\x00\x00\x00\x00'
p3005
tp3006
Rp3007
sg11
(lp3008
g0
(g37
g2
Ntp3009
Rp3010
(dp3011
g41
g19
(g44
S'\x00\x00\x00\x00\x00\x80\x85@'
p3012
tp3013
Rp3014
sbasg50
g51
sg52
g213
sbag0
(g13
g2
Ntp3015
Rp3016
(dp3017
g17
I3
sg18
g19
(g23
S'\x02\x00\x00\x00\x00\x00\x00\x00'
p3018
tp3019
Rp3020
sg11
(lp3021
g0
(g37
g2
Ntp3022
Rp3023
(dp3024
g41
g19
(g44
S'\x00\x00\x00\x00\x000z@'
p3025
tp3026
Rp3027
sbasg50
g51
sg52
g213
sbag0
(g13
g2
Ntp3028
Rp3029
(dp3030
g17
I3
sg18
g19
(g23
S'\x00\x00\x00\x00\x00\x00\x00\x00'
p3031
tp3032
Rp3033
sg11
(lp3034
g0
(g37
g2
Ntp3035
Rp3036
(dp3037
g41
g19
(g44
S'\x00\x00\x00\x00\x00\xb0y@'
p3038
tp3039
Rp3040
sbasg50
g51
sg52
g213
sbasg50
g51
sg52
g179
sbag0
(g13
g2
Ntp3041
Rp3042
(dp3043
g17
I2
sg18
g19
(g23
S'\x06\x00\x00\x00\x00\x00\x00\x00'
p3044
tp3045
Rp3046
sg11
(lp3047
g0
(g13
g2
Ntp3048
Rp3049
(dp3050
g17
I3
sg18
g19
(g23
S'\x00\x00\x00\x00\x00\x00\x00\x00'
p3051
tp3052
Rp3053
sg11
(lp3054
g0
(g37
g2
Ntp3055
Rp3056
(dp3057
g41
g19
(g44
S'\x00\x00\x00\x00\x00\xe8\x86@'
p3058
tp3059
Rp3060
sbasg50
g51
sg52
g213
sbag0
(g13
g2
Ntp3061
Rp3062
(dp3063
g17
I3
sg18
g19
(g23
S'\x03\x00\x00\x00\x00\x00\x00\x00'
p3064
tp3065
Rp3066
sg11
(lp3067
g0
(g13
g2
Ntp3068
Rp3069
(dp3070
g17
I4
sg18
g19
(g23
S'\t\x00\x00\x00\x00\x00\x00\x00'
p3071
tp3072
Rp3073
sg11
(lp3074
g0
(g37
g2
Ntp3075
Rp3076
(dp3077
g41
g19
(g44
S'\x00\x00\x00\x00\x00p\x84@'
p3078
tp3079
Rp3080
sbasg50
g51
sg52
g53
sbag0
(g13
g2
Ntp3081
Rp3082
(dp3083
g17
I4
sg18
g19
(g23
S'\x0b\x00\x00\x00\x00\x00\x00\x00'
p3084
tp3085
Rp3086
sg11
(lp3087
g0
(g37
g2
Ntp3088
Rp3089
(dp3090
g41
g19
(g44
S'\x00\x00\x00\x00\x00\xa0\x83@'
p3091
tp3092
Rp3093
sbasg50
g51
sg52
g53
sbasg50
g51
sg52
g213
sbag0
(g13
g2
Ntp3094
Rp3095
(dp3096
g17
I3
sg18
g19
(g23
S'\x01\x00\x00\x00\x00\x00\x00\x00'
p3097
tp3098
Rp3099
sg11
(lp3100
g0
(g37
g2
Ntp3101
Rp3102
(dp3103
g41
g19
(g44
S'\x00\x00\x00\x00\x00@\x83@'
p3104
tp3105
Rp3106
sbasg50
g51
sg52
g213
sbasg50
g51
sg52
g179
sbag0
(g13
g2
Ntp3107
Rp3108
(dp3109
g17
I2
sg18
g19
(g23
S'\n\x00\x00\x00\x00\x00\x00\x00'
p3110
tp3111
Rp3112
sg11
(lp3113
g0
(g13
g2
Ntp3114
Rp3115
(dp3116
g17
I3
sg18
g19
(g23
S'\x04\x00\x00\x00\x00\x00\x00\x00'
p3117
tp3118
Rp3119
sg11
(lp3120
g0
(g37
g2
Ntp3121
Rp3122
(dp3123
g41
g19
(g44
S'\x00\x00\x00\x00\x00P\x82@'
p3124
tp3125
Rp3126
sbasg50
g51
sg52
g53
sbag0
(g13
g2
Ntp3127
Rp3128
(dp3129
g17
I3
sg18
g19
(g23
S'\r\x00\x00\x00\x00\x00\x00\x00'
p3130
tp3131
Rp3132
sg11
(lp3133
g0
(g37
g2
Ntp3134
Rp3135
(dp3136
g41
g19
(g44
S'\x00\x00\x00\x00\x00Pu@'
p3137
tp3138
Rp3139
sbasg50
g51
sg52
g53
sbag0
(g13
g2
Ntp3140
Rp3141
(dp3142
g17
I3
sg18
g19
(g23
S'\x0c\x00\x00\x00\x00\x00\x00\x00'
p3143
tp3144
Rp3145
sg11
(lp3146
g0
(g37
g2
Ntp3147
Rp3148
(dp3149
g41
g19
(g44
S'\x00\x00\x00\x00\x00\x00d@'
p3150
tp3151
Rp3152
sbasg50
g51
sg52
g53
sbasg50
g51
sg52
g179
sbag0
(g13
g2
Ntp3153
Rp3154
(dp3155
g17
I2
sg18
g19
(g23
S'\t\x00\x00\x00\x00\x00\x00\x00'
p3156
tp3157
Rp3158
sg11
(lp3159
g0
(g37
g2
Ntp3160
Rp3161
(dp3162
g41
g19
(g44
S'\x00\x00\x00\x00\x00\x80\x81@'
p3163
tp3164
Rp3165
sbasg50
g51
sg52
g179
sbag0
(g13
g2
Ntp3166
Rp3167
(dp3168
g17
I2
sg18
g19
(g23
S'\x01\x00\x00\x00\x00\x00\x00\x00'
p3169
tp3170
Rp3171
sg11
(lp3172
g0
(g13
g2
Ntp3173
Rp3174
(dp3175
g17
I3
sg18
g19
(g23
S'\x04\x00\x00\x00\x00\x00\x00\x00'
p3176
tp3177
Rp3178
sg11
(lp3179
g0
(g37
g2
Ntp3180
Rp3181
(dp3182
g41
g19
(g44
S'\x00\x00\x00\x00\x00\x10\x82@'
p3183
tp3184
Rp3185
sbasg50
g51
sg52
g213
sbag0
(g13
g2
Ntp3186
Rp3187
(dp3188
g17
I3
sg18
g19
(g23
S'\x02\x00\x00\x00\x00\x00\x00\x00'
p3189
tp3190
Rp3191
sg11
(lp3192
g0
(g37
g2
Ntp3193
Rp3194
(dp3195
g41
g19
(g44
S'\x00\x00\x00\x00\x00\xb8\x82@'
p3196
tp3197
Rp3198
sbasg50
g51
sg52
g213
sbag0
(g13
g2
Ntp3199
Rp3200
(dp3201
g17
I3
sg18
g19
(g23
S'\x01\x00\x00\x00\x00\x00\x00\x00'
p3202
tp3203
Rp3204
sg11
(lp3205
g0
(g37
g2
Ntp3206
Rp3207
(dp3208
g41
g19
(g44
S'\x00\x00\x00\x00\x00\xf8\x85@'
p3209
tp3210
Rp3211
sbasg50
g51
sg52
g213
sbasg50
g51
sg52
g179
sbasg50
g51
sg52
g158
sbag0
(g13
g2
Ntp3212
Rp3213
(dp3214
g17
I1
sg18
g19
(g23
S'\x04\x00\x00\x00\x00\x00\x00\x00'
p3215
tp3216
Rp3217
sg11
(lp3218
g0
(g13
g2
Ntp3219
Rp3220
(dp3221
g17
I2
sg18
g19
(g23
S'\x01\x00\x00\x00\x00\x00\x00\x00'
p3222
tp3223
Rp3224
sg11
(lp3225
g0
(g37
g2
Ntp3226
Rp3227
(dp3228
g41
g19
(g44
S'\x00\x00\x00\x00\x00\xb0v@'
p3229
tp3230
Rp3231
sbasg50
g51
sg52
g213
sbag0
(g13
g2
Ntp3232
Rp3233
(dp3234
g17
I2
sg18
g19
(g23
S'\x06\x00\x00\x00\x00\x00\x00\x00'
p3235
tp3236
Rp3237
sg11
(lp3238
g0
(g37
g2
Ntp3239
Rp3240
(dp3241
g41
g19
(g44
S'\x00\x00\x00\x00\x00\xc0m@'
p3242
tp3243
Rp3244
sbasg50
g51
sg52
g213
sbasg50
g51
sg52
g158
sbag0
(g13
g2
Ntp3245
Rp3246
(dp3247
g17
I1
sg18
g19
(g23
S'<\x00\x00\x00\x00\x00\x00\x00'
p3248
tp3249
Rp3250
sg11
(lp3251
g0
(g13
g2
Ntp3252
Rp3253
(dp3254
g17
I2
sg18
g19
(g23
S'\x02\x00\x00\x00\x00\x00\x00\x00'
p3255
tp3256
Rp3257
sg11
(lp3258
g0
(g13
g2
Ntp3259
Rp3260
(dp3261
g17
I3
sg18
g19
(g23
S'\t\x00\x00\x00\x00\x00\x00\x00'
p3262
tp3263
Rp3264
sg11
(lp3265
g0
(g37
g2
Ntp3266
Rp3267
(dp3268
g41
g19
(g44
S'\x00\x00\x00\x00\x00\xc0\x83@'
p3269
tp3270
Rp3271
sbasg50
g51
sg52
g179
sbag0
(g13
g2
Ntp3272
Rp3273
(dp3274
g17
I3
sg18
g19
(g23
S'\x0c\x00\x00\x00\x00\x00\x00\x00'
p3275
tp3276
Rp3277
sg11
(lp3278
g0
(g37
g2
Ntp3279
Rp3280
(dp3281
g41
g19
(g44
S'\x00\x00\x00\x00\x00\xe8\x8d@'
p3282
tp3283
Rp3284
sbasg50
g51
sg52
g179
sbasg50
g51
sg52
g213
sbag0
(g13
g2
Ntp3285
Rp3286
(dp3287
g17
I2
sg18
g19
(g23
S'\x00\x00\x00\x00\x00\x00\x00\x00'
p3288
tp3289
Rp3290
sg11
(lp3291
g0
(g13
g2
Ntp3292
Rp3293
(dp3294
g17
I3
sg18
g19
(g23
S'\x0e\x00\x00\x00\x00\x00\x00\x00'
p3295
tp3296
Rp3297
sg11
(lp3298
g0
(g13
g2
Ntp3299
Rp3300
(dp3301
g17
I4
sg18
g19
(g23
S'<\x00\x00\x00\x00\x00\x00\x00'
p3302
tp3303
Rp3304
sg11
(lp3305
g0
(g13
g2
Ntp3306
Rp3307
(dp3308
g17
I5
sg18
g19
(g23
S'\x02\x00\x00\x00\x00\x00\x00\x00'
p3309
tp3310
Rp3311
sg11
(lp3312
g0
(g37
g2
Ntp3313
Rp3314
(dp3315
g41
g19
(g44
S'\x00\x00\x00\x00\x00\x00w@'
p3316
tp3317
Rp3318
sbasg50
g51
sg52
g879
sbag0
(g13
g2
Ntp3319
Rp3320
(dp3321
g17
I5
sg18
g19
(g23
S'\x01\x00\x00\x00\x00\x00\x00\x00'
p3322
tp3323
Rp3324
sg11
(lp3325
g0
(g37
g2
Ntp3326
Rp3327
(dp3328
g41
g19
(g44
S'\x00\x00\x00\x00\x000t@'
p3329
tp3330
Rp3331
sbasg50
g51
sg52
g879
sbasg50
g51
sg52
g158
sbasg50
g51
sg52
g53
sbag0
(g13
g2
Ntp3332
Rp3333
(dp3334
g17
I3
sg18
g19
(g23
S'\x11\x00\x00\x00\x00\x00\x00\x00'
p3335
tp3336
Rp3337
sg11
(lp3338
g0
(g37
g2
Ntp3339
Rp3340
(dp3341
g41
g19
(g44
S'\x00\x00\x00\x00\x00\xa0|@'
p3342
tp3343
Rp3344
sbasg50
g51
sg52
g53
sbag0
(g13
g2
Ntp3345
Rp3346
(dp3347
g17
I3
sg18
g19
(g23
S'\x0f\x00\x00\x00\x00\x00\x00\x00'
p3348
tp3349
Rp3350
sg11
(lp3351
g0
(g37
g2
Ntp3352
Rp3353
(dp3354
g41
g19
(g44
S'\x00\x00\x00\x00\x00 y@'
p3355
tp3356
Rp3357
sbasg50
g51
sg52
g53
sbag0
(g13
g2
Ntp3358
Rp3359
(dp3360
g17
I3
sg18
g19
(g23
S'\x12\x00\x00\x00\x00\x00\x00\x00'
p3361
tp3362
Rp3363
sg11
(lp3364
g0
(g13
g2
Ntp3365
Rp3366
(dp3367
g17
I4
sg18
g19
(g23
S'<\x00\x00\x00\x00\x00\x00\x00'
p3368
tp3369
Rp3370
sg11
(lp3371
g0
(g13
g2
Ntp3372
Rp3373
(dp3374
g17
I5
sg18
g19
(g23
S'\x00\x00\x00\x00\x00\x00\x00\x00'
p3375
tp3376
Rp3377
sg11
(lp3378
g0
(g13
g2
Ntp3379
Rp3380
(dp3381
g17
I6
sg18
g19
(g23
S'<\x00\x00\x00\x00\x00\x00\x00'
p3382
tp3383
Rp3384
sg11
(lp3385
g0
(g13
g2
Ntp3386
Rp3387
(dp3388
g17
I7
sg18
g19
(g23
S'\x01\x00\x00\x00\x00\x00\x00\x00'
p3389
tp3390
Rp3391
sg11
(lp3392
g0
(g13
g2
Ntp3393
Rp3394
(dp3395
g17
I8
sg18
g19
(g23
S'<\x00\x00\x00\x00\x00\x00\x00'
p3396
tp3397
Rp3398
sg11
(lp3399
g0
(g13
g2
Ntp3400
Rp3401
(dp3402
g17
I9
sg18
g19
(g23
S'<\x00\x00\x00\x00\x00\x00\x00'
p3403
tp3404
Rp3405
sg11
(lp3406
g0
(g13
g2
Ntp3407
Rp3408
(dp3409
g17
I10
sg18
g19
(g23
S'\x00\x00\x00\x00\x00\x00\x00\x00'
p3410
tp3411
Rp3412
sg11
(lp3413
g0
(g13
g2
Ntp3414
Rp3415
(dp3416
g17
I11
sg18
g19
(g23
S'<\x00\x00\x00\x00\x00\x00\x00'
p3417
tp3418
Rp3419
sg11
(lp3420
g0
(g13
g2
Ntp3421
Rp3422
(dp3423
g17
I12
sg18
g19
(g23
S'<\x00\x00\x00\x00\x00\x00\x00'
p3424
tp3425
Rp3426
sg11
(lp3427
g0
(g13
g2
Ntp3428
Rp3429
(dp3430
g17
I13
sg18
g19
(g23
S'<\x00\x00\x00\x00\x00\x00\x00'
p3431
tp3432
Rp3433
sg11
(lp3434
g0
(g13
g2
Ntp3435
Rp3436
(dp3437
g17
I14
sg18
g19
(g23
S'<\x00\x00\x00\x00\x00\x00\x00'
p3438
tp3439
Rp3440
sg11
(lp3441
g0
(g13
g2
Ntp3442
Rp3443
(dp3444
g17
I15
sg18
g19
(g23
S'<\x00\x00\x00\x00\x00\x00\x00'
p3445
tp3446
Rp3447
sg11
(lp3448
g0
(g13
g2
Ntp3449
Rp3450
(dp3451
g17
I16
sg18
g19
(g23
S'\x01\x00\x00\x00\x00\x00\x00\x00'
p3452
tp3453
Rp3454
sg11
(lp3455
g0
(g13
g2
Ntp3456
Rp3457
(dp3458
g17
I17
sg18
g19
(g23
S'\x00\x00\x00\x00\x00\x00\x00\x00'
p3459
tp3460
Rp3461
sg11
(lp3462
g0
(g13
g2
Ntp3463
Rp3464
(dp3465
g17
I18
sg18
g19
(g23
S'\x00\x00\x00\x00\x00\x00\x00\x00'
p3466
tp3467
Rp3468
sg11
(lp3469
g0
(g13
g2
Ntp3470
Rp3471
(dp3472
g17
I19
sg18
g19
(g23
S'\x01\x00\x00\x00\x00\x00\x00\x00'
p3473
tp3474
Rp3475
sg11
(lp3476
g0
(g13
g2
Ntp3477
Rp3478
(dp3479
g17
I20
sg18
g19
(g23
S'\x01\x00\x00\x00\x00\x00\x00\x00'
p3480
tp3481
Rp3482
sg11
(lp3483
g0
(g13
g2
Ntp3484
Rp3485
(dp3486
g17
I21
sg18
g19
(g23
S'<\x00\x00\x00\x00\x00\x00\x00'
p3487
tp3488
Rp3489
sg11
(lp3490
g0
(g13
g2
Ntp3491
Rp3492
(dp3493
g17
I22
sg18
g19
(g23
S'\x00\x00\x00\x00\x00\x00\x00\x00'
p3494
tp3495
Rp3496
sg11
(lp3497
g0
(g13
g2
Ntp3498
Rp3499
(dp3500
g17
I23
sg18
g19
(g23
S'<\x00\x00\x00\x00\x00\x00\x00'
p3501
tp3502
Rp3503
sg11
(lp3504
g0
(g13
g2
Ntp3505
Rp3506
(dp3507
g17
I24
sg18
g19
(g23
S'\x01\x00\x00\x00\x00\x00\x00\x00'
p3508
tp3509
Rp3510
sg11
(lp3511
g0
(g13
g2
Ntp3512
Rp3513
(dp3514
g17
I25
sg18
g19
(g23
S'<\x00\x00\x00\x00\x00\x00\x00'
p3515
tp3516
Rp3517
sg11
(lp3518
g0
(g37
g2
Ntp3519
Rp3520
(dp3521
g41
g19
(g44
S'\x00\x00\x00\x00\x00\xac\x80@'
p3522
tp3523
Rp3524
sbasg50
g51
sg52
g158
sbasg50
g51
sg52
g879
sbasg50
g51
sg52
g158
sbasg50
g51
sg52
g213
sbasg50
g51
sg52
g158
sbasg50
g51
sg52
g879
sbasg50
g51
sg52
g879
sbasg50
g51
sg52
g213
sbasg50
g51
sg52
g213
sbasg50
g51
sg52
g879
sbasg50
g51
sg52
g158
sbasg50
g51
sg52
g158
sbasg50
g51
sg52
g158
sbasg50
g51
sg52
g158
sbasg50
g51
sg52
g158
sbasg50
g51
sg52
g213
sbasg50
g51
sg52
g158
sbasg50
g51
sg52
g158
sbasg50
g51
sg52
g879
sbasg50
g51
sg52
g158
sbasg50
g51
sg52
g213
sbasg50
g51
sg52
g158
sbasg50
g51
sg52
g53
sbasg50
g51
sg52
g213
sbag0
(g13
g2
Ntp3525
Rp3526
(dp3527
g17
I2
sg18
g19
(g23
S'\x05\x00\x00\x00\x00\x00\x00\x00'
p3528
tp3529
Rp3530
sg11
(lp3531
g0
(g13
g2
Ntp3532
Rp3533
(dp3534
g17
I3
sg18
g19
(g23
S'\x08\x00\x00\x00\x00\x00\x00\x00'
p3535
tp3536
Rp3537
sg11
(lp3538
g0
(g37
g2
Ntp3539
Rp3540
(dp3541
g41
g19
(g44
S'\x00\x00\x00\x00\x00\xa0\x7f@'
p3542
tp3543
Rp3544
sbasg50
g51
sg52
g179
sbag0
(g13
g2
Ntp3545
Rp3546
(dp3547
g17
I3
sg18
g19
(g23
S'\x07\x00\x00\x00\x00\x00\x00\x00'
p3548
tp3549
Rp3550
sg11
(lp3551
g0
(g37
g2
Ntp3552
Rp3553
(dp3554
g41
g19
(g44
S'\x00\x00\x00\x00\x00\xb8\x81@'
p3555
tp3556
Rp3557
sbasg50
g51
sg52
g179
sbasg50
g51
sg52
g213
sbag0
(g13
g2
Ntp3558
Rp3559
(dp3560
g17
I2
sg18
g19
(g23
S'\x03\x00\x00\x00\x00\x00\x00\x00'
p3561
tp3562
Rp3563
sg11
(lp3564
g0
(g13
g2
Ntp3565
Rp3566
(dp3567
g17
I3
sg18
g19
(g23
S'\x06\x00\x00\x00\x00\x00\x00\x00'
p3568
tp3569
Rp3570
sg11
(lp3571
g0
(g37
g2
Ntp3572
Rp3573
(dp3574
g41
g19
(g44
S'\x00\x00\x00\x00\x00\xb8\x8e@'
p3575
tp3576
Rp3577
sbasg50
g51
sg52
g179
sbag0
(g13
g2
Ntp3578
Rp3579
(dp3580
g17
I3
sg18
g19
(g23
S'\n\x00\x00\x00\x00\x00\x00\x00'
p3581
tp3582
Rp3583
sg11
(lp3584
g0
(g37
g2
Ntp3585
Rp3586
(dp3587
g41
g19
(g44
S'\x00\x00\x00\x00\x00n\xb6@'
p3588
tp3589
Rp3590
sbasg50
g51
sg52
g179
sbag0
(g13
g2
Ntp3591
Rp3592
(dp3593
g17
I3
sg18
g19
(g23
S'\x05\x00\x00\x00\x00\x00\x00\x00'
p3594
tp3595
Rp3596
sg11
(lp3597
g0
(g37
g2
Ntp3598
Rp3599
(dp3600
g41
g19
(g44
S'\x00\x00\x00\x00\x00\xcc\x96@'
p3601
tp3602
Rp3603
sbasg50
g51
sg52
g179
sbasg50
g51
sg52
g213
sbag0
(g13
g2
Ntp3604
Rp3605
(dp3606
g17
I2
sg18
g19
(g23
S'\x01\x00\x00\x00\x00\x00\x00\x00'
p3607
tp3608
Rp3609
sg11
(lp3610
g0
(g13
g2
Ntp3611
Rp3612
(dp3613
g17
I3
sg18
g19
(g23
S'\x08\x00\x00\x00\x00\x00\x00\x00'
p3614
tp3615
Rp3616
sg11
(lp3617
g0
(g37
g2
Ntp3618
Rp3619
(dp3620
g41
g19
(g44
S'\x00\x00\x00\x00\x00\x18\x86@'
p3621
tp3622
Rp3623
sbasg50
g51
sg52
g179
sbag0
(g13
g2
Ntp3624
Rp3625
(dp3626
g17
I3
sg18
g19
(g23
S'\x02\x00\x00\x00\x00\x00\x00\x00'
p3627
tp3628
Rp3629
sg11
(lp3630
g0
(g37
g2
Ntp3631
Rp3632
(dp3633
g41
g19
(g44
S'\x00\x00\x00\x00\x00\xb0w@'
p3634
tp3635
Rp3636
sbasg50
g51
sg52
g179
sbag0
(g13
g2
Ntp3637
Rp3638
(dp3639
g17
I3
sg18
g19
(g23
S'\x06\x00\x00\x00\x00\x00\x00\x00'
p3640
tp3641
Rp3642
sg11
(lp3643
g0
(g37
g2
Ntp3644
Rp3645
(dp3646
g41
g19
(g44
S'\x00\x00\x00\x00\x00P~@'
p3647
tp3648
Rp3649
sbasg50
g51
sg52
g179
sbag0
(g13
g2
Ntp3650
Rp3651
(dp3652
g17
I3
sg18
g19
(g23
S'\x07\x00\x00\x00\x00\x00\x00\x00'
p3653
tp3654
Rp3655
sg11
(lp3656
g0
(g37
g2
Ntp3657
Rp3658
(dp3659
g41
g19
(g44
S'\x00\x00\x00\x00\x000\x81@'
p3660
tp3661
Rp3662
sbasg50
g51
sg52
g179
sbag0
(g13
g2
Ntp3663
Rp3664
(dp3665
g17
I3
sg18
g19
(g23
S'\x05\x00\x00\x00\x00\x00\x00\x00'
p3666
tp3667
Rp3668
sg11
(lp3669
g0
(g37
g2
Ntp3670
Rp3671
(dp3672
g41
g19
(g44
S'\x00\x00\x00\x00\x00\x1e\xa0@'
p3673
tp3674
Rp3675
sbasg50
g51
sg52
g179
sbasg50
g51
sg52
g213
sbag0
(g13
g2
Ntp3676
Rp3677
(dp3678
g17
I2
sg18
g19
(g23
S'\x04\x00\x00\x00\x00\x00\x00\x00'
p3679
tp3680
Rp3681
sg11
(lp3682
g0
(g13
g2
Ntp3683
Rp3684
(dp3685
g17
I3
sg18
g19
(g23
S'\x02\x00\x00\x00\x00\x00\x00\x00'
p3686
tp3687
Rp3688
sg11
(lp3689
g0
(g37
g2
Ntp3690
Rp3691
(dp3692
g41
g19
(g44
S'\x00\x00\x00\x00\x00\x96\xa2@'
p3693
tp3694
Rp3695
sbasg50
g51
sg52
g879
sbag0
(g13
g2
Ntp3696
Rp3697
(dp3698
g17
I3
sg18
g19
(g23
S'\x01\x00\x00\x00\x00\x00\x00\x00'
p3699
tp3700
Rp3701
sg11
(lp3702
g0
(g13
g2
Ntp3703
Rp3704
(dp3705
g17
I4
sg18
g19
(g23
S'\x13\x00\x00\x00\x00\x00\x00\x00'
p3706
tp3707
Rp3708
sg11
(lp3709
g0
(g37
g2
Ntp3710
Rp3711
(dp3712
g41
g19
(g44
S'\x00\x00\x00\x00\x00\xe0d@'
p3713
tp3714
Rp3715
sbasg50
g51
sg52
g53
sbag0
(g13
g2
Ntp3716
Rp3717
(dp3718
g17
I4
sg18
g19
(g23
S'\x10\x00\x00\x00\x00\x00\x00\x00'
p3719
tp3720
Rp3721
sg11
(lp3722
g0
(g37
g2
Ntp3723
Rp3724
(dp3725
g41
g19
(g44
S'\x00\x00\x00\x00\x00 \x85@'
p3726
tp3727
Rp3728
sbasg50
g51
sg52
g53
sbag0
(g13
g2
Ntp3729
Rp3730
(dp3731
g17
I4
sg18
g19
(g23
S'\x11\x00\x00\x00\x00\x00\x00\x00'
p3732
tp3733
Rp3734
sg11
(lp3735
g0
(g37
g2
Ntp3736
Rp3737
(dp3738
g41
g19
(g44
S'\x00\x00\x00\x00\x00\x90}@'
p3739
tp3740
Rp3741
sbasg50
g51
sg52
g53
sbasg50
g51
sg52
g879
sbasg50
g51
sg52
g213
sbag0
(g13
g2
Ntp3742
Rp3743
(dp3744
g17
I2
sg18
g19
(g23
S'\x06\x00\x00\x00\x00\x00\x00\x00'
p3745
tp3746
Rp3747
sg11
(lp3748
g0
(g13
g2
Ntp3749
Rp3750
(dp3751
g17
I3
sg18
g19
(g23
S'<\x00\x00\x00\x00\x00\x00\x00'
p3752
tp3753
Rp3754
sg11
(lp3755
g0
(g13
g2
Ntp3756
Rp3757
(dp3758
g17
I4
sg18
g19
(g23
S'\t\x00\x00\x00\x00\x00\x00\x00'
p3759
tp3760
Rp3761
sg11
(lp3762
g0
(g37
g2
Ntp3763
Rp3764
(dp3765
g41
g19
(g44
S'\x00\x00\x00\x00\x00H\x97@'
p3766
tp3767
Rp3768
sbasg50
g51
sg52
g179
sbag0
(g13
g2
Ntp3769
Rp3770
(dp3771
g17
I4
sg18
g19
(g23
S'\x07\x00\x00\x00\x00\x00\x00\x00'
p3772
tp3773
Rp3774
sg11
(lp3775
g0
(g37
g2
Ntp3776
Rp3777
(dp3778
g41
g19
(g44
S'\x00\x00\x00\x00\x00\x10\xa8@'
p3779
tp3780
Rp3781
sbasg50
g51
sg52
g179
sbag0
(g13
g2
Ntp3782
Rp3783
(dp3784
g17
I4
sg18
g19
(g23
S'\x03\x00\x00\x00\x00\x00\x00\x00'
p3785
tp3786
Rp3787
sg11
(lp3788
g0
(g37
g2
Ntp3789
Rp3790
(dp3791
g41
g19
(g44
S'\x00\x00\x00\x00\x00\xdc\x95@'
p3792
tp3793
Rp3794
sbasg50
g51
sg52
g179
sbasg50
g51
sg52
g158
sbasg50
g51
sg52
g213
sbasg50
g51
sg52
g158
sbag0
(g13
g2
Ntp3795
Rp3796
(dp3797
g17
I1
sg18
g19
(g23
S'M\x00\x00\x00\x00\x00\x00\x00'
p3798
tp3799
Rp3800
sg11
(lp3801
g0
(g13
g2
Ntp3802
Rp3803
(dp3804
g17
I2
sg18
g19
(g23
S'\x12\x00\x00\x00\x00\x00\x00\x00'
p3805
tp3806
Rp3807
sg11
(lp3808
g0
(g13
g2
Ntp3809
Rp3810
(dp3811
g17
I3
sg18
g19
(g23
S'\x02\x00\x00\x00\x00\x00\x00\x00'
p3812
tp3813
Rp3814
sg11
(lp3815
g0
(g37
g2
Ntp3816
Rp3817
(dp3818
g41
g19
(g44
S'\x00\x00\x00\x00\x00x\x85@'
p3819
tp3820
Rp3821
sbasg50
g51
sg52
g213
sbag0
(g13
g2
Ntp3822
Rp3823
(dp3824
g17
I3
sg18
g19
(g23
S'\x04\x00\x00\x00\x00\x00\x00\x00'
p3825
tp3826
Rp3827
sg11
(lp3828
g0
(g37
g2
Ntp3829
Rp3830
(dp3831
g41
g19
(g44
S'\x00\x00\x00\x00\x00pp@'
p3832
tp3833
Rp3834
sbasg50
g51
sg52
g213
sbasg50
g51
sg52
g53
sbag0
(g13
g2
Ntp3835
Rp3836
(dp3837
g17
I2
sg18
g19
(g23
S'\x08\x00\x00\x00\x00\x00\x00\x00'
p3838
tp3839
Rp3840
sg11
(lp3841
g0
(g13
g2
Ntp3842
Rp3843
(dp3844
g17
I3
sg18
g19
(g23
S'\x00\x00\x00\x00\x00\x00\x00\x00'
p3845
tp3846
Rp3847
sg11
(lp3848
g0
(g37
g2
Ntp3849
Rp3850
(dp3851
g41
g19
(g44
S'\x00\x00\x00\x00\x00\xf0\xa4@'
p3852
tp3853
Rp3854
sbasg50
g51
sg52
g213
sbag0
(g13
g2
Ntp3855
Rp3856
(dp3857
g17
I3
sg18
g19
(g23
S'\x04\x00\x00\x00\x00\x00\x00\x00'
p3858
tp3859
Rp3860
sg11
(lp3861
g0
(g37
g2
Ntp3862
Rp3863
(dp3864
g41
g19
(g44
S'\x00\x00\x00\x00\x00 b@'
p3865
tp3866
Rp3867
sbasg50
g51
sg52
g213
sbasg50
g51
sg52
g53
sbag0
(g13
g2
Ntp3868
Rp3869
(dp3870
g17
I2
sg18
g19
(g23
S'\x16\x00\x00\x00\x00\x00\x00\x00'
p3871
tp3872
Rp3873
sg11
(lp3874
g0
(g37
g2
Ntp3875
Rp3876
(dp3877
g41
g19
(g44
S'\x00\x00\x00\x00\x00\xa0\x7f@'
p3878
tp3879
Rp3880
sbasg50
g51
sg52
g53
sbag0
(g13
g2
Ntp3881
Rp3882
(dp3883
g17
I2
sg18
g19
(g23
S'\x10\x00\x00\x00\x00\x00\x00\x00'
p3884
tp3885
Rp3886
sg11
(lp3887
g0
(g13
g2
Ntp3888
Rp3889
(dp3890
g17
I3
sg18
g19
(g23
S'\x04\x00\x00\x00\x00\x00\x00\x00'
p3891
tp3892
Rp3893
sg11
(lp3894
g0
(g37
g2
Ntp3895
Rp3896
(dp3897
g41
g19
(g44
S'\x00\x00\x00\x00\x00Pr@'
p3898
tp3899
Rp3900
sbasg50
g51
sg52
g213
sbag0
(g13
g2
Ntp3901
Rp3902
(dp3903
g17
I3
sg18
g19
(g23
S'\x00\x00\x00\x00\x00\x00\x00\x00'
p3904
tp3905
Rp3906
sg11
(lp3907
g0
(g37
g2
Ntp3908
Rp3909
(dp3910
g41
g19
(g44
S'\x00\x00\x00\x00\x000z@'
p3911
tp3912
Rp3913
sbasg50
g51
sg52
g213
sbasg50
g51
sg52
g53
sbag0
(g13
g2
Ntp3914
Rp3915
(dp3916
g17
I2
sg18
g19
(g23
S'\x13\x00\x00\x00\x00\x00\x00\x00'
p3917
tp3918
Rp3919
sg11
(lp3920
g0
(g37
g2
Ntp3921
Rp3922
(dp3923
g41
g19
(g44
S'\x00\x00\x00\x00\x00\xf8\x83@'
p3924
tp3925
Rp3926
sbasg50
g51
sg52
g53
sbag0
(g13
g2
Ntp3927
Rp3928
(dp3929
g17
I2
sg18
g19
(g23
S'\r\x00\x00\x00\x00\x00\x00\x00'
p3930
tp3931
Rp3932
sg11
(lp3933
g0
(g37
g2
Ntp3934
Rp3935
(dp3936
g41
g19
(g44
S'\x00\x00\x00\x00\x00\x18\x88@'
p3937
tp3938
Rp3939
sbasg50
g51
sg52
g53
sbag0
(g13
g2
Ntp3940
Rp3941
(dp3942
g17
I2
sg18
g19
(g23
S'\n\x00\x00\x00\x00\x00\x00\x00'
p3943
tp3944
Rp3945
sg11
(lp3946
g0
(g37
g2
Ntp3947
Rp3948
(dp3949
g41
g19
(g44
S'\x00\x00\x00\x00\x00\xe0u@'
p3950
tp3951
Rp3952
sbasg50
g51
sg52
g53
sbag0
(g13
g2
Ntp3953
Rp3954
(dp3955
g17
I2
sg18
g19
(g23
S'\x00\x00\x00\x00\x00\x00\x00\x00'
p3956
tp3957
Rp3958
sg11
(lp3959
g0
(g37
g2
Ntp3960
Rp3961
(dp3962
g41
g19
(g44
S'\x00\x00\x00\x00\x00\x10z@'
p3963
tp3964
Rp3965
sbasg50
g51
sg52
g53
sbag0
(g13
g2
Ntp3966
Rp3967
(dp3968
g17
I2
sg18
g19
(g23
S'\t\x00\x00\x00\x00\x00\x00\x00'
p3969
tp3970
Rp3971
sg11
(lp3972
g0
(g37
g2
Ntp3973
Rp3974
(dp3975
g41
g19
(g44
S'\x00\x00\x00\x00\x00@u@'
p3976
tp3977
Rp3978
sbasg50
g51
sg52
g53
sbag0
(g13
g2
Ntp3979
Rp3980
(dp3981
g17
I2
sg18
g19
(g23
S'\x14\x00\x00\x00\x00\x00\x00\x00'
p3982
tp3983
Rp3984
sg11
(lp3985
g0
(g37
g2
Ntp3986
Rp3987
(dp3988
g41
g19
(g44
S'\x00\x00\x00\x00\x00\x08\x81@'
p3989
tp3990
Rp3991
sbasg50
g51
sg52
g53
sbag0
(g13
g2
Ntp3992
Rp3993
(dp3994
g17
I2
sg18
g19
(g23
S'\x11\x00\x00\x00\x00\x00\x00\x00'
p3995
tp3996
Rp3997
sg11
(lp3998
g0
(g37
g2
Ntp3999
Rp4000
(dp4001
g41
g19
(g44
S'\x00\x00\x00\x00\x00\xc0j@'
p4002
tp4003
Rp4004
sbasg50
g51
sg52
g53
sbasg50
g51
sg52
g158
sbag0
(g37
g2
Ntp4005
Rp4006
(dp4007
g41
g19
(g44
S'\xd1"\xdb\xf9~>\x89@'
p4008
tp4009
Rp4010
sbag0
(g13
g2
Ntp4011
Rp4012
(dp4013
g17
I1
sg18
g19
(g23
S'2\x00\x00\x00\x00\x00\x00\x00'
p4014
tp4015
Rp4016
sg11
(lp4017
g0
(g13
g2
Ntp4018
Rp4019
(dp4020
g17
I2
sg18
g19
(g23
S'\x12\x00\x00\x00\x00\x00\x00\x00'
p4021
tp4022
Rp4023
sg11
(lp4024
g0
(g37
g2
Ntp4025
Rp4026
(dp4027
g41
g19
(g44
S'\x00\x00\x00\x00\x00X\x85@'
p4028
tp4029
Rp4030
sbasg50
g51
sg52
g53
sbag0
(g13
g2
Ntp4031
Rp4032
(dp4033
g17
I2
sg18
g19
(g23
S'\x07\x00\x00\x00\x00\x00\x00\x00'
p4034
tp4035
Rp4036
sg11
(lp4037
g0
(g13
g2
Ntp4038
Rp4039
(dp4040
g17
I3
sg18
g19
(g23
S'\x01\x00\x00\x00\x00\x00\x00\x00'
p4041
tp4042
Rp4043
sg11
(lp4044
g0
(g37
g2
Ntp4045
Rp4046
(dp4047
g41
g19
(g44
S'\x00\x00\x00\x00\x00\xf8\x87@'
p4048
tp4049
Rp4050
sbasg50
g51
sg52
g179
sbag0
(g13
g2
Ntp4051
Rp4052
(dp4053
g17
I3
sg18
g19
(g23
S'\t\x00\x00\x00\x00\x00\x00\x00'
p4054
tp4055
Rp4056
sg11
(lp4057
g0
(g37
g2
Ntp4058
Rp4059
(dp4060
g41
g19
(g44
S'\x00\x00\x00\x00\x008\x88@'
p4061
tp4062
Rp4063
sbasg50
g51
sg52
g179
sbag0
(g13
g2
Ntp4064
Rp4065
(dp4066
g17
I3
sg18
g19
(g23
S'\x08\x00\x00\x00\x00\x00\x00\x00'
p4067
tp4068
Rp4069
sg11
(lp4070
g0
(g37
g2
Ntp4071
Rp4072
(dp4073
g41
g19
(g44
S'\x00\x00\x00\x00\x00\xa0r@'
p4074
tp4075
Rp4076
sbasg50
g51
sg52
g179
sbasg50
g51
sg52
g53
sbag0
(g13
g2
Ntp4077
Rp4078
(dp4079
g17
I2
sg18
g19
(g23
S'\x0e\x00\x00\x00\x00\x00\x00\x00'
p4080
tp4081
Rp4082
sg11
(lp4083
g0
(g13
g2
Ntp4084
Rp4085
(dp4086
g17
I3
sg18
g19
(g23
S'\x02\x00\x00\x00\x00\x00\x00\x00'
p4087
tp4088
Rp4089
sg11
(lp4090
g0
(g37
g2
Ntp4091
Rp4092
(dp4093
g41
g19
(g44
S'\x00\x00\x00\x00\x00\xb4\x91@'
p4094
tp4095
Rp4096
sbasg50
g51
sg52
g213
sbag0
(g13
g2
Ntp4097
Rp4098
(dp4099
g17
I3
sg18
g19
(g23
S'\x04\x00\x00\x00\x00\x00\x00\x00'
p4100
tp4101
Rp4102
sg11
(lp4103
g0
(g37
g2
Ntp4104
Rp4105
(dp4106
g41
g19
(g44
S'\x00\x00\x00\x00\x00-\xbf@'
p4107
tp4108
Rp4109
sbasg50
g51
sg52
g213
sbasg50
g51
sg52
g53
sbag0
(g13
g2
Ntp4110
Rp4111
(dp4112
g17
I2
sg18
g19
(g23
S'\x11\x00\x00\x00\x00\x00\x00\x00'
p4113
tp4114
Rp4115
sg11
(lp4116
g0
(g13
g2
Ntp4117
Rp4118
(dp4119
g17
I3
sg18
g19
(g23
S'\x00\x00\x00\x00\x00\x00\x00\x00'
p4120
tp4121
Rp4122
sg11
(lp4123
g0
(g37
g2
Ntp4124
Rp4125
(dp4126
g41
g19
(g44
S'\x00\x00\x00\x00\x00 n@'
p4127
tp4128
Rp4129
sbasg50
g51
sg52
g213
sbag0
(g13
g2
Ntp4130
Rp4131
(dp4132
g17
I3
sg18
g19
(g23
S'\x04\x00\x00\x00\x00\x00\x00\x00'
p4133
tp4134
Rp4135
sg11
(lp4136
g0
(g37
g2
Ntp4137
Rp4138
(dp4139
g41
g19
(g44
S'\x00\x00\x00\x00\x00\xe0\x83@'
p4140
tp4141
Rp4142
sbasg50
g51
sg52
g213
sbag0
(g13
g2
Ntp4143
Rp4144
(dp4145
g17
I3
sg18
g19
(g23
S'\x03\x00\x00\x00\x00\x00\x00\x00'
p4146
tp4147
Rp4148
sg11
(lp4149
g0
(g37
g2
Ntp4150
Rp4151
(dp4152
g41
g19
(g44
S'\x00\x00\x00\x00\x00\x00\x8d@'
p4153
tp4154
Rp4155
sbasg50
g51
sg52
g213
sbasg50
g51
sg52
g53
sbag0
(g13
g2
Ntp4156
Rp4157
(dp4158
g17
I2
sg18
g19
(g23
S'\n\x00\x00\x00\x00\x00\x00\x00'
p4159
tp4160
Rp4161
sg11
(lp4162
g0
(g13
g2
Ntp4163
Rp4164
(dp4165
g17
I3
sg18
g19
(g23
S'\x02\x00\x00\x00\x00\x00\x00\x00'
p4166
tp4167
Rp4168
sg11
(lp4169
g0
(g37
g2
Ntp4170
Rp4171
(dp4172
g41
g19
(g44
S'\x00\x00\x00\x00\x00\x88\x8d@'
p4173
tp4174
Rp4175
sbasg50
g51
sg52
g879
sbag0
(g13
g2
Ntp4176
Rp4177
(dp4178
g17
I3
sg18
g19
(g23
S'\x01\x00\x00\x00\x00\x00\x00\x00'
p4179
tp4180
Rp4181
sg11
(lp4182
g0
(g37
g2
Ntp4183
Rp4184
(dp4185
g41
g19
(g44
S'\x00\x00\x00\x00\x00\xf0t@'
p4186
tp4187
Rp4188
sbasg50
g51
sg52
g879
sbasg50
g51
sg52
g53
sbag0
(g13
g2
Ntp4189
Rp4190
(dp4191
g17
I2
sg18
g19
(g23
S'\x14\x00\x00\x00\x00\x00\x00\x00'
p4192
tp4193
Rp4194
sg11
(lp4195
g0
(g37
g2
Ntp4196
Rp4197
(dp4198
g41
g19
(g44
S'\x00\x00\x00\x00\x000\x82@'
p4199
tp4200
Rp4201
sbasg50
g51
sg52
g53
sbag0
(g13
g2
Ntp4202
Rp4203
(dp4204
g17
I2
sg18
g19
(g23
S'\x08\x00\x00\x00\x00\x00\x00\x00'
p4205
tp4206
Rp4207
sg11
(lp4208
g0
(g13
g2
Ntp4209
Rp4210
(dp4211
g17
I3
sg18
g19
(g23
S'\x02\x00\x00\x00\x00\x00\x00\x00'
p4212
tp4213
Rp4214
sg11
(lp4215
g0
(g37
g2
Ntp4216
Rp4217
(dp4218
g41
g19
(g44
S'\x00\x00\x00\x00\x00\x90\x85@'
p4219
tp4220
Rp4221
sbasg50
g51
sg52
g179
sbag0
(g13
g2
Ntp4222
Rp4223
(dp4224
g17
I3
sg18
g19
(g23
S'\x07\x00\x00\x00\x00\x00\x00\x00'
p4225
tp4226
Rp4227
sg11
(lp4228
g0
(g37
g2
Ntp4229
Rp4230
(dp4231
g41
g19
(g44
S'\x00\x00\x00\x00\x00pt@'
p4232
tp4233
Rp4234
sbasg50
g51
sg52
g179
sbag0
(g13
g2
Ntp4235
Rp4236
(dp4237
g17
I3
sg18
g19
(g23
S'\x01\x00\x00\x00\x00\x00\x00\x00'
p4238
tp4239
Rp4240
sg11
(lp4241
g0
(g37
g2
Ntp4242
Rp4243
(dp4244
g41
g19
(g44
S'\x00\x00\x00\x00\x00\x10z@'
p4245
tp4246
Rp4247
sbasg50
g51
sg52
g179
sbasg50
g51
sg52
g53
sbag0
(g13
g2
Ntp4248
Rp4249
(dp4250
g17
I2
sg18
g19
(g23
S'\x10\x00\x00\x00\x00\x00\x00\x00'
p4251
tp4252
Rp4253
sg11
(lp4254
g0
(g37
g2
Ntp4255
Rp4256
(dp4257
g41
g19
(g44
S'\x00\x00\x00\x00\x00 i@'
p4258
tp4259
Rp4260
sbasg50
g51
sg52
g53
sbag0
(g13
g2
Ntp4261
Rp4262
(dp4263
g17
I2
sg18
g19
(g23
S'\r\x00\x00\x00\x00\x00\x00\x00'
p4264
tp4265
Rp4266
sg11
(lp4267
g0
(g13
g2
Ntp4268
Rp4269
(dp4270
g17
I3
sg18
g19
(g23
S'\x03\x00\x00\x00\x00\x00\x00\x00'
p4271
tp4272
Rp4273
sg11
(lp4274
g0
(g37
g2
Ntp4275
Rp4276
(dp4277
g41
g19
(g44
S'\x00\x00\x00\x00\x00\xe0z@'
p4278
tp4279
Rp4280
sbasg50
g51
sg52
g179
sbag0
(g13
g2
Ntp4281
Rp4282
(dp4283
g17
I3
sg18
g19
(g23
S'\x06\x00\x00\x00\x00\x00\x00\x00'
p4284
tp4285
Rp4286
sg11
(lp4287
g0
(g37
g2
Ntp4288
Rp4289
(dp4290
g41
g19
(g44
S'\x00\x00\x00\x00\x00\xb0x@'
p4291
tp4292
Rp4293
sbasg50
g51
sg52
g179
sbasg50
g51
sg52
g53
sbag0
(g13
g2
Ntp4294
Rp4295
(dp4296
g17
I2
sg18
g19
(g23
S'\t\x00\x00\x00\x00\x00\x00\x00'
p4297
tp4298
Rp4299
sg11
(lp4300
g0
(g37
g2
Ntp4301
Rp4302
(dp4303
g41
g19
(g44
S'\x00\x00\x00\x00\x00\xe8\x80@'
p4304
tp4305
Rp4306
sbasg50
g51
sg52
g53
sbasg50
g51
sg52
g158
sbag0
(g13
g2
Ntp4307
Rp4308
(dp4309
g17
I1
sg18
g19
(g23
S'8\x00\x00\x00\x00\x00\x00\x00'
p4310
tp4311
Rp4312
sg11
(lp4313
g0
(g13
g2
Ntp4314
Rp4315
(dp4316
g17
I2
sg18
g19
(g23
S'\x07\x00\x00\x00\x00\x00\x00\x00'
p4317
tp4318
Rp4319
sg11
(lp4320
g0
(g37
g2
Ntp4321
Rp4322
(dp4323
g41
g19
(g44
S'\x00\x00\x00\x00\x00`b@'
p4324
tp4325
Rp4326
sbasg50
g51
sg52
g53
sbag0
(g13
g2
Ntp4327
Rp4328
(dp4329
g17
I2
sg18
g19
(g23
S'\x15\x00\x00\x00\x00\x00\x00\x00'
p4330
tp4331
Rp4332
sg11
(lp4333
g0
(g37
g2
Ntp4334
Rp4335
(dp4336
g41
g19
(g44
S'\x00\x00\x00\x00\x00\x80u@'
p4337
tp4338
Rp4339
sbasg50
g51
sg52
g53
sbag0
(g13
g2
Ntp4340
Rp4341
(dp4342
g17
I2
sg18
g19
(g23
S'\x11\x00\x00\x00\x00\x00\x00\x00'
p4343
tp4344
Rp4345
sg11
(lp4346
g0
(g13
g2
Ntp4347
Rp4348
(dp4349
g17
I3
sg18
g19
(g23
S'\x05\x00\x00\x00\x00\x00\x00\x00'
p4350
tp4351
Rp4352
sg11
(lp4353
g0
(g37
g2
Ntp4354
Rp4355
(dp4356
g41
g19
(g44
S'\x00\x00\x00\x00\x00 f@'
p4357
tp4358
Rp4359
sbasg50
g51
sg52
g213
sbag0
(g13
g2
Ntp4360
Rp4361
(dp4362
g17
I3
sg18
g19
(g23
S'\x02\x00\x00\x00\x00\x00\x00\x00'
p4363
tp4364
Rp4365
sg11
(lp4366
g0
(g37
g2
Ntp4367
Rp4368
(dp4369
g41
g19
(g44
S'\x00\x00\x00\x00\x00\xf0\x81@'
p4370
tp4371
Rp4372
sbasg50
g51
sg52
g213
sbag0
(g13
g2
Ntp4373
Rp4374
(dp4375
g17
I3
sg18
g19
(g23
S'\x03\x00\x00\x00\x00\x00\x00\x00'
p4376
tp4377
Rp4378
sg11
(lp4379
g0
(g37
g2
Ntp4380
Rp4381
(dp4382
g41
g19
(g44
S'\x00\x00\x00\x00\x00\xc0[@'
p4383
tp4384
Rp4385
sbasg50
g51
sg52
g213
sbag0
(g13
g2
Ntp4386
Rp4387
(dp4388
g17
I3
sg18
g19
(g23
S'\x01\x00\x00\x00\x00\x00\x00\x00'
p4389
tp4390
Rp4391
sg11
(lp4392
g0
(g37
g2
Ntp4393
Rp4394
(dp4395
g41
g19
(g44
S'\x00\x00\x00\x00\x00\xe0\x8a@'
p4396
tp4397
Rp4398
sbasg50
g51
sg52
g213
sbasg50
g51
sg52
g53
sbag0
(g13
g2
Ntp4399
Rp4400
(dp4401
g17
I2
sg18
g19
(g23
S'\x12\x00\x00\x00\x00\x00\x00\x00'
p4402
tp4403
Rp4404
sg11
(lp4405
g0
(g37
g2
Ntp4406
Rp4407
(dp4408
g41
g19
(g44
S'\x00\x00\x00\x00\x00\x80{@'
p4409
tp4410
Rp4411
sbasg50
g51
sg52
g53
sbag0
(g13
g2
Ntp4412
Rp4413
(dp4414
g17
I2
sg18
g19
(g23
S'\r\x00\x00\x00\x00\x00\x00\x00'
p4415
tp4416
Rp4417
sg11
(lp4418
g0
(g37
g2
Ntp4419
Rp4420
(dp4421
g41
g19
(g44
S'\x00\x00\x00\x00\x00`\x82@'
p4422
tp4423
Rp4424
sbasg50
g51
sg52
g53
sbag0
(g13
g2
Ntp4425
Rp4426
(dp4427
g17
I2
sg18
g19
(g23
S'\x0f\x00\x00\x00\x00\x00\x00\x00'
p4428
tp4429
Rp4430
sg11
(lp4431
g0
(g37
g2
Ntp4432
Rp4433
(dp4434
g41
g19
(g44
S'\x00\x00\x00\x00\x00\x90\x86@'
p4435
tp4436
Rp4437
sbasg50
g51
sg52
g53
sbag0
(g13
g2
Ntp4438
Rp4439
(dp4440
g17
I2
sg18
g19
(g23
S'\x10\x00\x00\x00\x00\x00\x00\x00'
p4441
tp4442
Rp4443
sg11
(lp4444
g0
(g37
g2
Ntp4445
Rp4446
(dp4447
g41
g19
(g44
S'\x00\x00\x00\x00\x00\xd0\x81@'
p4448
tp4449
Rp4450
sbasg50
g51
sg52
g53
sbag0
(g13
g2
Ntp4451
Rp4452
(dp4453
g17
I2
sg18
g19
(g23
S'\n\x00\x00\x00\x00\x00\x00\x00'
p4454
tp4455
Rp4456
sg11
(lp4457
g0
(g37
g2
Ntp4458
Rp4459
(dp4460
g41
g19
(g44
S'\x00\x00\x00\x00\x00@\\@'
p4461
tp4462
Rp4463
sbasg50
g51
sg52
g53
sbag0
(g13
g2
Ntp4464
Rp4465
(dp4466
g17
I2
sg18
g19
(g23
S'\x08\x00\x00\x00\x00\x00\x00\x00'
p4467
tp4468
Rp4469
sg11
(lp4470
g0
(g37
g2
Ntp4471
Rp4472
(dp4473
g41
g19
(g44
S'\x00\x00\x00\x00\x00`h@'
p4474
tp4475
Rp4476
sbasg50
g51
sg52
g53
sbag0
(g13
g2
Ntp4477
Rp4478
(dp4479
g17
I2
sg18
g19
(g23
S'\x0e\x00\x00\x00\x00\x00\x00\x00'
p4480
tp4481
Rp4482
sg11
(lp4483
g0
(g37
g2
Ntp4484
Rp4485
(dp4486
g41
g19
(g44
S'\x00\x00\x00\x00\x00\xa0n@'
p4487
tp4488
Rp4489
sbasg50
g51
sg52
g53
sbasg50
g51
sg52
g158
sbag0
(g13
g2
Ntp4490
Rp4491
(dp4492
g17
I1
sg18
g19
(g23
S'R\x00\x00\x00\x00\x00\x00\x00'
p4493
tp4494
Rp4495
sg11
(lp4496
g0
(g13
g2
Ntp4497
Rp4498
(dp4499
g17
I2
sg18
g19
(g23
S'\x12\x00\x00\x00\x00\x00\x00\x00'
p4500
tp4501
Rp4502
sg11
(lp4503
g0
(g13
g2
Ntp4504
Rp4505
(dp4506
g17
I3
sg18
g19
(g23
S'\x01\x00\x00\x00\x00\x00\x00\x00'
p4507
tp4508
Rp4509
sg11
(lp4510
g0
(g13
g2
Ntp4511
Rp4512
(dp4513
g17
I4
sg18
g19
(g23
S'\x00\x00\x00\x00\x00\x00\x00\x00'
p4514
tp4515
Rp4516
sg11
(lp4517
g0
(g37
g2
Ntp4518
Rp4519
(dp4520
g41
g19
(g44
S'\x00\x00\x00\x00\x00\xe0v@'
p4521
tp4522
Rp4523
sbasg50
g51
sg52
g213
sbag0
(g13
g2
Ntp4524
Rp4525
(dp4526
g17
I4
sg18
g19
(g23
S'\x03\x00\x00\x00\x00\x00\x00\x00'
p4527
tp4528
Rp4529
sg11
(lp4530
g0
(g37
g2
Ntp4531
Rp4532
(dp4533
g41
g19
(g44
S'\x00\x00\x00\x00\x00\x00\x8d@'
p4534
tp4535
Rp4536
sbasg50
g51
sg52
g213
sbasg50
g51
sg52
g879
sbasg50
g51
sg52
g53
sbag0
(g13
g2
Ntp4537
Rp4538
(dp4539
g17
I2
sg18
g19
(g23
S'\r\x00\x00\x00\x00\x00\x00\x00'
p4540
tp4541
Rp4542
sg11
(lp4543
g0
(g37
g2
Ntp4544
Rp4545
(dp4546
g41
g19
(g44
S'\x00\x00\x00\x00\x00\x98\x84@'
p4547
tp4548
Rp4549
sbasg50
g51
sg52
g53
sbag0
(g13
g2
Ntp4550
Rp4551
(dp4552
g17
I2
sg18
g19
(g23
S'\x11\x00\x00\x00\x00\x00\x00\x00'
p4553
tp4554
Rp4555
sg11
(lp4556
g0
(g13
g2
Ntp4557
Rp4558
(dp4559
g17
I3
sg18
g19
(g23
S'\n\x00\x00\x00\x00\x00\x00\x00'
p4560
tp4561
Rp4562
sg11
(lp4563
g0
(g37
g2
Ntp4564
Rp4565
(dp4566
g41
g19
(g44
S'\x00\x00\x00\x00\x00 t@'
p4567
tp4568
Rp4569
sbasg50
g51
sg52
g179
sbag0
(g13
g2
Ntp4570
Rp4571
(dp4572
g17
I3
sg18
g19
(g23
S'\x07\x00\x00\x00\x00\x00\x00\x00'
p4573
tp4574
Rp4575
sg11
(lp4576
g0
(g37
g2
Ntp4577
Rp4578
(dp4579
g41
g19
(g44
S'\x00\x00\x00\x00\x00\xa0w@'
p4580
tp4581
Rp4582
sbasg50
g51
sg52
g179
sbasg50
g51
sg52
g53
sbasg50
g51
sg52
g158
sbag0
(g13
g2
Ntp4583
Rp4584
(dp4585
g17
I1
sg18
g19
(g23
S'@\x00\x00\x00\x00\x00\x00\x00'
p4586
tp4587
Rp4588
sg11
(lp4589
g0
(g13
g2
Ntp4590
Rp4591
(dp4592
g17
I2
sg18
g19
(g23
S'\x0c\x00\x00\x00\x00\x00\x00\x00'
p4593
tp4594
Rp4595
sg11
(lp4596
g0
(g37
g2
Ntp4597
Rp4598
(dp4599
g41
g19
(g44
S'\x00\x00\x00\x00\x00Pz@'
p4600
tp4601
Rp4602
sbasg50
g51
sg52
g179
sbag0
(g13
g2
Ntp4603
Rp4604
(dp4605
g17
I2
sg18
g19
(g23
S'\x05\x00\x00\x00\x00\x00\x00\x00'
p4606
tp4607
Rp4608
sg11
(lp4609
g0
(g13
g2
Ntp4610
Rp4611
(dp4612
g17
I3
sg18
g19
(g23
S'\x00\x00\x00\x00\x00\x00\x00\x00'
p4613
tp4614
Rp4615
sg11
(lp4616
g0
(g13
g2
Ntp4617
Rp4618
(dp4619
g17
I4
sg18
g19
(g23
S'@\x00\x00\x00\x00\x00\x00\x00'
p4620
tp4621
Rp4622
sg11
(lp4623
g0
(g13
g2
Ntp4624
Rp4625
(dp4626
g17
I5
sg18
g19
(g23
S'@\x00\x00\x00\x00\x00\x00\x00'
p4627
tp4628
Rp4629
sg11
(lp4630
g0
(g13
g2
Ntp4631
Rp4632
(dp4633
g17
I6
sg18
g19
(g23
S'\x01\x00\x00\x00\x00\x00\x00\x00'
p4634
tp4635
Rp4636
sg11
(lp4637
g0
(g13
g2
Ntp4638
Rp4639
(dp4640
g17
I7
sg18
g19
(g23
S'\x00\x00\x00\x00\x00\x00\x00\x00'
p4641
tp4642
Rp4643
sg11
(lp4644
g0
(g13
g2
Ntp4645
Rp4646
(dp4647
g17
I8
sg18
g19
(g23
S'@\x00\x00\x00\x00\x00\x00\x00'
p4648
tp4649
Rp4650
sg11
(lp4651
g0
(g13
g2
Ntp4652
Rp4653
(dp4654
g17
I9
sg18
g19
(g23
S'@\x00\x00\x00\x00\x00\x00\x00'
p4655
tp4656
Rp4657
sg11
(lp4658
g0
(g13
g2
Ntp4659
Rp4660
(dp4661
g17
I10
sg18
g19
(g23
S'@\x00\x00\x00\x00\x00\x00\x00'
p4662
tp4663
Rp4664
sg11
(lp4665
g0
(g13
g2
Ntp4666
Rp4667
(dp4668
g17
I11
sg18
g19
(g23
S'@\x00\x00\x00\x00\x00\x00\x00'
p4669
tp4670
Rp4671
sg11
(lp4672
g0
(g13
g2
Ntp4673
Rp4674
(dp4675
g17
I12
sg18
g19
(g23
S'\x01\x00\x00\x00\x00\x00\x00\x00'
p4676
tp4677
Rp4678
sg11
(lp4679
g0
(g13
g2
Ntp4680
Rp4681
(dp4682
g17
I13
sg18
g19
(g23
S'@\x00\x00\x00\x00\x00\x00\x00'
p4683
tp4684
Rp4685
sg11
(lp4686
g0
(g13
g2
Ntp4687
Rp4688
(dp4689
g17
I14
sg18
g19
(g23
S'@\x00\x00\x00\x00\x00\x00\x00'
p4690
tp4691
Rp4692
sg11
(lp4693
g0
(g13
g2
Ntp4694
Rp4695
(dp4696
g17
I15
sg18
g19
(g23
S'@\x00\x00\x00\x00\x00\x00\x00'
p4697
tp4698
Rp4699
sg11
(lp4700
g0
(g13
g2
Ntp4701
Rp4702
(dp4703
g17
I16
sg18
g19
(g23
S'@\x00\x00\x00\x00\x00\x00\x00'
p4704
tp4705
Rp4706
sg11
(lp4707
g0
(g13
g2
Ntp4708
Rp4709
(dp4710
g17
I17
sg18
g19
(g23
S'\x01\x00\x00\x00\x00\x00\x00\x00'
p4711
tp4712
Rp4713
sg11
(lp4714
g0
(g13
g2
Ntp4715
Rp4716
(dp4717
g17
I18
sg18
g19
(g23
S'@\x00\x00\x00\x00\x00\x00\x00'
p4718
tp4719
Rp4720
sg11
(lp4721
g0
(g13
g2
Ntp4722
Rp4723
(dp4724
g17
I19
sg18
g19
(g23
S'\x00\x00\x00\x00\x00\x00\x00\x00'
p4725
tp4726
Rp4727
sg11
(lp4728
g0
(g13
g2
Ntp4729
Rp4730
(dp4731
g17
I20
sg18
g19
(g23
S'@\x00\x00\x00\x00\x00\x00\x00'
p4732
tp4733
Rp4734
sg11
(lp4735
g0
(g13
g2
Ntp4736
Rp4737
(dp4738
g17
I21
sg18
g19
(g23
S'@\x00\x00\x00\x00\x00\x00\x00'
p4739
tp4740
Rp4741
sg11
(lp4742
g0
(g13
g2
Ntp4743
Rp4744
(dp4745
g17
I22
sg18
g19
(g23
S'\x01\x00\x00\x00\x00\x00\x00\x00'
p4746
tp4747
Rp4748
sg11
(lp4749
g0
(g13
g2
Ntp4750
Rp4751
(dp4752
g17
I23
sg18
g19
(g23
S'@\x00\x00\x00\x00\x00\x00\x00'
p4753
tp4754
Rp4755
sg11
(lp4756
g0
(g13
g2
Ntp4757
Rp4758
(dp4759
g17
I24
sg18
g19
(g23
S'@\x00\x00\x00\x00\x00\x00\x00'
p4760
tp4761
Rp4762
sg11
(lp4763
g0
(g13
g2
Ntp4764
Rp4765
(dp4766
g17
I25
sg18
g19
(g23
S'@\x00\x00\x00\x00\x00\x00\x00'
p4767
tp4768
Rp4769
sg11
(lp4770
g0
(g37
g2
Ntp4771
Rp4772
(dp4773
g41
g19
(g44
S'\x00\x00\x00\x00\x00\x1c\x87@'
p4774
tp4775
Rp4776
sbasg50
g51
sg52
g158
sbasg50
g51
sg52
g158
sbasg50
g51
sg52
g158
sbasg50
g51
sg52
g879
sbasg50
g51
sg52
g158
sbasg50
g51
sg52
g158
sbasg50
g51
sg52
g213
sbasg50
g51
sg52
g158
sbasg50
g51
sg52
g879
sbasg50
g51
sg52
g158
sbasg50
g51
sg52
g158
sbasg50
g51
sg52
g158
sbasg50
g51
sg52
g158
sbasg50
g51
sg52
g879
sbasg50
g51
sg52
g158
sbasg50
g51
sg52
g158
sbasg50
g51
sg52
g158
sbasg50
g51
sg52
g158
sbasg50
g51
sg52
g213
sbasg50
g51
sg52
g879
sbasg50
g51
sg52
g158
sbasg50
g51
sg52
g158
sbasg50
g51
sg52
g213
sbag0
(g13
g2
Ntp4777
Rp4778
(dp4779
g17
I3
sg18
g19
(g23
S'\x02\x00\x00\x00\x00\x00\x00\x00'
p4780
tp4781
Rp4782
sg11
(lp4783
g0
(g37
g2
Ntp4784
Rp4785
(dp4786
g41
g19
(g44
S'\x00\x00\x00\x00\x00\xb8\x85@'
p4787
tp4788
Rp4789
sbasg50
g51
sg52
g213
sbasg50
g51
sg52
g179
sbag0
(g13
g2
Ntp4790
Rp4791
(dp4792
g17
I2
sg18
g19
(g23
S'\t\x00\x00\x00\x00\x00\x00\x00'
p4793
tp4794
Rp4795
sg11
(lp4796
g0
(g37
g2
Ntp4797
Rp4798
(dp4799
g41
g19
(g44
S'\x00\x00\x00\x00\x00@R@'
p4800
tp4801
Rp4802
sbasg50
g51
sg52
g179
sbag0
(g13
g2
Ntp4803
Rp4804
(dp4805
g17
I2
sg18
g19
(g23
S'\x0b\x00\x00\x00\x00\x00\x00\x00'
p4806
tp4807
Rp4808
sg11
(lp4809
g0
(g37
g2
Ntp4810
Rp4811
(dp4812
g41
g19
(g44
S'\x00\x00\x00\x00\x00\x00\x91@'
p4813
tp4814
Rp4815
sbasg50
g51
sg52
g179
sbag0
(g13
g2
Ntp4816
Rp4817
(dp4818
g17
I2
sg18
g19
(g23
S'\x08\x00\x00\x00\x00\x00\x00\x00'
p4819
tp4820
Rp4821
sg11
(lp4822
g0
(g37
g2
Ntp4823
Rp4824
(dp4825
g41
g19
(g44
S'\x00\x00\x00\x00\x000}@'
p4826
tp4827
Rp4828
sbasg50
g51
sg52
g179
sbag0
(g13
g2
Ntp4829
Rp4830
(dp4831
g17
I2
sg18
g19
(g23
S'\x04\x00\x00\x00\x00\x00\x00\x00'
p4832
tp4833
Rp4834
sg11
(lp4835
g0
(g37
g2
Ntp4836
Rp4837
(dp4838
g41
g19
(g44
S'\x00\x00\x00\x00\x00@p@'
p4839
tp4840
Rp4841
sbasg50
g51
sg52
g179
sbag0
(g13
g2
Ntp4842
Rp4843
(dp4844
g17
I2
sg18
g19
(g23
S'\x02\x00\x00\x00\x00\x00\x00\x00'
p4845
tp4846
Rp4847
sg11
(lp4848
g0
(g37
g2
Ntp4849
Rp4850
(dp4851
g41
g19
(g44
S'\x00\x00\x00\x00\x00\x00p@'
p4852
tp4853
Rp4854
sbasg50
g51
sg52
g179
sbasg50
g51
sg52
g158
sbag0
(g13
g2
Ntp4855
Rp4856
(dp4857
g17
I1
sg18
g19
(g23
S'-\x00\x00\x00\x00\x00\x00\x00'
p4858
tp4859
Rp4860
sg11
(lp4861
g0
(g13
g2
Ntp4862
Rp4863
(dp4864
g17
I2
sg18
g19
(g23
S'\x01\x00\x00\x00\x00\x00\x00\x00'
p4865
tp4866
Rp4867
sg11
(lp4868
g0
(g37
g2
Ntp4869
Rp4870
(dp4871
g41
g19
(g44
S'\x00\x00\x00\x00\x00\xe0h@'
p4872
tp4873
Rp4874
sbasg50
g51
sg52
g213
sbag0
(g13
g2
Ntp4875
Rp4876
(dp4877
g17
I2
sg18
g19
(g23
S'\x00\x00\x00\x00\x00\x00\x00\x00'
p4878
tp4879
Rp4880
sg11
(lp4881
g0
(g37
g2
Ntp4882
Rp4883
(dp4884
g41
g19
(g44
S'\x00\x00\x00\x00\x00`\x94@'
p4885
tp4886
Rp4887
sbasg50
g51
sg52
g213
sbag0
(g13
g2
Ntp4888
Rp4889
(dp4890
g17
I2
sg18
g19
(g23
S'\x03\x00\x00\x00\x00\x00\x00\x00'
p4891
tp4892
Rp4893
sg11
(lp4894
g0
(g37
g2
Ntp4895
Rp4896
(dp4897
g41
g19
(g44
S'\x00\x00\x00\x00\x00 \x88@'
p4898
tp4899
Rp4900
sbasg50
g51
sg52
g213
sbag0
(g13
g2
Ntp4901
Rp4902
(dp4903
g17
I2
sg18
g19
(g23
S'\x04\x00\x00\x00\x00\x00\x00\x00'
p4904
tp4905
Rp4906
sg11
(lp4907
g0
(g37
g2
Ntp4908
Rp4909
(dp4910
g41
g19
(g44
S'\x00\x00\x00\x00\x00p\x81@'
p4911
tp4912
Rp4913
sbasg50
g51
sg52
g213
sbag0
(g13
g2
Ntp4914
Rp4915
(dp4916
g17
I2
sg18
g19
(g23
S'\x06\x00\x00\x00\x00\x00\x00\x00'
p4917
tp4918
Rp4919
sg11
(lp4920
g0
(g37
g2
Ntp4921
Rp4922
(dp4923
g41
g19
(g44
S'\x00\x00\x00\x00\x000\x80@'
p4924
tp4925
Rp4926
sbasg50
g51
sg52
g213
sbasg50
g51
sg52
g158
sbag0
(g13
g2
Ntp4927
Rp4928
(dp4929
g17
I1
sg18
g19
(g23
S'J\x00\x00\x00\x00\x00\x00\x00'
p4930
tp4931
Rp4932
sg11
(lp4933
g0
(g13
g2
Ntp4934
Rp4935
(dp4936
g17
I2
sg18
g19
(g23
S'\x01\x00\x00\x00\x00\x00\x00\x00'
p4937
tp4938
Rp4939
sg11
(lp4940
g0
(g13
g2
Ntp4941
Rp4942
(dp4943
g17
I3
sg18
g19
(g23
S'\t\x00\x00\x00\x00\x00\x00\x00'
p4944
tp4945
Rp4946
sg11
(lp4947
g0
(g13
g2
Ntp4948
Rp4949
(dp4950
g17
I4
sg18
g19
(g23
S'\x07\x00\x00\x00\x00\x00\x00\x00'
p4951
tp4952
Rp4953
sg11
(lp4954
g0
(g13
g2
Ntp4955
Rp4956
(dp4957
g17
I5
sg18
g19
(g23
S'\x00\x00\x00\x00\x00\x00\x00\x00'
p4958
tp4959
Rp4960
sg11
(lp4961
g0
(g37
g2
Ntp4962
Rp4963
(dp4964
g41
g19
(g44
S'\x00\x00\x00\x00\x00l\x90@'
p4965
tp4966
Rp4967
sbasg50
g51
sg52
g213
sbag0
(g13
g2
Ntp4968
Rp4969
(dp4970
g17
I5
sg18
g19
(g23
S'\x02\x00\x00\x00\x00\x00\x00\x00'
p4971
tp4972
Rp4973
sg11
(lp4974
g0
(g37
g2
Ntp4975
Rp4976
(dp4977
g41
g19
(g44
S'\x00\x00\x00\x00\x00\x18\x82@'
p4978
tp4979
Rp4980
sbasg50
g51
sg52
g213
sbasg50
g51
sg52
g53
sbag0
(g13
g2
Ntp4981
Rp4982
(dp4983
g17
I4
sg18
g19
(g23
S'\x0e\x00\x00\x00\x00\x00\x00\x00'
p4984
tp4985
Rp4986
sg11
(lp4987
g0
(g37
g2
Ntp4988
Rp4989
(dp4990
g41
g19
(g44
S'\x00\x00\x00\x00\x00\x90|@'
p4991
tp4992
Rp4993
sbasg50
g51
sg52
g53
sbasg50
g51
sg52
g179
sbag0
(g13
g2
Ntp4994
Rp4995
(dp4996
g17
I3
sg18
g19
(g23
S'\x06\x00\x00\x00\x00\x00\x00\x00'
p4997
tp4998
Rp4999
sg11
(lp5000
g0
(g37
g2
Ntp5001
Rp5002
(dp5003
g41
g19
(g44
S'\x00\x00\x00\x00\x00(\x8b@'
p5004
tp5005
Rp5006
sbasg50
g51
sg52
g179
sbag0
(g13
g2
Ntp5007
Rp5008
(dp5009
g17
I3
sg18
g19
(g23
S'\x08\x00\x00\x00\x00\x00\x00\x00'
p5010
tp5011
Rp5012
sg11
(lp5013
g0
(g13
g2
Ntp5014
Rp5015
(dp5016
g17
I4
sg18
g19
(g23
S'\x00\x00\x00\x00\x00\x00\x00\x00'
p5017
tp5018
Rp5019
sg11
(lp5020
g0
(g37
g2
Ntp5021
Rp5022
(dp5023
g41
g19
(g44
S'\x00\x00\x00\x00\x00`s@'
p5024
tp5025
Rp5026
sbasg50
g51
sg52
g213
sbag0
(g13
g2
Ntp5027
Rp5028
(dp5029
g17
I4
sg18
g19
(g23
S'\x01\x00\x00\x00\x00\x00\x00\x00'
p5030
tp5031
Rp5032
sg11
(lp5033
g0
(g37
g2
Ntp5034
Rp5035
(dp5036
g41
g19
(g44
S'\x00\x00\x00\x00\x00\xa0l@'
p5037
tp5038
Rp5039
sbasg50
g51
sg52
g213
sbag0
(g13
g2
Ntp5040
Rp5041
(dp5042
g17
I4
sg18
g19
(g23
S'\x04\x00\x00\x00\x00\x00\x00\x00'
p5043
tp5044
Rp5045
sg11
(lp5046
g0
(g37
g2
Ntp5047
Rp5048
(dp5049
g41
g19
(g44
S'\x00\x00\x00\x00\x00\xd8\x80@'
p5050
tp5051
Rp5052
sbasg50
g51
sg52
g213
sbasg50
g51
sg52
g179
sbag0
(g13
g2
Ntp5053
Rp5054
(dp5055
g17
I3
sg18
g19
(g23
S'\x01\x00\x00\x00\x00\x00\x00\x00'
p5056
tp5057
Rp5058
sg11
(lp5059
g0
(g13
g2
Ntp5060
Rp5061
(dp5062
g17
I4
sg18
g19
(g23
S'\x0f\x00\x00\x00\x00\x00\x00\x00'
p5063
tp5064
Rp5065
sg11
(lp5066
g0
(g37
g2
Ntp5067
Rp5068
(dp5069
g41
g19
(g44
S'\x00\x00\x00\x00\x00\xf8\x83@'
p5070
tp5071
Rp5072
sbasg50
g51
sg52
g53
sbag0
(g13
g2
Ntp5073
Rp5074
(dp5075
g17
I4
sg18
g19
(g23
S'\n\x00\x00\x00\x00\x00\x00\x00'
p5076
tp5077
Rp5078
sg11
(lp5079
g0
(g37
g2
Ntp5080
Rp5081
(dp5082
g41
g19
(g44
S'\x00\x00\x00\x00\x00\x80u@'
p5083
tp5084
Rp5085
sbasg50
g51
sg52
g53
sbag0
(g13
g2
Ntp5086
Rp5087
(dp5088
g17
I4
sg18
g19
(g23
S'\x08\x00\x00\x00\x00\x00\x00\x00'
p5089
tp5090
Rp5091
sg11
(lp5092
g0
(g37
g2
Ntp5093
Rp5094
(dp5095
g41
g19
(g44
S'\x00\x00\x00\x00\x00\xe0\x80@'
p5096
tp5097
Rp5098
sbasg50
g51
sg52
g53
sbasg50
g51
sg52
g179
sbag0
(g13
g2
Ntp5099
Rp5100
(dp5101
g17
I3
sg18
g19
(g23
S'\x03\x00\x00\x00\x00\x00\x00\x00'
p5102
tp5103
Rp5104
sg11
(lp5105
g0
(g37
g2
Ntp5106
Rp5107
(dp5108
g41
g19
(g44
S'\x00\x00\x00\x00\x00\xd0\x88@'
p5109
tp5110
Rp5111
sbasg50
g51
sg52
g179
sbag0
(g13
g2
Ntp5112
Rp5113
(dp5114
g17
I3
sg18
g19
(g23
S'\n\x00\x00\x00\x00\x00\x00\x00'
p5115
tp5116
Rp5117
sg11
(lp5118
g0
(g37
g2
Ntp5119
Rp5120
(dp5121
g41
g19
(g44
S'\x00\x00\x00\x00\x00\x00f@'
p5122
tp5123
Rp5124
sbasg50
g51
sg52
g179
sbag0
(g13
g2
Ntp5125
Rp5126
(dp5127
g17
I3
sg18
g19
(g23
S'\x05\x00\x00\x00\x00\x00\x00\x00'
p5128
tp5129
Rp5130
sg11
(lp5131
g0
(g37
g2
Ntp5132
Rp5133
(dp5134
g41
g19
(g44
S'\x00\x00\x00\x00\x00\xc8\x89@'
p5135
tp5136
Rp5137
sbasg50
g51
sg52
g179
sbag0
(g13
g2
Ntp5138
Rp5139
(dp5140
g17
I3
sg18
g19
(g23
S'\x07\x00\x00\x00\x00\x00\x00\x00'
p5141
tp5142
Rp5143
sg11
(lp5144
g0
(g13
g2
Ntp5145
Rp5146
(dp5147
g17
I4
sg18
g19
(g23
S'\x07\x00\x00\x00\x00\x00\x00\x00'
p5148
tp5149
Rp5150
sg11
(lp5151
g0
(g37
g2
Ntp5152
Rp5153
(dp5154
g41
g19
(g44
S'\x00\x00\x00\x00\x00\xa0}@'
p5155
tp5156
Rp5157
sbasg50
g51
sg52
g53
sbag0
(g13
g2
Ntp5158
Rp5159
(dp5160
g17
I4
sg18
g19
(g23
S'\x0f\x00\x00\x00\x00\x00\x00\x00'
p5161
tp5162
Rp5163
sg11
(lp5164
g0
(g37
g2
Ntp5165
Rp5166
(dp5167
g41
g19
(g44
S'\x00\x00\x00\x00\x00\xe0\x7f@'
p5168
tp5169
Rp5170
sbasg50
g51
sg52
g53
sbasg50
g51
sg52
g179
sbag0
(g13
g2
Ntp5171
Rp5172
(dp5173
g17
I3
sg18
g19
(g23
S'\x04\x00\x00\x00\x00\x00\x00\x00'
p5174
tp5175
Rp5176
sg11
(lp5177
g0
(g13
g2
Ntp5178
Rp5179
(dp5180
g17
I4
sg18
g19
(g23
S'J\x00\x00\x00\x00\x00\x00\x00'
p5181
tp5182
Rp5183
sg11
(lp5184
g0
(g13
g2
Ntp5185
Rp5186
(dp5187
g17
I5
sg18
g19
(g23
S'\x03\x00\x00\x00\x00\x00\x00\x00'
p5188
tp5189
Rp5190
sg11
(lp5191
g0
(g37
g2
Ntp5192
Rp5193
(dp5194
g41
g19
(g44
S'\x00\x00\x00\x00\x00\xa0`@'
p5195
tp5196
Rp5197
sbasg50
g51
sg52
g213
sbag0
(g13
g2
Ntp5198
Rp5199
(dp5200
g17
I5
sg18
g19
(g23
S'\x00\x00\x00\x00\x00\x00\x00\x00'
p5201
tp5202
Rp5203
sg11
(lp5204
g0
(g37
g2
Ntp5205
Rp5206
(dp5207
g41
g19
(g44
S'\x00\x00\x00\x00\x00\x10{@'
p5208
tp5209
Rp5210
sbasg50
g51
sg52
g213
sbasg50
g51
sg52
g158
sbasg50
g51
sg52
g179
sbag0
(g13
g2
Ntp5211
Rp5212
(dp5213
g17
I3
sg18
g19
(g23
S'\x0b\x00\x00\x00\x00\x00\x00\x00'
p5214
tp5215
Rp5216
sg11
(lp5217
g0
(g13
g2
Ntp5218
Rp5219
(dp5220
g17
I4
sg18
g19
(g23
S'\x04\x00\x00\x00\x00\x00\x00\x00'
p5221
tp5222
Rp5223
sg11
(lp5224
g0
(g37
g2
Ntp5225
Rp5226
(dp5227
g41
g19
(g44
S'\x00\x00\x00\x00\x00\xd8\x86@'
p5228
tp5229
Rp5230
sbasg50
g51
sg52
g213
sbag0
(g13
g2
Ntp5231
Rp5232
(dp5233
g17
I4
sg18
g19
(g23
S'\x03\x00\x00\x00\x00\x00\x00\x00'
p5234
tp5235
Rp5236
sg11
(lp5237
g0
(g37
g2
Ntp5238
Rp5239
(dp5240
g41
g19
(g44
S'\x00\x00\x00\x00\x00\xe0o@'
p5241
tp5242
Rp5243
sbasg50
g51
sg52
g213
sbasg50
g51
sg52
g179
sbasg50
g51
sg52
g879
sbag0
(g13
g2
Ntp5244
Rp5245
(dp5246
g17
I2
sg18
g19
(g23
S'\x02\x00\x00\x00\x00\x00\x00\x00'
p5247
tp5248
Rp5249
sg11
(lp5250
g0
(g37
g2
Ntp5251
Rp5252
(dp5253
g41
g19
(g44
S'\x00\x00\x00\x00\x00\xb8\x98@'
p5254
tp5255
Rp5256
sbasg50
g51
sg52
g879
sbasg50
g51
sg52
g158
sbag0
(g13
g2
Ntp5257
Rp5258
(dp5259
g17
I1
sg18
g19
(g23
S'0\x00\x00\x00\x00\x00\x00\x00'
p5260
tp5261
Rp5262
sg11
(lp5263
g0
(g13
g2
Ntp5264
Rp5265
(dp5266
g17
I2
sg18
g19
(g23
S'\x03\x00\x00\x00\x00\x00\x00\x00'
p5267
tp5268
Rp5269
sg11
(lp5270
g0
(g13
g2
Ntp5271
Rp5272
(dp5273
g17
I3
sg18
g19
(g23
S'\x16\x00\x00\x00\x00\x00\x00\x00'
p5274
tp5275
Rp5276
sg11
(lp5277
g0
(g37
g2
Ntp5278
Rp5279
(dp5280
g41
g19
(g44
S'\x00\x00\x00\x00\x00\x00t@'
p5281
tp5282
Rp5283
sbasg50
g51
sg52
g53
sbag0
(g13
g2
Ntp5284
Rp5285
(dp5286
g17
I3
sg18
g19
(g23
S'\r\x00\x00\x00\x00\x00\x00\x00'
p5287
tp5288
Rp5289
sg11
(lp5290
g0
(g37
g2
Ntp5291
Rp5292
(dp5293
g41
g19
(g44
S'\x00\x00\x00\x00\x00X\x9b@'
p5294
tp5295
Rp5296
sbasg50
g51
sg52
g53
sbag0
(g13
g2
Ntp5297
Rp5298
(dp5299
g17
I3
sg18
g19
(g23
S'\x11\x00\x00\x00\x00\x00\x00\x00'
p5300
tp5301
Rp5302
sg11
(lp5303
g0
(g37
g2
Ntp5304
Rp5305
(dp5306
g41
g19
(g44
S'\x00\x00\x00\x00\x00\xe0~@'
p5307
tp5308
Rp5309
sbasg50
g51
sg52
g53
sbasg50
g51
sg52
g213
sbag0
(g13
g2
Ntp5310
Rp5311
(dp5312
g17
I2
sg18
g19
(g23
S'\x06\x00\x00\x00\x00\x00\x00\x00'
p5313
tp5314
Rp5315
sg11
(lp5316
g0
(g37
g2
Ntp5317
Rp5318
(dp5319
g41
g19
(g44
S'\x00\x00\x00\x00\x00\xca\xa2@'
p5320
tp5321
Rp5322
sbasg50
g51
sg52
g213
sbag0
(g13
g2
Ntp5323
Rp5324
(dp5325
g17
I2
sg18
g19
(g23
S'\x01\x00\x00\x00\x00\x00\x00\x00'
p5326
tp5327
Rp5328
sg11
(lp5329
g0
(g13
g2
Ntp5330
Rp5331
(dp5332
g17
I3
sg18
g19
(g23
S'\x08\x00\x00\x00\x00\x00\x00\x00'
p5333
tp5334
Rp5335
sg11
(lp5336
g0
(g37
g2
Ntp5337
Rp5338
(dp5339
g41
g19
(g44
S'\x00\x00\x00\x00\x00 \x84@'
p5340
tp5341
Rp5342
sbasg50
g51
sg52
g179
sbag0
(g13
g2
Ntp5343
Rp5344
(dp5345
g17
I3
sg18
g19
(g23
S'\t\x00\x00\x00\x00\x00\x00\x00'
p5346
tp5347
Rp5348
sg11
(lp5349
g0
(g37
g2
Ntp5350
Rp5351
(dp5352
g41
g19
(g44
S'\x00\x00\x00\x00\x00\x10\x8d@'
p5353
tp5354
Rp5355
sbasg50
g51
sg52
g179
sbag0
(g13
g2
Ntp5356
Rp5357
(dp5358
g17
I3
sg18
g19
(g23
S'\x03\x00\x00\x00\x00\x00\x00\x00'
p5359
tp5360
Rp5361
sg11
(lp5362
g0
(g37
g2
Ntp5363
Rp5364
(dp5365
g41
g19
(g44
S'\x00\x00\x00\x00\x00\xb8\x8f@'
p5366
tp5367
Rp5368
sbasg50
g51
sg52
g179
sbasg50
g51
sg52
g213
sbag0
(g13
g2
Ntp5369
Rp5370
(dp5371
g17
I2
sg18
g19
(g23
S'\x04\x00\x00\x00\x00\x00\x00\x00'
p5372
tp5373
Rp5374
sg11
(lp5375
g0
(g37
g2
Ntp5376
Rp5377
(dp5378
g41
g19
(g44
S'\x00\x00\x00\x00\x00\x9c\x95@'
p5379
tp5380
Rp5381
sbasg50
g51
sg52
g213
sbag0
(g13
g2
Ntp5382
Rp5383
(dp5384
g17
I2
sg18
g19
(g23
S'\x05\x00\x00\x00\x00\x00\x00\x00'
p5385
tp5386
Rp5387
sg11
(lp5388
g0
(g37
g2
Ntp5389
Rp5390
(dp5391
g41
g19
(g44
S'\x00\x00\x00\x00\x00\xfc\xa2@'
p5392
tp5393
Rp5394
sbasg50
g51
sg52
g213
sbag0
(g13
g2
Ntp5395
Rp5396
(dp5397
g17
I2
sg18
g19
(g23
S'\x00\x00\x00\x00\x00\x00\x00\x00'
p5398
tp5399
Rp5400
sg11
(lp5401
g0
(g37
g2
Ntp5402
Rp5403
(dp5404
g41
g19
(g44
S'\x00\x00\x00\x00\x00(\x8e@'
p5405
tp5406
Rp5407
sbasg50
g51
sg52
g213
sbag0
(g13
g2
Ntp5408
Rp5409
(dp5410
g17
I2
sg18
g19
(g23
S'\x02\x00\x00\x00\x00\x00\x00\x00'
p5411
tp5412
Rp5413
sg11
(lp5414
g0
(g37
g2
Ntp5415
Rp5416
(dp5417
g41
g19
(g44
S'\x00\x00\x00\x00\x00 \x83@'
p5418
tp5419
Rp5420
sbasg50
g51
sg52
g213
sbasg50
g51
sg52
g158
sbag0
(g13
g2
Ntp5421
Rp5422
(dp5423
g17
I1
sg18
g19
(g23
S'K\x00\x00\x00\x00\x00\x00\x00'
p5424
tp5425
Rp5426
sg11
(lp5427
g0
(g13
g2
Ntp5428
Rp5429
(dp5430
g17
I2
sg18
g19
(g23
S'\x06\x00\x00\x00\x00\x00\x00\x00'
p5431
tp5432
Rp5433
sg11
(lp5434
g0
(g13
g2
Ntp5435
Rp5436
(dp5437
g17
I3
sg18
g19
(g23
S'\x13\x00\x00\x00\x00\x00\x00\x00'
p5438
tp5439
Rp5440
sg11
(lp5441
g0
(g37
g2
Ntp5442
Rp5443
(dp5444
g41
g19
(g44
S'\x00\x00\x00\x00\x00\xf8\x81@'
p5445
tp5446
Rp5447
sbasg50
g51
sg52
g53
sbag0
(g13
g2
Ntp5448
Rp5449
(dp5450
g17
I3
sg18
g19
(g23
S'\x0e\x00\x00\x00\x00\x00\x00\x00'
p5451
tp5452
Rp5453
sg11
(lp5454
g0
(g37
g2
Ntp5455
Rp5456
(dp5457
g41
g19
(g44
S'\x00\x00\x00\x00\x00\xc0r@'
p5458
tp5459
Rp5460
sbasg50
g51
sg52
g53
sbasg50
g51
sg52
g179
sbag0
(g13
g2
Ntp5461
Rp5462
(dp5463
g17
I2
sg18
g19
(g23
S'\x08\x00\x00\x00\x00\x00\x00\x00'
p5464
tp5465
Rp5466
sg11
(lp5467
g0
(g13
g2
Ntp5468
Rp5469
(dp5470
g17
I3
sg18
g19
(g23
S'\x01\x00\x00\x00\x00\x00\x00\x00'
p5471
tp5472
Rp5473
sg11
(lp5474
g0
(g37
g2
Ntp5475
Rp5476
(dp5477
g41
g19
(g44
S'\x00\x00\x00\x00\x00\x18\x82@'
p5478
tp5479
Rp5480
sbasg50
g51
sg52
g213
sbag0
(g13
g2
Ntp5481
Rp5482
(dp5483
g17
I3
sg18
g19
(g23
S'\x00\x00\x00\x00\x00\x00\x00\x00'
p5484
tp5485
Rp5486
sg11
(lp5487
g0
(g37
g2
Ntp5488
Rp5489
(dp5490
g41
g19
(g44
S'\x00\x00\x00\x00\x00@v@'
p5491
tp5492
Rp5493
sbasg50
g51
sg52
g213
sbasg50
g51
sg52
g179
sbag0
(g13
g2
Ntp5494
Rp5495
(dp5496
g17
I2
sg18
g19
(g23
S'\x0b\x00\x00\x00\x00\x00\x00\x00'
p5497
tp5498
Rp5499
sg11
(lp5500
g0
(g13
g2
Ntp5501
Rp5502
(dp5503
g17
I3
sg18
g19
(g23
S'\x02\x00\x00\x00\x00\x00\x00\x00'
p5504
tp5505
Rp5506
sg11
(lp5507
g0
(g37
g2
Ntp5508
Rp5509
(dp5510
g41
g19
(g44
S'\x00\x00\x00\x00\x00 \x89@'
p5511
tp5512
Rp5513
sbasg50
g51
sg52
g213
sbag0
(g13
g2
Ntp5514
Rp5515
(dp5516
g17
I3
sg18
g19
(g23
S'\x01\x00\x00\x00\x00\x00\x00\x00'
p5517
tp5518
Rp5519
sg11
(lp5520
g0
(g37
g2
Ntp5521
Rp5522
(dp5523
g41
g19
(g44
S'\x00\x00\x00\x00\x00\x90r@'
p5524
tp5525
Rp5526
sbasg50
g51
sg52
g213
sbasg50
g51
sg52
g179
sbag0
(g13
g2
Ntp5527
Rp5528
(dp5529
g17
I2
sg18
g19
(g23
S'\x05\x00\x00\x00\x00\x00\x00\x00'
p5530
tp5531
Rp5532
sg11
(lp5533
g0
(g37
g2
Ntp5534
Rp5535
(dp5536
g41
g19
(g44
S'\x00\x00\x00\x00\x00p\x92@'
p5537
tp5538
Rp5539
sbasg50
g51
sg52
g179
sbag0
(g13
g2
Ntp5540
Rp5541
(dp5542
g17
I2
sg18
g19
(g23
S'\x03\x00\x00\x00\x00\x00\x00\x00'
p5543
tp5544
Rp5545
sg11
(lp5546
g0
(g37
g2
Ntp5547
Rp5548
(dp5549
g41
g19
(g44
S'\x00\x00\x00\x00\x00`\x85@'
p5550
tp5551
Rp5552
sbasg50
g51
sg52
g179
sbag0
(g13
g2
Ntp5553
Rp5554
(dp5555
g17
I2
sg18
g19
(g23
S'\x07\x00\x00\x00\x00\x00\x00\x00'
p5556
tp5557
Rp5558
sg11
(lp5559
g0
(g37
g2
Ntp5560
Rp5561
(dp5562
g41
g19
(g44
S'\x00\x00\x00\x00\x00\x98\x81@'
p5563
tp5564
Rp5565
sbasg50
g51
sg52
g179
sbasg50
g51
sg52
g158
sbag0
(g13
g2
Ntp5566
Rp5567
(dp5568
g17
I1
sg18
g19
(g23
S'=\x00\x00\x00\x00\x00\x00\x00'
p5569
tp5570
Rp5571
sg11
(lp5572
g0
(g13
g2
Ntp5573
Rp5574
(dp5575
g17
I2
sg18
g19
(g23
S'\x04\x00\x00\x00\x00\x00\x00\x00'
p5576
tp5577
Rp5578
sg11
(lp5579
g0
(g13
g2
Ntp5580
Rp5581
(dp5582
g17
I3
sg18
g19
(g23
S'\x01\x00\x00\x00\x00\x00\x00\x00'
p5583
tp5584
Rp5585
sg11
(lp5586
g0
(g37
g2
Ntp5587
Rp5588
(dp5589
g41
g19
(g44
S'\x00\x00\x00\x00\x00@}@'
p5590
tp5591
Rp5592
sbasg50
g51
sg52
g879
sbag0
(g13
g2
Ntp5593
Rp5594
(dp5595
g17
I3
sg18
g19
(g23
S'\x02\x00\x00\x00\x00\x00\x00\x00'
p5596
tp5597
Rp5598
sg11
(lp5599
g0
(g37
g2
Ntp5600
Rp5601
(dp5602
g41
g19
(g44
S'\x00\x00\x00\x00\x00\xcc\x98@'
p5603
tp5604
Rp5605
sbasg50
g51
sg52
g879
sbasg50
g51
sg52
g213
sbag0
(g13
g2
Ntp5606
Rp5607
(dp5608
g17
I2
sg18
g19
(g23
S'\x03\x00\x00\x00\x00\x00\x00\x00'
p5609
tp5610
Rp5611
sg11
(lp5612
g0
(g13
g2
Ntp5613
Rp5614
(dp5615
g17
I3
sg18
g19
(g23
S'\x07\x00\x00\x00\x00\x00\x00\x00'
p5616
tp5617
Rp5618
sg11
(lp5619
g0
(g37
g2
Ntp5620
Rp5621
(dp5622
g41
g19
(g44
S'\x00\x00\x00\x00\x00@l@'
p5623
tp5624
Rp5625
sbasg50
g51
sg52
g53
sbag0
(g13
g2
Ntp5626
Rp5627
(dp5628
g17
I3
sg18
g19
(g23
S'\x14\x00\x00\x00\x00\x00\x00\x00'
p5629
tp5630
Rp5631
sg11
(lp5632
g0
(g37
g2
Ntp5633
Rp5634
(dp5635
g41
g19
(g44
S'\x00\x00\x00\x00\x00 u@'
p5636
tp5637
Rp5638
sbasg50
g51
sg52
g53
sbag0
(g13
g2
Ntp5639
Rp5640
(dp5641
g17
I3
sg18
g19
(g23
S'\n\x00\x00\x00\x00\x00\x00\x00'
p5642
tp5643
Rp5644
sg11
(lp5645
g0
(g37
g2
Ntp5646
Rp5647
(dp5648
g41
g19
(g44
S'\x00\x00\x00\x00\x00\xa0\x8f@'
p5649
tp5650
Rp5651
sbasg50
g51
sg52
g53
sbasg50
g51
sg52
g213
sbag0
(g13
g2
Ntp5652
Rp5653
(dp5654
g17
I2
sg18
g19
(g23
S'\x02\x00\x00\x00\x00\x00\x00\x00'
p5655
tp5656
Rp5657
sg11
(lp5658
g0
(g13
g2
Ntp5659
Rp5660
(dp5661
g17
I3
sg18
g19
(g23
S'\x0e\x00\x00\x00\x00\x00\x00\x00'
p5662
tp5663
Rp5664
sg11
(lp5665
g0
(g37
g2
Ntp5666
Rp5667
(dp5668
g41
g19
(g44
S'\x00\x00\x00\x00\x00ps@'
p5669
tp5670
Rp5671
sbasg50
g51
sg52
g53
sbag0
(g13
g2
Ntp5672
Rp5673
(dp5674
g17
I3
sg18
g19
(g23
S'\x11\x00\x00\x00\x00\x00\x00\x00'
p5675
tp5676
Rp5677
sg11
(lp5678
g0
(g37
g2
Ntp5679
Rp5680
(dp5681
g41
g19
(g44
S'\x00\x00\x00\x00\x00\xb0z@'
p5682
tp5683
Rp5684
sbasg50
g51
sg52
g53
sbag0
(g13
g2
Ntp5685
Rp5686
(dp5687
g17
I3
sg18
g19
(g23
S'\x12\x00\x00\x00\x00\x00\x00\x00'
p5688
tp5689
Rp5690
sg11
(lp5691
g0
(g37
g2
Ntp5692
Rp5693
(dp5694
g41
g19
(g44
S'\x00\x00\x00\x00\x00P\x84@'
p5695
tp5696
Rp5697
sbasg50
g51
sg52
g53
sbasg50
g51
sg52
g213
sbag0
(g13
g2
Ntp5698
Rp5699
(dp5700
g17
I2
sg18
g19
(g23
S'\x00\x00\x00\x00\x00\x00\x00\x00'
p5701
tp5702
Rp5703
sg11
(lp5704
g0
(g13
g2
Ntp5705
Rp5706
(dp5707
g17
I3
sg18
g19
(g23
S'\x11\x00\x00\x00\x00\x00\x00\x00'
p5708
tp5709
Rp5710
sg11
(lp5711
g0
(g37
g2
Ntp5712
Rp5713
(dp5714
g41
g19
(g44
S'\x00\x00\x00\x00\x00\xc0y@'
p5715
tp5716
Rp5717
sbasg50
g51
sg52
g53
sbag0
(g13
g2
Ntp5718
Rp5719
(dp5720
g17
I3
sg18
g19
(g23
S'\x08\x00\x00\x00\x00\x00\x00\x00'
p5721
tp5722
Rp5723
sg11
(lp5724
g0
(g37
g2
Ntp5725
Rp5726
(dp5727
g41
g19
(g44
S'\x00\x00\x00\x00\x00\x10\x83@'
p5728
tp5729
Rp5730
sbasg50
g51
sg52
g53
sbag0
(g13
g2
Ntp5731
Rp5732
(dp5733
g17
I3
sg18
g19
(g23
S'\n\x00\x00\x00\x00\x00\x00\x00'
p5734
tp5735
Rp5736
sg11
(lp5737
g0
(g37
g2
Ntp5738
Rp5739
(dp5740
g41
g19
(g44
S'\x00\x00\x00\x00\x00(\x84@'
p5741
tp5742
Rp5743
sbasg50
g51
sg52
g53
sbag0
(g13
g2
Ntp5744
Rp5745
(dp5746
g17
I3
sg18
g19
(g23
S'\x10\x00\x00\x00\x00\x00\x00\x00'
p5747
tp5748
Rp5749
sg11
(lp5750
g0
(g37
g2
Ntp5751
Rp5752
(dp5753
g41
g19
(g44
S'\x00\x00\x00\x00\x000u@'
p5754
tp5755
Rp5756
sbasg50
g51
sg52
g53
sbasg50
g51
sg52
g213
sbag0
(g13
g2
Ntp5757
Rp5758
(dp5759
g17
I2
sg18
g19
(g23
S'\x01\x00\x00\x00\x00\x00\x00\x00'
p5760
tp5761
Rp5762
sg11
(lp5763
g0
(g13
g2
Ntp5764
Rp5765
(dp5766
g17
I3
sg18
g19
(g23
S'\x02\x00\x00\x00\x00\x00\x00\x00'
p5767
tp5768
Rp5769
sg11
(lp5770
g0
(g37
g2
Ntp5771
Rp5772
(dp5773
g41
g19
(g44
S'\x00\x00\x00\x00\x00\xb4\x98@'
p5774
tp5775
Rp5776
sbasg50
g51
sg52
g879
sbag0
(g13
g2
Ntp5777
Rp5778
(dp5779
g17
I3
sg18
g19
(g23
S'\x01\x00\x00\x00\x00\x00\x00\x00'
p5780
tp5781
Rp5782
sg11
(lp5783
g0
(g13
g2
Ntp5784
Rp5785
(dp5786
g17
I4
sg18
g19
(g23
S'=\x00\x00\x00\x00\x00\x00\x00'
p5787
tp5788
Rp5789
sg11
(lp5790
g0
(g13
g2
Ntp5791
Rp5792
(dp5793
g17
I5
sg18
g19
(g23
S'\x04\x00\x00\x00\x00\x00\x00\x00'
p5794
tp5795
Rp5796
sg11
(lp5797
g0
(g37
g2
Ntp5798
Rp5799
(dp5800
g41
g19
(g44
S'\x00\x00\x00\x00\x00H\x80@'
p5801
tp5802
Rp5803
sbasg50
g51
sg52
g179
sbag0
(g13
g2
Ntp5804
Rp5805
(dp5806
g17
I5
sg18
g19
(g23
S'\x08\x00\x00\x00\x00\x00\x00\x00'
p5807
tp5808
Rp5809
sg11
(lp5810
g0
(g37
g2
Ntp5811
Rp5812
(dp5813
g41
g19
(g44
S'\x00\x00\x00\x00\x00`z@'
p5814
tp5815
Rp5816
sbasg50
g51
sg52
g179
sbag0
(g13
g2
Ntp5817
Rp5818
(dp5819
g17
I5
sg18
g19
(g23
S'\x06\x00\x00\x00\x00\x00\x00\x00'
p5820
tp5821
Rp5822
sg11
(lp5823
g0
(g37
g2
Ntp5824
Rp5825
(dp5826
g41
g19
(g44
S'\x00\x00\x00\x00\x00\x90s@'
p5827
tp5828
Rp5829
sbasg50
g51
sg52
g179
sbag0
(g13
g2
Ntp5830
Rp5831
(dp5832
g17
I5
sg18
g19
(g23
S'\x05\x00\x00\x00\x00\x00\x00\x00'
p5833
tp5834
Rp5835
sg11
(lp5836
g0
(g37
g2
Ntp5837
Rp5838
(dp5839
g41
g19
(g44
S'\x00\x00\x00\x00\x00`\x88@'
p5840
tp5841
Rp5842
sbasg50
g51
sg52
g179
sbasg50
g51
sg52
g158
sbasg50
g51
sg52
g879
sbasg50
g51
sg52
g213
sbag0
(g13
g2
Ntp5843
Rp5844
(dp5845
g17
I2
sg18
g19
(g23
S'\x06\x00\x00\x00\x00\x00\x00\x00'
p5846
tp5847
Rp5848
sg11
(lp5849
g0
(g13
g2
Ntp5850
Rp5851
(dp5852
g17
I3
sg18
g19
(g23
S'\n\x00\x00\x00\x00\x00\x00\x00'
p5853
tp5854
Rp5855
sg11
(lp5856
g0
(g37
g2
Ntp5857
Rp5858
(dp5859
g41
g19
(g44
S'\x00\x00\x00\x00\x00\x88\x87@'
p5860
tp5861
Rp5862
sbasg50
g51
sg52
g179
sbag0
(g13
g2
Ntp5863
Rp5864
(dp5865
g17
I3
sg18
g19
(g23
S'\x08\x00\x00\x00\x00\x00\x00\x00'
p5866
tp5867
Rp5868
sg11
(lp5869
g0
(g37
g2
Ntp5870
Rp5871
(dp5872
g41
g19
(g44
S'\x00\x00\x00\x00\x00\xb8\x89@'
p5873
tp5874
Rp5875
sbasg50
g51
sg52
g179
sbasg50
g51
sg52
g213
sbag0
(g13
g2
Ntp5876
Rp5877
(dp5878
g17
I2
sg18
g19
(g23
S'\x05\x00\x00\x00\x00\x00\x00\x00'
p5879
tp5880
Rp5881
sg11
(lp5882
g0
(g37
g2
Ntp5883
Rp5884
(dp5885
g41
g19
(g44
S'\x00\x00\x00\x00\x00\xb8\x9a@'
p5886
tp5887
Rp5888
sbasg50
g51
sg52
g213
sbasg50
g51
sg52
g158
sbag0
(g13
g2
Ntp5889
Rp5890
(dp5891
g17
I1
sg18
g19
(g23
S'/\x00\x00\x00\x00\x00\x00\x00'
p5892
tp5893
Rp5894
sg11
(lp5895
g0
(g13
g2
Ntp5896
Rp5897
(dp5898
g17
I2
sg18
g19
(g23
S'\x03\x00\x00\x00\x00\x00\x00\x00'
p5899
tp5900
Rp5901
sg11
(lp5902
g0
(g13
g2
Ntp5903
Rp5904
(dp5905
g17
I3
sg18
g19
(g23
S'\x02\x00\x00\x00\x00\x00\x00\x00'
p5906
tp5907
Rp5908
sg11
(lp5909
g0
(g37
g2
Ntp5910
Rp5911
(dp5912
g41
g19
(g44
S'\x00\x00\x00\x00\x00\xf0{@'
p5913
tp5914
Rp5915
sbasg50
g51
sg52
g879
sbag0
(g13
g2
Ntp5916
Rp5917
(dp5918
g17
I3
sg18
g19
(g23
S'\x01\x00\x00\x00\x00\x00\x00\x00'
p5919
tp5920
Rp5921
sg11
(lp5922
g0
(g37
g2
Ntp5923
Rp5924
(dp5925
g41
g19
(g44
S'\x00\x00\x00\x00\x00\xf0\x8f@'
p5926
tp5927
Rp5928
sbasg50
g51
sg52
g879
sbasg50
g51
sg52
g213
sbag0
(g13
g2
Ntp5929
Rp5930
(dp5931
g17
I2
sg18
g19
(g23
S'\x01\x00\x00\x00\x00\x00\x00\x00'
p5932
tp5933
Rp5934
sg11
(lp5935
g0
(g37
g2
Ntp5936
Rp5937
(dp5938
g41
g19
(g44
S'\x00\x00\x00\x00\x00h\x8b@'
p5939
tp5940
Rp5941
sbasg50
g51
sg52
g213
sbag0
(g13
g2
Ntp5942
Rp5943
(dp5944
g17
I2
sg18
g19
(g23
S'\x02\x00\x00\x00\x00\x00\x00\x00'
p5945
tp5946
Rp5947
sg11
(lp5948
g0
(g13
g2
Ntp5949
Rp5950
(dp5951
g17
I3
sg18
g19
(g23
S'\x06\x00\x00\x00\x00\x00\x00\x00'
p5952
tp5953
Rp5954
sg11
(lp5955
g0
(g37
g2
Ntp5956
Rp5957
(dp5958
g41
g19
(g44
S'\x00\x00\x00\x00\x00\xc0j@'
p5959
tp5960
Rp5961
sbasg50
g51
sg52
g179
sbag0
(g13
g2
Ntp5962
Rp5963
(dp5964
g17
I3
sg18
g19
(g23
S'\x08\x00\x00\x00\x00\x00\x00\x00'
p5965
tp5966
Rp5967
sg11
(lp5968
g0
(g37
g2
Ntp5969
Rp5970
(dp5971
g41
g19
(g44
S'\x00\x00\x00\x00\x00\x90}@'
p5972
tp5973
Rp5974
sbasg50
g51
sg52
g179
sbag0
(g13
g2
Ntp5975
Rp5976
(dp5977
g17
I3
sg18
g19
(g23
S'\x05\x00\x00\x00\x00\x00\x00\x00'
p5978
tp5979
Rp5980
sg11
(lp5981
g0
(g37
g2
Ntp5982
Rp5983
(dp5984
g41
g19
(g44
S'\x00\x00\x00\x00\x00H\x88@'
p5985
tp5986
Rp5987
sbasg50
g51
sg52
g179
sbasg50
g51
sg52
g213
sbag0
(g13
g2
Ntp5988
Rp5989
(dp5990
g17
I2
sg18
g19
(g23
S'\x00\x00\x00\x00\x00\x00\x00\x00'
p5991
tp5992
Rp5993
sg11
(lp5994
g0
(g13
g2
Ntp5995
Rp5996
(dp5997
g17
I3
sg18
g19
(g23
S'/\x00\x00\x00\x00\x00\x00\x00'
p5998
tp5999
Rp6000
sg11
(lp6001
g0
(g13
g2
Ntp6002
Rp6003
(dp6004
g17
I4
sg18
g19
(g23
S'\n\x00\x00\x00\x00\x00\x00\x00'
p6005
tp6006
Rp6007
sg11
(lp6008
g0
(g37
g2
Ntp6009
Rp6010
(dp6011
g41
g19
(g44
S'\x00\x00\x00\x00\x00P\x86@'
p6012
tp6013
Rp6014
sbasg50
g51
sg52
g179
sbag0
(g13
g2
Ntp6015
Rp6016
(dp6017
g17
I4
sg18
g19
(g23
S'\x0c\x00\x00\x00\x00\x00\x00\x00'
p6018
tp6019
Rp6020
sg11
(lp6021
g0
(g37
g2
Ntp6022
Rp6023
(dp6024
g41
g19
(g44
S'\x00\x00\x00\x00\x00\xe0m@'
p6025
tp6026
Rp6027
sbasg50
g51
sg52
g179
sbasg50
g51
sg52
g158
sbasg50
g51
sg52
g213
sbag0
(g13
g2
Ntp6028
Rp6029
(dp6030
g17
I2
sg18
g19
(g23
S'\x06\x00\x00\x00\x00\x00\x00\x00'
p6031
tp6032
Rp6033
sg11
(lp6034
g0
(g37
g2
Ntp6035
Rp6036
(dp6037
g41
g19
(g44
S'\x00\x00\x00\x00\x00X\x83@'
p6038
tp6039
Rp6040
sbasg50
g51
sg52
g213
sbasg50
g51
sg52
g158
sbag0
(g13
g2
Ntp6041
Rp6042
(dp6043
g17
I1
sg18
g19
(g23
S'7\x00\x00\x00\x00\x00\x00\x00'
p6044
tp6045
Rp6046
sg11
(lp6047
g0
(g13
g2
Ntp6048
Rp6049
(dp6050
g17
I2
sg18
g19
(g23
S'\x02\x00\x00\x00\x00\x00\x00\x00'
p6051
tp6052
Rp6053
sg11
(lp6054
g0
(g37
g2
Ntp6055
Rp6056
(dp6057
g41
g19
(g44
S'\x00\x00\x00\x00\x00\x80\\@'
p6058
tp6059
Rp6060
sbasg50
g51
sg52
g179
sbag0
(g13
g2
Ntp6061
Rp6062
(dp6063
g17
I2
sg18
g19
(g23
S'\x08\x00\x00\x00\x00\x00\x00\x00'
p6064
tp6065
Rp6066
sg11
(lp6067
g0
(g13
g2
Ntp6068
Rp6069
(dp6070
g17
I3
sg18
g19
(g23
S'\x08\x00\x00\x00\x00\x00\x00\x00'
p6071
tp6072
Rp6073
sg11
(lp6074
g0
(g13
g2
Ntp6075
Rp6076
(dp6077
g17
I4
sg18
g19
(g23
S'\x01\x00\x00\x00\x00\x00\x00\x00'
p6078
tp6079
Rp6080
sg11
(lp6081
g0
(g13
g2
Ntp6082
Rp6083
(dp6084
g17
I5
sg18
g19
(g23
S'7\x00\x00\x00\x00\x00\x00\x00'
p6085
tp6086
Rp6087
sg11
(lp6088
g0
(g13
g2
Ntp6089
Rp6090
(dp6091
g17
I6
sg18
g19
(g23
S'7\x00\x00\x00\x00\x00\x00\x00'
p6092
tp6093
Rp6094
sg11
(lp6095
g0
(g13
g2
Ntp6096
Rp6097
(dp6098
g17
I7
sg18
g19
(g23
S'7\x00\x00\x00\x00\x00\x00\x00'
p6099
tp6100
Rp6101
sg11
(lp6102
g0
(g13
g2
Ntp6103
Rp6104
(dp6105
g17
I8
sg18
g19
(g23
S'\x01\x00\x00\x00\x00\x00\x00\x00'
p6106
tp6107
Rp6108
sg11
(lp6109
g0
(g13
g2
Ntp6110
Rp6111
(dp6112
g17
I9
sg18
g19
(g23
S'7\x00\x00\x00\x00\x00\x00\x00'
p6113
tp6114
Rp6115
sg11
(lp6116
g0
(g13
g2
Ntp6117
Rp6118
(dp6119
g17
I10
sg18
g19
(g23
S'7\x00\x00\x00\x00\x00\x00\x00'
p6120
tp6121
Rp6122
sg11
(lp6123
g0
(g13
g2
Ntp6124
Rp6125
(dp6126
g17
I11
sg18
g19
(g23
S'7\x00\x00\x00\x00\x00\x00\x00'
p6127
tp6128
Rp6129
sg11
(lp6130
g0
(g13
g2
Ntp6131
Rp6132
(dp6133
g17
I12
sg18
g19
(g23
S'7\x00\x00\x00\x00\x00\x00\x00'
p6134
tp6135
Rp6136
sg11
(lp6137
g0
(g13
g2
Ntp6138
Rp6139
(dp6140
g17
I13
sg18
g19
(g23
S'7\x00\x00\x00\x00\x00\x00\x00'
p6141
tp6142
Rp6143
sg11
(lp6144
g0
(g13
g2
Ntp6145
Rp6146
(dp6147
g17
I14
sg18
g19
(g23
S'7\x00\x00\x00\x00\x00\x00\x00'
p6148
tp6149
Rp6150
sg11
(lp6151
g0
(g13
g2
Ntp6152
Rp6153
(dp6154
g17
I15
sg18
g19
(g23
S'\x01\x00\x00\x00\x00\x00\x00\x00'
p6155
tp6156
Rp6157
sg11
(lp6158
g0
(g13
g2
Ntp6159
Rp6160
(dp6161
g17
I16
sg18
g19
(g23
S'\x01\x00\x00\x00\x00\x00\x00\x00'
p6162
tp6163
Rp6164
sg11
(lp6165
g0
(g13
g2
Ntp6166
Rp6167
(dp6168
g17
I17
sg18
g19
(g23
S'\x01\x00\x00\x00\x00\x00\x00\x00'
p6169
tp6170
Rp6171
sg11
(lp6172
g0
(g13
g2
Ntp6173
Rp6174
(dp6175
g17
I18
sg18
g19
(g23
S'7\x00\x00\x00\x00\x00\x00\x00'
p6176
tp6177
Rp6178
sg11
(lp6179
g0
(g13
g2
Ntp6180
Rp6181
(dp6182
g17
I19
sg18
g19
(g23
S'7\x00\x00\x00\x00\x00\x00\x00'
p6183
tp6184
Rp6185
sg11
(lp6186
g0
(g13
g2
Ntp6187
Rp6188
(dp6189
g17
I20
sg18
g19
(g23
S'7\x00\x00\x00\x00\x00\x00\x00'
p6190
tp6191
Rp6192
sg11
(lp6193
g0
(g13
g2
Ntp6194
Rp6195
(dp6196
g17
I21
sg18
g19
(g23
S'7\x00\x00\x00\x00\x00\x00\x00'
p6197
tp6198
Rp6199
sg11
(lp6200
g0
(g13
g2
Ntp6201
Rp6202
(dp6203
g17
I22
sg18
g19
(g23
S'7\x00\x00\x00\x00\x00\x00\x00'
p6204
tp6205
Rp6206
sg11
(lp6207
g0
(g13
g2
Ntp6208
Rp6209
(dp6210
g17
I23
sg18
g19
(g23
S'\x01\x00\x00\x00\x00\x00\x00\x00'
p6211
tp6212
Rp6213
sg11
(lp6214
g0
(g13
g2
Ntp6215
Rp6216
(dp6217
g17
I24
sg18
g19
(g23
S'7\x00\x00\x00\x00\x00\x00\x00'
p6218
tp6219
Rp6220
sg11
(lp6221
g0
(g13
g2
Ntp6222
Rp6223
(dp6224
g17
I25
sg18
g19
(g23
S'7\x00\x00\x00\x00\x00\x00\x00'
p6225
tp6226
Rp6227
sg11
(lp6228
g0
(g37
g2
Ntp6229
Rp6230
(dp6231
g41
g19
(g44
S'\x00\x00\x00\x00\x00\x98\x81@'
p6232
tp6233
Rp6234
sbasg50
g51
sg52
g158
sbasg50
g51
sg52
g158
sbasg50
g51
sg52
g879
sbasg50
g51
sg52
g158
sbasg50
g51
sg52
g158
sbasg50
g51
sg52
g158
sbasg50
g51
sg52
g158
sbasg50
g51
sg52
g158
sbasg50
g51
sg52
g879
sbasg50
g51
sg52
g879
sbasg50
g51
sg52
g879
sbasg50
g51
sg52
g158
sbasg50
g51
sg52
g158
sbasg50
g51
sg52
g158
sbasg50
g51
sg52
g158
sbasg50
g51
sg52
g158
sbasg50
g51
sg52
g158
sbasg50
g51
sg52
g879
sbasg50
g51
sg52
g158
sbasg50
g51
sg52
g158
sbasg50
g51
sg52
g158
sbasg50
g51
sg52
g879
sbasg50
g51
sg52
g53
sbag0
(g13
g2
Ntp6235
Rp6236
(dp6237
g17
I3
sg18
g19
(g23
S'\x06\x00\x00\x00\x00\x00\x00\x00'
p6238
tp6239
Rp6240
sg11
(lp6241
g0
(g37
g2
Ntp6242
Rp6243
(dp6244
g41
g19
(g44
S'\x00\x00\x00\x00\x00`l@'
p6245
tp6246
Rp6247
sbasg50
g51
sg52
g53
sbag0
(g13
g2
Ntp6248
Rp6249
(dp6250
g17
I3
sg18
g19
(g23
S'\x07\x00\x00\x00\x00\x00\x00\x00'
p6251
tp6252
Rp6253
sg11
(lp6254
g0
(g13
g2
Ntp6255
Rp6256
(dp6257
g17
I4
sg18
g19
(g23
S'\x02\x00\x00\x00\x00\x00\x00\x00'
p6258
tp6259
Rp6260
sg11
(lp6261
g0
(g37
g2
Ntp6262
Rp6263
(dp6264
g41
g19
(g44
S'\x00\x00\x00\x00\x00\xb8\x81@'
p6265
tp6266
Rp6267
sbasg50
g51
sg52
g213
sbag0
(g13
g2
Ntp6268
Rp6269
(dp6270
g17
I4
sg18
g19
(g23
S'\x03\x00\x00\x00\x00\x00\x00\x00'
p6271
tp6272
Rp6273
sg11
(lp6274
g0
(g37
g2
Ntp6275
Rp6276
(dp6277
g41
g19
(g44
S'\x00\x00\x00\x00\x00\xc0x@'
p6278
tp6279
Rp6280
sbasg50
g51
sg52
g213
sbasg50
g51
sg52
g53
sbasg50
g51
sg52
g179
sbag0
(g13
g2
Ntp6281
Rp6282
(dp6283
g17
I2
sg18
g19
(g23
S'\x05\x00\x00\x00\x00\x00\x00\x00'
p6284
tp6285
Rp6286
sg11
(lp6287
g0
(g13
g2
Ntp6288
Rp6289
(dp6290
g17
I3
sg18
g19
(g23
S'7\x00\x00\x00\x00\x00\x00\x00'
p6291
tp6292
Rp6293
sg11
(lp6294
g0
(g13
g2
Ntp6295
Rp6296
(dp6297
g17
I4
sg18
g19
(g23
S'\x08\x00\x00\x00\x00\x00\x00\x00'
p6298
tp6299
Rp6300
sg11
(lp6301
g0
(g37
g2
Ntp6302
Rp6303
(dp6304
g41
g19
(g44
S'\x00\x00\x00\x00\x00P\x81@'
p6305
tp6306
Rp6307
sbasg50
g51
sg52
g53
sbag0
(g13
g2
Ntp6308
Rp6309
(dp6310
g17
I4
sg18
g19
(g23
S'\t\x00\x00\x00\x00\x00\x00\x00'
p6311
tp6312
Rp6313
sg11
(lp6314
g0
(g37
g2
Ntp6315
Rp6316
(dp6317
g41
g19
(g44
S'\x00\x00\x00\x00\x00@\x90@'
p6318
tp6319
Rp6320
sbasg50
g51
sg52
g53
sbasg50
g51
sg52
g158
sbasg50
g51
sg52
g179
sbag0
(g13
g2
Ntp6321
Rp6322
(dp6323
g17
I2
sg18
g19
(g23
S'\x0c\x00\x00\x00\x00\x00\x00\x00'
p6324
tp6325
Rp6326
sg11
(lp6327
g0
(g37
g2
Ntp6328
Rp6329
(dp6330
g41
g19
(g44
S'\x00\x00\x00\x00\x00`n@'
p6331
tp6332
Rp6333
sbasg50
g51
sg52
g179
sbag0
(g13
g2
Ntp6334
Rp6335
(dp6336
g17
I2
sg18
g19
(g23
S'\x0b\x00\x00\x00\x00\x00\x00\x00'
p6337
tp6338
Rp6339
sg11
(lp6340
g0
(g13
g2
Ntp6341
Rp6342
(dp6343
g17
I3
sg18
g19
(g23
S'\x13\x00\x00\x00\x00\x00\x00\x00'
p6344
tp6345
Rp6346
sg11
(lp6347
g0
(g37
g2
Ntp6348
Rp6349
(dp6350
g41
g19
(g44
S'\x00\x00\x00\x00\x00\xc0o@'
p6351
tp6352
Rp6353
sbasg50
g51
sg52
g53
sbag0
(g13
g2
Ntp6354
Rp6355
(dp6356
g17
I3
sg18
g19
(g23
S'\x07\x00\x00\x00\x00\x00\x00\x00'
p6357
tp6358
Rp6359
sg11
(lp6360
g0
(g37
g2
Ntp6361
Rp6362
(dp6363
g41
g19
(g44
S'\x00\x00\x00\x00\x00\xe0v@'
p6364
tp6365
Rp6366
sbasg50
g51
sg52
g53
sbasg50
g51
sg52
g179
sbag0
(g13
g2
Ntp6367
Rp6368
(dp6369
g17
I2
sg18
g19
(g23
S'\x06\x00\x00\x00\x00\x00\x00\x00'
p6370
tp6371
Rp6372
sg11
(lp6373
g0
(g37
g2
Ntp6374
Rp6375
(dp6376
g41
g19
(g44
S'\x00\x00\x00\x00\x000q@'
p6377
tp6378
Rp6379
sbasg50
g51
sg52
g179
sbag0
(g13
g2
Ntp6380
Rp6381
(dp6382
g17
I2
sg18
g19
(g23
S'\n\x00\x00\x00\x00\x00\x00\x00'
p6383
tp6384
Rp6385
sg11
(lp6386
g0
(g13
g2
Ntp6387
Rp6388
(dp6389
g17
I3
sg18
g19
(g23
S'\x02\x00\x00\x00\x00\x00\x00\x00'
p6390
tp6391
Rp6392
sg11
(lp6393
g0
(g37
g2
Ntp6394
Rp6395
(dp6396
g41
g19
(g44
S'\x00\x00\x00\x00\x00\xc0^@'
p6397
tp6398
Rp6399
sbasg50
g51
sg52
g213
sbag0
(g13
g2
Ntp6400
Rp6401
(dp6402
g17
I3
sg18
g19
(g23
S'\x04\x00\x00\x00\x00\x00\x00\x00'
p6403
tp6404
Rp6405
sg11
(lp6406
g0
(g37
g2
Ntp6407
Rp6408
(dp6409
g41
g19
(g44
S'\x00\x00\x00\x00\x00P\x85@'
p6410
tp6411
Rp6412
sbasg50
g51
sg52
g213
sbag0
(g13
g2
Ntp6413
Rp6414
(dp6415
g17
I3
sg18
g19
(g23
S'\x01\x00\x00\x00\x00\x00\x00\x00'
p6416
tp6417
Rp6418
sg11
(lp6419
g0
(g37
g2
Ntp6420
Rp6421
(dp6422
g41
g19
(g44
S'\x00\x00\x00\x00\x00\xd8\x81@'
p6423
tp6424
Rp6425
sbasg50
g51
sg52
g213
sbag0
(g13
g2
Ntp6426
Rp6427
(dp6428
g17
I3
sg18
g19
(g23
S'\x03\x00\x00\x00\x00\x00\x00\x00'
p6429
tp6430
Rp6431
sg11
(lp6432
g0
(g37
g2
Ntp6433
Rp6434
(dp6435
g41
g19
(g44
S'\x00\x00\x00\x00\x00`{@'
p6436
tp6437
Rp6438
sbasg50
g51
sg52
g213
sbasg50
g51
sg52
g179
sbag0
(g13
g2
Ntp6439
Rp6440
(dp6441
g17
I2
sg18
g19
(g23
S'\x01\x00\x00\x00\x00\x00\x00\x00'
p6442
tp6443
Rp6444
sg11
(lp6445
g0
(g13
g2
Ntp6446
Rp6447
(dp6448
g17
I3
sg18
g19
(g23
S'\x01\x00\x00\x00\x00\x00\x00\x00'
p6449
tp6450
Rp6451
sg11
(lp6452
g0
(g37
g2
Ntp6453
Rp6454
(dp6455
g41
g19
(g44
S'\x00\x00\x00\x00\x00 \x83@'
p6456
tp6457
Rp6458
sbasg50
g51
sg52
g213
sbag0
(g13
g2
Ntp6459
Rp6460
(dp6461
g17
I3
sg18
g19
(g23
S'\x00\x00\x00\x00\x00\x00\x00\x00'
p6462
tp6463
Rp6464
sg11
(lp6465
g0
(g37
g2
Ntp6466
Rp6467
(dp6468
g41
g19
(g44
S'\x00\x00\x00\x00\x00\x10u@'
p6469
tp6470
Rp6471
sbasg50
g51
sg52
g213
sbag0
(g13
g2
Ntp6472
Rp6473
(dp6474
g17
I3
sg18
g19
(g23
S'\x02\x00\x00\x00\x00\x00\x00\x00'
p6475
tp6476
Rp6477
sg11
(lp6478
g0
(g37
g2
Ntp6479
Rp6480
(dp6481
g41
g19
(g44
S'\x00\x00\x00\x00\x00@t@'
p6482
tp6483
Rp6484
sbasg50
g51
sg52
g213
sbasg50
g51
sg52
g179
sbag0
(g13
g2
Ntp6485
Rp6486
(dp6487
g17
I2
sg18
g19
(g23
S'\x03\x00\x00\x00\x00\x00\x00\x00'
p6488
tp6489
Rp6490
sg11
(lp6491
g0
(g37
g2
Ntp6492
Rp6493
(dp6494
g41
g19
(g44
S'\x00\x00\x00\x00\x000\x80@'
p6495
tp6496
Rp6497
sbasg50
g51
sg52
g179
sbag0
(g13
g2
Ntp6498
Rp6499
(dp6500
g17
I2
sg18
g19
(g23
S'\x07\x00\x00\x00\x00\x00\x00\x00'
p6501
tp6502
Rp6503
sg11
(lp6504
g0
(g37
g2
Ntp6505
Rp6506
(dp6507
g41
g19
(g44
S'\x00\x00\x00\x00\x00x\x80@'
p6508
tp6509
Rp6510
sbasg50
g51
sg52
g179
sbag0
(g13
g2
Ntp6511
Rp6512
(dp6513
g17
I2
sg18
g19
(g23
S'\x04\x00\x00\x00\x00\x00\x00\x00'
p6514
tp6515
Rp6516
sg11
(lp6517
g0
(g37
g2
Ntp6518
Rp6519
(dp6520
g41
g19
(g44
S'\x00\x00\x00\x00\x000{@'
p6521
tp6522
Rp6523
sbasg50
g51
sg52
g179
sbasg50
g51
sg52
g158
sbag0
(g13
g2
Ntp6524
Rp6525
(dp6526
g17
I1
sg18
g19
(g23
S'\x07\x00\x00\x00\x00\x00\x00\x00'
p6527
tp6528
Rp6529
sg11
(lp6530
g0
(g13
g2
Ntp6531
Rp6532
(dp6533
g17
I2
sg18
g19
(g23
S'\x05\x00\x00\x00\x00\x00\x00\x00'
p6534
tp6535
Rp6536
sg11
(lp6537
g0
(g37
g2
Ntp6538
Rp6539
(dp6540
g41
g19
(g44
S'\x00\x00\x00\x00\x00\xb0\x82@'
p6541
tp6542
Rp6543
sbasg50
g51
sg52
g213
sbag0
(g13
g2
Ntp6544
Rp6545
(dp6546
g17
I2
sg18
g19
(g23
S'\x03\x00\x00\x00\x00\x00\x00\x00'
p6547
tp6548
Rp6549
sg11
(lp6550
g0
(g37
g2
Ntp6551
Rp6552
(dp6553
g41
g19
(g44
S'\x00\x00\x00\x00\x00\x80x@'
p6554
tp6555
Rp6556
sbasg50
g51
sg52
g213
sbasg50
g51
sg52
g158
sbag0
(g13
g2
Ntp6557
Rp6558
(dp6559
g17
I1
sg18
g19
(g23
S'\x1c\x00\x00\x00\x00\x00\x00\x00'
p6560
tp6561
Rp6562
sg11
(lp6563
g0
(g13
g2
Ntp6564
Rp6565
(dp6566
g17
I2
sg18
g19
(g23
S'\x03\x00\x00\x00\x00\x00\x00\x00'
p6567
tp6568
Rp6569
sg11
(lp6570
g0
(g37
g2
Ntp6571
Rp6572
(dp6573
g41
g19
(g44
S'\x00\x00\x00\x00\x00\x00j@'
p6574
tp6575
Rp6576
sbasg50
g51
sg52
g213
sbag0
(g13
g2
Ntp6577
Rp6578
(dp6579
g17
I2
sg18
g19
(g23
S'\x05\x00\x00\x00\x00\x00\x00\x00'
p6580
tp6581
Rp6582
sg11
(lp6583
g0
(g37
g2
Ntp6584
Rp6585
(dp6586
g41
g19
(g44
S'\x00\x00\x00\x00\x80\xc6\xd0@'
p6587
tp6588
Rp6589
sbasg50
g51
sg52
g213
sbag0
(g13
g2
Ntp6590
Rp6591
(dp6592
g17
I2
sg18
g19
(g23
S'\x00\x00\x00\x00\x00\x00\x00\x00'
p6593
tp6594
Rp6595
sg11
(lp6596
g0
(g37
g2
Ntp6597
Rp6598
(dp6599
g41
g19
(g44
S'\x00\x00\x00\x00\x00\xd0r@'
p6600
tp6601
Rp6602
sbasg50
g51
sg52
g213
sbasg50
g51
sg52
g158
sbag0
(g37
g2
Ntp6603
Rp6604
(dp6605
g41
g19
(g44
S'\xd1"\xdb\xf9~>\x89@'
p6606
tp6607
Rp6608
sbag0
(g13
g2
Ntp6609
Rp6610
(dp6611
g17
I1
sg18
g19
(g23
S'E\x00\x00\x00\x00\x00\x00\x00'
p6612
tp6613
Rp6614
sg11
(lp6615
g0
(g13
g2
Ntp6616
Rp6617
(dp6618
g17
I2
sg18
g19
(g23
S'\x08\x00\x00\x00\x00\x00\x00\x00'
p6619
tp6620
Rp6621
sg11
(lp6622
g0
(g13
g2
Ntp6623
Rp6624
(dp6625
g17
I3
sg18
g19
(g23
S'\x11\x00\x00\x00\x00\x00\x00\x00'
p6626
tp6627
Rp6628
sg11
(lp6629
g0
(g37
g2
Ntp6630
Rp6631
(dp6632
g41
g19
(g44
S'\x00\x00\x00\x00\x00 \x82@'
p6633
tp6634
Rp6635
sbasg50
g51
sg52
g53
sbag0
(g13
g2
Ntp6636
Rp6637
(dp6638
g17
I3
sg18
g19
(g23
S'\x0e\x00\x00\x00\x00\x00\x00\x00'
p6639
tp6640
Rp6641
sg11
(lp6642
g0
(g37
g2
Ntp6643
Rp6644
(dp6645
g41
g19
(g44
S'\x00\x00\x00\x00\x00\x90}@'
p6646
tp6647
Rp6648
sbasg50
g51
sg52
g53
sbasg50
g51
sg52
g179
sbag0
(g13
g2
Ntp6649
Rp6650
(dp6651
g17
I2
sg18
g19
(g23
S'\x03\x00\x00\x00\x00\x00\x00\x00'
p6652
tp6653
Rp6654
sg11
(lp6655
g0
(g37
g2
Ntp6656
Rp6657
(dp6658
g41
g19
(g44
S'\x00\x00\x00\x00\x00\xd0}@'
p6659
tp6660
Rp6661
sbasg50
g51
sg52
g179
sbag0
(g13
g2
Ntp6662
Rp6663
(dp6664
g17
I2
sg18
g19
(g23
S'\x07\x00\x00\x00\x00\x00\x00\x00'
p6665
tp6666
Rp6667
sg11
(lp6668
g0
(g13
g2
Ntp6669
Rp6670
(dp6671
g17
I3
sg18
g19
(g23
S'\x03\x00\x00\x00\x00\x00\x00\x00'
p6672
tp6673
Rp6674
sg11
(lp6675
g0
(g13
g2
Ntp6676
Rp6677
(dp6678
g17
I4
sg18
g19
(g23
S'\t\x00\x00\x00\x00\x00\x00\x00'
p6679
tp6680
Rp6681
sg11
(lp6682
g0
(g37
g2
Ntp6683
Rp6684
(dp6685
g41
g19
(g44
S'\x00\x00\x00\x00\x00X\x83@'
p6686
tp6687
Rp6688
sbasg50
g51
sg52
g53
sbag0
(g13
g2
Ntp6689
Rp6690
(dp6691
g17
I4
sg18
g19
(g23
S'\x08\x00\x00\x00\x00\x00\x00\x00'
p6692
tp6693
Rp6694
sg11
(lp6695
g0
(g37
g2
Ntp6696
Rp6697
(dp6698
g41
g19
(g44
S'\x00\x00\x00\x00\x00@k@'
p6699
tp6700
Rp6701
sbasg50
g51
sg52
g53
sbasg50
g51
sg52
g213
sbag0
(g13
g2
Ntp6702
Rp6703
(dp6704
g17
I3
sg18
g19
(g23
S'\x02\x00\x00\x00\x00\x00\x00\x00'
p6705
tp6706
Rp6707
sg11
(lp6708
g0
(g13
g2
Ntp6709
Rp6710
(dp6711
g17
I4
sg18
g19
(g23
S'\t\x00\x00\x00\x00\x00\x00\x00'
p6712
tp6713
Rp6714
sg11
(lp6715
g0
(g13
g2
Ntp6716
Rp6717
(dp6718
g17
I5
sg18
g19
(g23
S'\x01\x00\x00\x00\x00\x00\x00\x00'
p6719
tp6720
Rp6721
sg11
(lp6722
g0
(g13
g2
Ntp6723
Rp6724
(dp6725
g17
I6
sg18
g19
(g23
S'E\x00\x00\x00\x00\x00\x00\x00'
p6726
tp6727
Rp6728
sg11
(lp6729
g0
(g13
g2
Ntp6730
Rp6731
(dp6732
g17
I7
sg18
g19
(g23
S'E\x00\x00\x00\x00\x00\x00\x00'
p6733
tp6734
Rp6735
sg11
(lp6736
g0
(g13
g2
Ntp6737
Rp6738
(dp6739
g17
I8
sg18
g19
(g23
S'E\x00\x00\x00\x00\x00\x00\x00'
p6740
tp6741
Rp6742
sg11
(lp6743
g0
(g13
g2
Ntp6744
Rp6745
(dp6746
g17
I9
sg18
g19
(g23
S'E\x00\x00\x00\x00\x00\x00\x00'
p6747
tp6748
Rp6749
sg11
(lp6750
g0
(g13
g2
Ntp6751
Rp6752
(dp6753
g17
I10
sg18
g19
(g23
S'E\x00\x00\x00\x00\x00\x00\x00'
p6754
tp6755
Rp6756
sg11
(lp6757
g0
(g13
g2
Ntp6758
Rp6759
(dp6760
g17
I11
sg18
g19
(g23
S'\x02\x00\x00\x00\x00\x00\x00\x00'
p6761
tp6762
Rp6763
sg11
(lp6764
g0
(g13
g2
Ntp6765
Rp6766
(dp6767
g17
I12
sg18
g19
(g23
S'E\x00\x00\x00\x00\x00\x00\x00'
p6768
tp6769
Rp6770
sg11
(lp6771
g0
(g13
g2
Ntp6772
Rp6773
(dp6774
g17
I13
sg18
g19
(g23
S'E\x00\x00\x00\x00\x00\x00\x00'
p6775
tp6776
Rp6777
sg11
(lp6778
g0
(g13
g2
Ntp6779
Rp6780
(dp6781
g17
I14
sg18
g19
(g23
S'E\x00\x00\x00\x00\x00\x00\x00'
p6782
tp6783
Rp6784
sg11
(lp6785
g0
(g13
g2
Ntp6786
Rp6787
(dp6788
g17
I15
sg18
g19
(g23
S'E\x00\x00\x00\x00\x00\x00\x00'
p6789
tp6790
Rp6791
sg11
(lp6792
g0
(g13
g2
Ntp6793
Rp6794
(dp6795
g17
I16
sg18
g19
(g23
S'\x02\x00\x00\x00\x00\x00\x00\x00'
p6796
tp6797
Rp6798
sg11
(lp6799
g0
(g13
g2
Ntp6800
Rp6801
(dp6802
g17
I17
sg18
g19
(g23
S'\x02\x00\x00\x00\x00\x00\x00\x00'
p6803
tp6804
Rp6805
sg11
(lp6806
g0
(g13
g2
Ntp6807
Rp6808
(dp6809
g17
I18
sg18
g19
(g23
S'\x01\x00\x00\x00\x00\x00\x00\x00'
p6810
tp6811
Rp6812
sg11
(lp6813
g0
(g13
g2
Ntp6814
Rp6815
(dp6816
g17
I19
sg18
g19
(g23
S'E\x00\x00\x00\x00\x00\x00\x00'
p6817
tp6818
Rp6819
sg11
(lp6820
g0
(g13
g2
Ntp6821
Rp6822
(dp6823
g17
I20
sg18
g19
(g23
S'\x01\x00\x00\x00\x00\x00\x00\x00'
p6824
tp6825
Rp6826
sg11
(lp6827
g0
(g13
g2
Ntp6828
Rp6829
(dp6830
g17
I21
sg18
g19
(g23
S'E\x00\x00\x00\x00\x00\x00\x00'
p6831
tp6832
Rp6833
sg11
(lp6834
g0
(g13
g2
Ntp6835
Rp6836
(dp6837
g17
I22
sg18
g19
(g23
S'E\x00\x00\x00\x00\x00\x00\x00'
p6838
tp6839
Rp6840
sg11
(lp6841
g0
(g13
g2
Ntp6842
Rp6843
(dp6844
g17
I23
sg18
g19
(g23
S'E\x00\x00\x00\x00\x00\x00\x00'
p6845
tp6846
Rp6847
sg11
(lp6848
g0
(g13
g2
Ntp6849
Rp6850
(dp6851
g17
I24
sg18
g19
(g23
S'\x01\x00\x00\x00\x00\x00\x00\x00'
p6852
tp6853
Rp6854
sg11
(lp6855
g0
(g13
g2
Ntp6856
Rp6857
(dp6858
g17
I25
sg18
g19
(g23
S'E\x00\x00\x00\x00\x00\x00\x00'
p6859
tp6860
Rp6861
sg11
(lp6862
g0
(g37
g2
Ntp6863
Rp6864
(dp6865
g41
g19
(g44
S'\x00\x00\x00\x00\x00\xf0\x86@'
p6866
tp6867
Rp6868
sbasg50
g51
sg52
g158
sbasg50
g51
sg52
g879
sbasg50
g51
sg52
g158
sbasg50
g51
sg52
g158
sbasg50
g51
sg52
g158
sbasg50
g51
sg52
g879
sbasg50
g51
sg52
g158
sbasg50
g51
sg52
g879
sbasg50
g51
sg52
g213
sbasg50
g51
sg52
g213
sbasg50
g51
sg52
g158
sbasg50
g51
sg52
g158
sbasg50
g51
sg52
g158
sbasg50
g51
sg52
g158
sbasg50
g51
sg52
g213
sbasg50
g51
sg52
g158
sbasg50
g51
sg52
g158
sbasg50
g51
sg52
g158
sbasg50
g51
sg52
g158
sbasg50
g51
sg52
g158
sbasg50
g51
sg52
g879
sbasg50
g51
sg52
g53
sbag0
(g13
g2
Ntp6869
Rp6870
(dp6871
g17
I4
sg18
g19
(g23
S'\x0c\x00\x00\x00\x00\x00\x00\x00'
p6872
tp6873
Rp6874
sg11
(lp6875
g0
(g37
g2
Ntp6876
Rp6877
(dp6878
g41
g19
(g44
S'\x00\x00\x00\x00\x00Pu@'
p6879
tp6880
Rp6881
sbasg50
g51
sg52
g53
sbag0
(g13
g2
Ntp6882
Rp6883
(dp6884
g17
I4
sg18
g19
(g23
S'\x08\x00\x00\x00\x00\x00\x00\x00'
p6885
tp6886
Rp6887
sg11
(lp6888
g0
(g37
g2
Ntp6889
Rp6890
(dp6891
g41
g19
(g44
S'\x00\x00\x00\x00\x000\x87@'
p6892
tp6893
Rp6894
sbasg50
g51
sg52
g53
sbasg50
g51
sg52
g213
sbasg50
g51
sg52
g179
sbag0
(g13
g2
Ntp6895
Rp6896
(dp6897
g17
I2
sg18
g19
(g23
S'\x06\x00\x00\x00\x00\x00\x00\x00'
p6898
tp6899
Rp6900
sg11
(lp6901
g0
(g13
g2
Ntp6902
Rp6903
(dp6904
g17
I3
sg18
g19
(g23
S'E\x00\x00\x00\x00\x00\x00\x00'
p6905
tp6906
Rp6907
sg11
(lp6908
g0
(g13
g2
Ntp6909
Rp6910
(dp6911
g17
I4
sg18
g19
(g23
S'\x01\x00\x00\x00\x00\x00\x00\x00'
p6912
tp6913
Rp6914
sg11
(lp6915
g0
(g37
g2
Ntp6916
Rp6917
(dp6918
g41
g19
(g44
S'\x00\x00\x00\x00\x00\x80o@'
p6919
tp6920
Rp6921
sbasg50
g51
sg52
g213
sbag0
(g13
g2
Ntp6922
Rp6923
(dp6924
g17
I4
sg18
g19
(g23
S'\x04\x00\x00\x00\x00\x00\x00\x00'
p6925
tp6926
Rp6927
sg11
(lp6928
g0
(g37
g2
Ntp6929
Rp6930
(dp6931
g41
g19
(g44
S'\x00\x00\x00\x00\x00\xc0\x84@'
p6932
tp6933
Rp6934
sbasg50
g51
sg52
g213
sbasg50
g51
sg52
g158
sbasg50
g51
sg52
g179
sbag0
(g13
g2
Ntp6935
Rp6936
(dp6937
g17
I2
sg18
g19
(g23
S'\x05\x00\x00\x00\x00\x00\x00\x00'
p6938
tp6939
Rp6940
sg11
(lp6941
g0
(g13
g2
Ntp6942
Rp6943
(dp6944
g17
I3
sg18
g19
(g23
S'\x01\x00\x00\x00\x00\x00\x00\x00'
p6945
tp6946
Rp6947
sg11
(lp6948
g0
(g13
g2
Ntp6949
Rp6950
(dp6951
g17
I4
sg18
g19
(g23
S'E\x00\x00\x00\x00\x00\x00\x00'
p6952
tp6953
Rp6954
sg11
(lp6955
g0
(g13
g2
Ntp6956
Rp6957
(dp6958
g17
I5
sg18
g19
(g23
S'E\x00\x00\x00\x00\x00\x00\x00'
p6959
tp6960
Rp6961
sg11
(lp6962
g0
(g13
g2
Ntp6963
Rp6964
(dp6965
g17
I6
sg18
g19
(g23
S'E\x00\x00\x00\x00\x00\x00\x00'
p6966
tp6967
Rp6968
sg11
(lp6969
g0
(g13
g2
Ntp6970
Rp6971
(dp6972
g17
I7
sg18
g19
(g23
S'\x01\x00\x00\x00\x00\x00\x00\x00'
p6973
tp6974
Rp6975
sg11
(lp6976
g0
(g13
g2
Ntp6977
Rp6978
(dp6979
g17
I8
sg18
g19
(g23
S'\x00\x00\x00\x00\x00\x00\x00\x00'
p6980
tp6981
Rp6982
sg11
(lp6983
g0
(g13
g2
Ntp6984
Rp6985
(dp6986
g17
I9
sg18
g19
(g23
S'E\x00\x00\x00\x00\x00\x00\x00'
p6987
tp6988
Rp6989
sg11
(lp6990
g0
(g13
g2
Ntp6991
Rp6992
(dp6993
g17
I10
sg18
g19
(g23
S'E\x00\x00\x00\x00\x00\x00\x00'
p6994
tp6995
Rp6996
sg11
(lp6997
g0
(g13
g2
Ntp6998
Rp6999
(dp7000
g17
I11
sg18
g19
(g23
S'E\x00\x00\x00\x00\x00\x00\x00'
p7001
tp7002
Rp7003
sg11
(lp7004
g0
(g13
g2
Ntp7005
Rp7006
(dp7007
g17
I12
sg18
g19
(g23
S'E\x00\x00\x00\x00\x00\x00\x00'
p7008
tp7009
Rp7010
sg11
(lp7011
g0
(g13
g2
Ntp7012
Rp7013
(dp7014
g17
I13
sg18
g19
(g23
S'\x01\x00\x00\x00\x00\x00\x00\x00'
p7015
tp7016
Rp7017
sg11
(lp7018
g0
(g13
g2
Ntp7019
Rp7020
(dp7021
g17
I14
sg18
g19
(g23
S'E\x00\x00\x00\x00\x00\x00\x00'
p7022
tp7023
Rp7024
sg11
(lp7025
g0
(g13
g2
Ntp7026
Rp7027
(dp7028
g17
I15
sg18
g19
(g23
S'E\x00\x00\x00\x00\x00\x00\x00'
p7029
tp7030
Rp7031
sg11
(lp7032
g0
(g13
g2
Ntp7033
Rp7034
(dp7035
g17
I16
sg18
g19
(g23
S'E\x00\x00\x00\x00\x00\x00\x00'
p7036
tp7037
Rp7038
sg11
(lp7039
g0
(g13
g2
Ntp7040
Rp7041
(dp7042
g17
I17
sg18
g19
(g23
S'E\x00\x00\x00\x00\x00\x00\x00'
p7043
tp7044
Rp7045
sg11
(lp7046
g0
(g13
g2
Ntp7047
Rp7048
(dp7049
g17
I18
sg18
g19
(g23
S'E\x00\x00\x00\x00\x00\x00\x00'
p7050
tp7051
Rp7052
sg11
(lp7053
g0
(g13
g2
Ntp7054
Rp7055
(dp7056
g17
I19
sg18
g19
(g23
S'E\x00\x00\x00\x00\x00\x00\x00'
p7057
tp7058
Rp7059
sg11
(lp7060
g0
(g13
g2
Ntp7061
Rp7062
(dp7063
g17
I20
sg18
g19
(g23
S'\x00\x00\x00\x00\x00\x00\x00\x00'
p7064
tp7065
Rp7066
sg11
(lp7067
g0
(g13
g2
Ntp7068
Rp7069
(dp7070
g17
I21
sg18
g19
(g23
S'E\x00\x00\x00\x00\x00\x00\x00'
p7071
tp7072
Rp7073
sg11
(lp7074
g0
(g13
g2
Ntp7075
Rp7076
(dp7077
g17
I22
sg18
g19
(g23
S'E\x00\x00\x00\x00\x00\x00\x00'
p7078
tp7079
Rp7080
sg11
(lp7081
g0
(g13
g2
Ntp7082
Rp7083
(dp7084
g17
I23
sg18
g19
(g23
S'E\x00\x00\x00\x00\x00\x00\x00'
p7085
tp7086
Rp7087
sg11
(lp7088
g0
(g13
g2
Ntp7089
Rp7090
(dp7091
g17
I24
sg18
g19
(g23
S'\x00\x00\x00\x00\x00\x00\x00\x00'
p7092
tp7093
Rp7094
sg11
(lp7095
g0
(g13
g2
Ntp7096
Rp7097
(dp7098
g17
I25
sg18
g19
(g23
S'E\x00\x00\x00\x00\x00\x00\x00'
p7099
tp7100
Rp7101
sg11
(lp7102
g0
(g37
g2
Ntp7103
Rp7104
(dp7105
g41
g19
(g44
S'\x00\x00\x00\x00\x00 \x85@'
p7106
tp7107
Rp7108
sbasg50
g51
sg52
g158
sbasg50
g51
sg52
g213
sbasg50
g51
sg52
g158
sbasg50
g51
sg52
g158
sbasg50
g51
sg52
g158
sbasg50
g51
sg52
g213
sbasg50
g51
sg52
g158
sbasg50
g51
sg52
g158
sbasg50
g51
sg52
g158
sbasg50
g51
sg52
g158
sbasg50
g51
sg52
g158
sbasg50
g51
sg52
g158
sbasg50
g51
sg52
g879
sbasg50
g51
sg52
g158
sbasg50
g51
sg52
g158
sbasg50
g51
sg52
g158
sbasg50
g51
sg52
g158
sbasg50
g51
sg52
g213
sbasg50
g51
sg52
g879
sbasg50
g51
sg52
g158
sbasg50
g51
sg52
g158
sbasg50
g51
sg52
g158
sbasg50
g51
sg52
g879
sbasg50
g51
sg52
g179
sbag0
(g13
g2
Ntp7109
Rp7110
(dp7111
g17
I2
sg18
g19
(g23
S'\n\x00\x00\x00\x00\x00\x00\x00'
p7112
tp7113
Rp7114
sg11
(lp7115
g0
(g37
g2
Ntp7116
Rp7117
(dp7118
g41
g19
(g44
S'\x00\x00\x00\x00\x00p\x80@'
p7119
tp7120
Rp7121
sbasg50
g51
sg52
g179
sbag0
(g13
g2
Ntp7122
Rp7123
(dp7124
g17
I2
sg18
g19
(g23
S'\x0c\x00\x00\x00\x00\x00\x00\x00'
p7125
tp7126
Rp7127
sg11
(lp7128
g0
(g13
g2
Ntp7129
Rp7130
(dp7131
g17
I3
sg18
g19
(g23
S'\x0c\x00\x00\x00\x00\x00\x00\x00'
p7132
tp7133
Rp7134
sg11
(lp7135
g0
(g37
g2
Ntp7136
Rp7137
(dp7138
g41
g19
(g44
S'\x00\x00\x00\x00\x00\xe0\x85@'
p7139
tp7140
Rp7141
sbasg50
g51
sg52
g53
sbag0
(g13
g2
Ntp7142
Rp7143
(dp7144
g17
I3
sg18
g19
(g23
S'\x08\x00\x00\x00\x00\x00\x00\x00'
p7145
tp7146
Rp7147
sg11
(lp7148
g0
(g37
g2
Ntp7149
Rp7150
(dp7151
g41
g19
(g44
S'\x00\x00\x00\x00\x00\xe0}@'
p7152
tp7153
Rp7154
sbasg50
g51
sg52
g53
sbasg50
g51
sg52
g179
sbag0
(g13
g2
Ntp7155
Rp7156
(dp7157
g17
I2
sg18
g19
(g23
S'\x0b\x00\x00\x00\x00\x00\x00\x00'
p7158
tp7159
Rp7160
sg11
(lp7161
g0
(g37
g2
Ntp7162
Rp7163
(dp7164
g41
g19
(g44
S'\x00\x00\x00\x00\x00\xd8\x88@'
p7165
tp7166
Rp7167
sbasg50
g51
sg52
g179
sbag0
(g13
g2
Ntp7168
Rp7169
(dp7170
g17
I2
sg18
g19
(g23
S'\x02\x00\x00\x00\x00\x00\x00\x00'
p7171
tp7172
Rp7173
sg11
(lp7174
g0
(g37
g2
Ntp7175
Rp7176
(dp7177
g41
g19
(g44
S'\x00\x00\x00\x00\x00\xe0\x86@'
p7178
tp7179
Rp7180
sbasg50
g51
sg52
g179
sbag0
(g13
g2
Ntp7181
Rp7182
(dp7183
g17
I2
sg18
g19
(g23
S'\t\x00\x00\x00\x00\x00\x00\x00'
p7184
tp7185
Rp7186
sg11
(lp7187
g0
(g13
g2
Ntp7188
Rp7189
(dp7190
g17
I3
sg18
g19
(g23
S'\x0e\x00\x00\x00\x00\x00\x00\x00'
p7191
tp7192
Rp7193
sg11
(lp7194
g0
(g37
g2
Ntp7195
Rp7196
(dp7197
g41
g19
(g44
S'\x00\x00\x00\x00\x00`n@'
p7198
tp7199
Rp7200
sbasg50
g51
sg52
g53
sbag0
(g13
g2
Ntp7201
Rp7202
(dp7203
g17
I3
sg18
g19
(g23
S'\x12\x00\x00\x00\x00\x00\x00\x00'
p7204
tp7205
Rp7206
sg11
(lp7207
g0
(g37
g2
Ntp7208
Rp7209
(dp7210
g41
g19
(g44
S'\x00\x00\x00\x00\x00\x10\x82@'
p7211
tp7212
Rp7213
sbasg50
g51
sg52
g53
sbasg50
g51
sg52
g179
sbasg50
g51
sg52
g158
sbag0
(g13
g2
Ntp7214
Rp7215
(dp7216
g17
I1
sg18
g19
(g23
S'\x02\x00\x00\x00\x00\x00\x00\x00'
p7217
tp7218
Rp7219
sg11
(lp7220
g0
(g13
g2
Ntp7221
Rp7222
(dp7223
g17
I2
sg18
g19
(g23
S'\x02\x00\x00\x00\x00\x00\x00\x00'
p7224
tp7225
Rp7226
sg11
(lp7227
g0
(g37
g2
Ntp7228
Rp7229
(dp7230
g41
g19
(g44
S'\x00\x00\x00\x00\x00\x04\x96@'
p7231
tp7232
Rp7233
sbasg50
g51
sg52
g179
sbag0
(g13
g2
Ntp7234
Rp7235
(dp7236
g17
I2
sg18
g19
(g23
S'\t\x00\x00\x00\x00\x00\x00\x00'
p7237
tp7238
Rp7239
sg11
(lp7240
g0
(g13
g2
Ntp7241
Rp7242
(dp7243
g17
I3
sg18
g19
(g23
S'\x02\x00\x00\x00\x00\x00\x00\x00'
p7244
tp7245
Rp7246
sg11
(lp7247
g0
(g13
g2
Ntp7248
Rp7249
(dp7250
g17
I4
sg18
g19
(g23
S'\x02\x00\x00\x00\x00\x00\x00\x00'
p7251
tp7252
Rp7253
sg11
(lp7254
g0
(g13
g2
Ntp7255
Rp7256
(dp7257
g17
I5
sg18
g19
(g23
S'\x01\x00\x00\x00\x00\x00\x00\x00'
p7258
tp7259
Rp7260
sg11
(lp7261
g0
(g13
g2
Ntp7262
Rp7263
(dp7264
g17
I6
sg18
g19
(g23
S'\x02\x00\x00\x00\x00\x00\x00\x00'
p7265
tp7266
Rp7267
sg11
(lp7268
g0
(g13
g2
Ntp7269
Rp7270
(dp7271
g17
I7
sg18
g19
(g23
S'\x02\x00\x00\x00\x00\x00\x00\x00'
p7272
tp7273
Rp7274
sg11
(lp7275
g0
(g13
g2
Ntp7276
Rp7277
(dp7278
g17
I8
sg18
g19
(g23
S'\x02\x00\x00\x00\x00\x00\x00\x00'
p7279
tp7280
Rp7281
sg11
(lp7282
g0
(g13
g2
Ntp7283
Rp7284
(dp7285
g17
I9
sg18
g19
(g23
S'\x02\x00\x00\x00\x00\x00\x00\x00'
p7286
tp7287
Rp7288
sg11
(lp7289
g0
(g13
g2
Ntp7290
Rp7291
(dp7292
g17
I10
sg18
g19
(g23
S'\x02\x00\x00\x00\x00\x00\x00\x00'
p7293
tp7294
Rp7295
sg11
(lp7296
g0
(g13
g2
Ntp7297
Rp7298
(dp7299
g17
I11
sg18
g19
(g23
S'\x02\x00\x00\x00\x00\x00\x00\x00'
p7300
tp7301
Rp7302
sg11
(lp7303
g0
(g13
g2
Ntp7304
Rp7305
(dp7306
g17
I12
sg18
g19
(g23
S'\x02\x00\x00\x00\x00\x00\x00\x00'
p7307
tp7308
Rp7309
sg11
(lp7310
g0
(g13
g2
Ntp7311
Rp7312
(dp7313
g17
I13
sg18
g19
(g23
S'\x02\x00\x00\x00\x00\x00\x00\x00'
p7314
tp7315
Rp7316
sg11
(lp7317
g0
(g13
g2
Ntp7318
Rp7319
(dp7320
g17
I14
sg18
g19
(g23
S'\x02\x00\x00\x00\x00\x00\x00\x00'
p7321
tp7322
Rp7323
sg11
(lp7324
g0
(g13
g2
Ntp7325
Rp7326
(dp7327
g17
I15
sg18
g19
(g23
S'\x02\x00\x00\x00\x00\x00\x00\x00'
p7328
tp7329
Rp7330
sg11
(lp7331
g0
(g13
g2
Ntp7332
Rp7333
(dp7334
g17
I16
sg18
g19
(g23
S'\x01\x00\x00\x00\x00\x00\x00\x00'
p7335
tp7336
Rp7337
sg11
(lp7338
g0
(g13
g2
Ntp7339
Rp7340
(dp7341
g17
I17
sg18
g19
(g23
S'\x01\x00\x00\x00\x00\x00\x00\x00'
p7342
tp7343
Rp7344
sg11
(lp7345
g0
(g13
g2
Ntp7346
Rp7347
(dp7348
g17
I18
sg18
g19
(g23
S'\x01\x00\x00\x00\x00\x00\x00\x00'
p7349
tp7350
Rp7351
sg11
(lp7352
g0
(g13
g2
Ntp7353
Rp7354
(dp7355
g17
I19
sg18
g19
(g23
S'\x02\x00\x00\x00\x00\x00\x00\x00'
p7356
tp7357
Rp7358
sg11
(lp7359
g0
(g13
g2
Ntp7360
Rp7361
(dp7362
g17
I20
sg18
g19
(g23
S'\x02\x00\x00\x00\x00\x00\x00\x00'
p7363
tp7364
Rp7365
sg11
(lp7366
g0
(g13
g2
Ntp7367
Rp7368
(dp7369
g17
I21
sg18
g19
(g23
S'\x01\x00\x00\x00\x00\x00\x00\x00'
p7370
tp7371
Rp7372
sg11
(lp7373
g0
(g13
g2
Ntp7374
Rp7375
(dp7376
g17
I22
sg18
g19
(g23
S'\x02\x00\x00\x00\x00\x00\x00\x00'
p7377
tp7378
Rp7379
sg11
(lp7380
g0
(g13
g2
Ntp7381
Rp7382
(dp7383
g17
I23
sg18
g19
(g23
S'\x02\x00\x00\x00\x00\x00\x00\x00'
p7384
tp7385
Rp7386
sg11
(lp7387
g0
(g13
g2
Ntp7388
Rp7389
(dp7390
g17
I24
sg18
g19
(g23
S'\x01\x00\x00\x00\x00\x00\x00\x00'
p7391
tp7392
Rp7393
sg11
(lp7394
g0
(g13
g2
Ntp7395
Rp7396
(dp7397
g17
I25
sg18
g19
(g23
S'\x02\x00\x00\x00\x00\x00\x00\x00'
p7398
tp7399
Rp7400
sg11
(lp7401
g0
(g37
g2
Ntp7402
Rp7403
(dp7404
g41
g19
(g44
S'\x00\x00\x00\x00\x00\xec\x82@'
p7405
tp7406
Rp7407
sbasg50
g51
sg52
g158
sbasg50
g51
sg52
g879
sbasg50
g51
sg52
g158
sbasg50
g51
sg52
g158
sbasg50
g51
sg52
g879
sbasg50
g51
sg52
g158
sbasg50
g51
sg52
g158
sbasg50
g51
sg52
g879
sbasg50
g51
sg52
g879
sbasg50
g51
sg52
g879
sbasg50
g51
sg52
g158
sbasg50
g51
sg52
g158
sbasg50
g51
sg52
g158
sbasg50
g51
sg52
g158
sbasg50
g51
sg52
g158
sbasg50
g51
sg52
g158
sbasg50
g51
sg52
g158
sbasg50
g51
sg52
g158
sbasg50
g51
sg52
g158
sbasg50
g51
sg52
g158
sbasg50
g51
sg52
g879
sbasg50
g51
sg52
g158
sbasg50
g51
sg52
g158
sbasg50
g51
sg52
g179
sbag0
(g13
g2
Ntp7408
Rp7409
(dp7410
g17
I2
sg18
g19
(g23
S'\x0b\x00\x00\x00\x00\x00\x00\x00'
p7411
tp7412
Rp7413
sg11
(lp7414
g0
(g37
g2
Ntp7415
Rp7416
(dp7417
g41
g19
(g44
S'\x00\x00\x00\x00\x00\xf0v@'
p7418
tp7419
Rp7420
sbasg50
g51
sg52
g179
sbag0
(g13
g2
Ntp7421
Rp7422
(dp7423
g17
I2
sg18
g19
(g23
S'\x08\x00\x00\x00\x00\x00\x00\x00'
p7424
tp7425
Rp7426
sg11
(lp7427
g0
(g37
g2
Ntp7428
Rp7429
(dp7430
g41
g19
(g44
S'\x00\x00\x00\x00\x00 j@'
p7431
tp7432
Rp7433
sbasg50
g51
sg52
g179
sbasg50
g51
sg52
g158
sbag0
(g13
g2
Ntp7434
Rp7435
(dp7436
g17
I1
sg18
g19
(g23
S'G\x00\x00\x00\x00\x00\x00\x00'
p7437
tp7438
Rp7439
sg11
(lp7440
g0
(g13
g2
Ntp7441
Rp7442
(dp7443
g17
I2
sg18
g19
(g23
S'\x08\x00\x00\x00\x00\x00\x00\x00'
p7444
tp7445
Rp7446
sg11
(lp7447
g0
(g37
g2
Ntp7448
Rp7449
(dp7450
g41
g19
(g44
S'\x00\x00\x00\x00\x00@X@'
p7451
tp7452
Rp7453
sbasg50
g51
sg52
g53
sbag0
(g13
g2
Ntp7454
Rp7455
(dp7456
g17
I2
sg18
g19
(g23
S'\x11\x00\x00\x00\x00\x00\x00\x00'
p7457
tp7458
Rp7459
sg11
(lp7460
g0
(g37
g2
Ntp7461
Rp7462
(dp7463
g41
g19
(g44
S'\x00\x00\x00\x00\x00@\x7f@'
p7464
tp7465
Rp7466
sbasg50
g51
sg52
g53
sbag0
(g13
g2
Ntp7467
Rp7468
(dp7469
g17
I2
sg18
g19
(g23
S'\t\x00\x00\x00\x00\x00\x00\x00'
p7470
tp7471
Rp7472
sg11
(lp7473
g0
(g37
g2
Ntp7474
Rp7475
(dp7476
g41
g19
(g44
S'\x00\x00\x00\x00\x000s@'
p7477
tp7478
Rp7479
sbasg50
g51
sg52
g53
sbag0
(g13
g2
Ntp7480
Rp7481
(dp7482
g17
I2
sg18
g19
(g23
S'\x07\x00\x00\x00\x00\x00\x00\x00'
p7483
tp7484
Rp7485
sg11
(lp7486
g0
(g13
g2
Ntp7487
Rp7488
(dp7489
g17
I3
sg18
g19
(g23
S'\x02\x00\x00\x00\x00\x00\x00\x00'
p7490
tp7491
Rp7492
sg11
(lp7493
g0
(g37
g2
Ntp7494
Rp7495
(dp7496
g41
g19
(g44
S'\x00\x00\x00\x00\x00\x80t@'
p7497
tp7498
Rp7499
sbasg50
g51
sg52
g179
sbag0
(g13
g2
Ntp7500
Rp7501
(dp7502
g17
I3
sg18
g19
(g23
S'\x05\x00\x00\x00\x00\x00\x00\x00'
p7503
tp7504
Rp7505
sg11
(lp7506
g0
(g37
g2
Ntp7507
Rp7508
(dp7509
g41
g19
(g44
S'\x00\x00\x00\x00\x00\xb0s@'
p7510
tp7511
Rp7512
sbasg50
g51
sg52
g179
sbasg50
g51
sg52
g53
sbag0
(g13
g2
Ntp7513
Rp7514
(dp7515
g17
I2
sg18
g19
(g23
S'\x13\x00\x00\x00\x00\x00\x00\x00'
p7516
tp7517
Rp7518
sg11
(lp7519
g0
(g37
g2
Ntp7520
Rp7521
(dp7522
g41
g19
(g44
S'\x00\x00\x00\x00\x00\xa9\xb5@'
p7523
tp7524
Rp7525
sbasg50
g51
sg52
g53
sbag0
(g13
g2
Ntp7526
Rp7527
(dp7528
g17
I2
sg18
g19
(g23
S'\x0e\x00\x00\x00\x00\x00\x00\x00'
p7529
tp7530
Rp7531
sg11
(lp7532
g0
(g37
g2
Ntp7533
Rp7534
(dp7535
g41
g19
(g44
S'\x00\x00\x00\x00\x00\xab\xce@'
p7536
tp7537
Rp7538
sbasg50
g51
sg52
g53
sbasg50
g51
sg52
g158
sbag0
(g13
g2
Ntp7539
Rp7540
(dp7541
g17
I1
sg18
g19
(g23
S'3\x00\x00\x00\x00\x00\x00\x00'
p7542
tp7543
Rp7544
sg11
(lp7545
g0
(g13
g2
Ntp7546
Rp7547
(dp7548
g17
I2
sg18
g19
(g23
S'\x11\x00\x00\x00\x00\x00\x00\x00'
p7549
tp7550
Rp7551
sg11
(lp7552
g0
(g37
g2
Ntp7553
Rp7554
(dp7555
g41
g19
(g44
S'\x00\x00\x00\x00\x00\xa0\x86@'
p7556
tp7557
Rp7558
sbasg50
g51
sg52
g53
sbag0
(g13
g2
Ntp7559
Rp7560
(dp7561
g17
I2
sg18
g19
(g23
S'\x13\x00\x00\x00\x00\x00\x00\x00'
p7562
tp7563
Rp7564
sg11
(lp7565
g0
(g13
g2
Ntp7566
Rp7567
(dp7568
g17
I3
sg18
g19
(g23
S'\x00\x00\x00\x00\x00\x00\x00\x00'
p7569
tp7570
Rp7571
sg11
(lp7572
g0
(g37
g2
Ntp7573
Rp7574
(dp7575
g41
g19
(g44
S'\x00\x00\x00\x00\x00\xe0\x7f@'
p7576
tp7577
Rp7578
sbasg50
g51
sg52
g213
sbag0
(g13
g2
Ntp7579
Rp7580
(dp7581
g17
I3
sg18
g19
(g23
S'\x05\x00\x00\x00\x00\x00\x00\x00'
p7582
tp7583
Rp7584
sg11
(lp7585
g0
(g37
g2
Ntp7586
Rp7587
(dp7588
g41
g19
(g44
S'\x00\x00\x00\x00\x00 \x86@'
p7589
tp7590
Rp7591
sbasg50
g51
sg52
g213
sbasg50
g51
sg52
g53
sbag0
(g13
g2
Ntp7592
Rp7593
(dp7594
g17
I2
sg18
g19
(g23
S'\x0c\x00\x00\x00\x00\x00\x00\x00'
p7595
tp7596
Rp7597
sg11
(lp7598
g0
(g13
g2
Ntp7599
Rp7600
(dp7601
g17
I3
sg18
g19
(g23
S'\x03\x00\x00\x00\x00\x00\x00\x00'
p7602
tp7603
Rp7604
sg11
(lp7605
g0
(g37
g2
Ntp7606
Rp7607
(dp7608
g41
g19
(g44
S'\x00\x00\x00\x00\x00\x10\x8f@'
p7609
tp7610
Rp7611
sbasg50
g51
sg52
g179
sbag0
(g13
g2
Ntp7612
Rp7613
(dp7614
g17
I3
sg18
g19
(g23
S'\x06\x00\x00\x00\x00\x00\x00\x00'
p7615
tp7616
Rp7617
sg11
(lp7618
g0
(g37
g2
Ntp7619
Rp7620
(dp7621
g41
g19
(g44
S'\x00\x00\x00\x00\x00\xa8\x89@'
p7622
tp7623
Rp7624
sbasg50
g51
sg52
g179
sbasg50
g51
sg52
g53
sbag0
(g13
g2
Ntp7625
Rp7626
(dp7627
g17
I2
sg18
g19
(g23
S'\t\x00\x00\x00\x00\x00\x00\x00'
p7628
tp7629
Rp7630
sg11
(lp7631
g0
(g37
g2
Ntp7632
Rp7633
(dp7634
g41
g19
(g44
S'\x00\x00\x00\x00\x00pz@'
p7635
tp7636
Rp7637
sbasg50
g51
sg52
g53
sbag0
(g13
g2
Ntp7638
Rp7639
(dp7640
g17
I2
sg18
g19
(g23
S'\x08\x00\x00\x00\x00\x00\x00\x00'
p7641
tp7642
Rp7643
sg11
(lp7644
g0
(g37
g2
Ntp7645
Rp7646
(dp7647
g41
g19
(g44
S'\x00\x00\x00\x00\x00\xc0}@'
p7648
tp7649
Rp7650
sbasg50
g51
sg52
g53
sbag0
(g13
g2
Ntp7651
Rp7652
(dp7653
g17
I2
sg18
g19
(g23
S'\x0b\x00\x00\x00\x00\x00\x00\x00'
p7654
tp7655
Rp7656
sg11
(lp7657
g0
(g37
g2
Ntp7658
Rp7659
(dp7660
g41
g19
(g44
S'\x00\x00\x00\x00\x00pv@'
p7661
tp7662
Rp7663
sbasg50
g51
sg52
g53
sbag0
(g13
g2
Ntp7664
Rp7665
(dp7666
g17
I2
sg18
g19
(g23
S'\n\x00\x00\x00\x00\x00\x00\x00'
p7667
tp7668
Rp7669
sg11
(lp7670
g0
(g37
g2
Ntp7671
Rp7672
(dp7673
g41
g19
(g44
S'\x00\x00\x00\x00\x00\xa8\x85@'
p7674
tp7675
Rp7676
sbasg50
g51
sg52
g53
sbag0
(g13
g2
Ntp7677
Rp7678
(dp7679
g17
I2
sg18
g19
(g23
S'\x0f\x00\x00\x00\x00\x00\x00\x00'
p7680
tp7681
Rp7682
sg11
(lp7683
g0
(g37
g2
Ntp7684
Rp7685
(dp7686
g41
g19
(g44
S'\x00\x00\x00\x00\x00@T@'
p7687
tp7688
Rp7689
sbasg50
g51
sg52
g53
sbasg50
g51
sg52
g158
sbag0
(g13
g2
Ntp7690
Rp7691
(dp7692
g17
I1
sg18
g19
(g23
S'H\x00\x00\x00\x00\x00\x00\x00'
p7693
tp7694
Rp7695
sg11
(lp7696
g0
(g13
g2
Ntp7697
Rp7698
(dp7699
g17
I2
sg18
g19
(g23
S'\x07\x00\x00\x00\x00\x00\x00\x00'
p7700
tp7701
Rp7702
sg11
(lp7703
g0
(g37
g2
Ntp7704
Rp7705
(dp7706
g41
g19
(g44
S'\x00\x00\x00\x00\x00\xe0\x8f@'
p7707
tp7708
Rp7709
sbasg50
g51
sg52
g179
sbag0
(g13
g2
Ntp7710
Rp7711
(dp7712
g17
I2
sg18
g19
(g23
S'\n\x00\x00\x00\x00\x00\x00\x00'
p7713
tp7714
Rp7715
sg11
(lp7716
g0
(g37
g2
Ntp7717
Rp7718
(dp7719
g41
g19
(g44
S'\x00\x00\x00\x00\x00\xa0\x80@'
p7720
tp7721
Rp7722
sbasg50
g51
sg52
g179
sbag0
(g13
g2
Ntp7723
Rp7724
(dp7725
g17
I2
sg18
g19
(g23
S'\x0b\x00\x00\x00\x00\x00\x00\x00'
p7726
tp7727
Rp7728
sg11
(lp7729
g0
(g13
g2
Ntp7730
Rp7731
(dp7732
g17
I3
sg18
g19
(g23
S'H\x00\x00\x00\x00\x00\x00\x00'
p7733
tp7734
Rp7735
sg11
(lp7736
g0
(g13
g2
Ntp7737
Rp7738
(dp7739
g17
I4
sg18
g19
(g23
S'\x01\x00\x00\x00\x00\x00\x00\x00'
p7740
tp7741
Rp7742
sg11
(lp7743
g0
(g37
g2
Ntp7744
Rp7745
(dp7746
g41
g19
(g44
S'\x00\x00\x00\x00\x00`\x80@'
p7747
tp7748
Rp7749
sbasg50
g51
sg52
g213
sbag0
(g13
g2
Ntp7750
Rp7751
(dp7752
g17
I4
sg18
g19
(g23
S'\x03\x00\x00\x00\x00\x00\x00\x00'
p7753
tp7754
Rp7755
sg11
(lp7756
g0
(g37
g2
Ntp7757
Rp7758
(dp7759
g41
g19
(g44
S'\x00\x00\x00\x00\x00\\\x90@'
p7760
tp7761
Rp7762
sbasg50
g51
sg52
g213
sbasg50
g51
sg52
g158
sbasg50
g51
sg52
g179
sbag0
(g13
g2
Ntp7763
Rp7764
(dp7765
g17
I2
sg18
g19
(g23
S'\x0c\x00\x00\x00\x00\x00\x00\x00'
p7766
tp7767
Rp7768
sg11
(lp7769
g0
(g13
g2
Ntp7770
Rp7771
(dp7772
g17
I3
sg18
g19
(g23
S'\x08\x00\x00\x00\x00\x00\x00\x00'
p7773
tp7774
Rp7775
sg11
(lp7776
g0
(g37
g2
Ntp7777
Rp7778
(dp7779
g41
g19
(g44
S'\x00\x00\x00\x00\x00\xc0x@'
p7780
tp7781
Rp7782
sbasg50
g51
sg52
g53
sbag0
(g13
g2
Ntp7783
Rp7784
(dp7785
g17
I3
sg18
g19
(g23
S'\x0b\x00\x00\x00\x00\x00\x00\x00'
p7786
tp7787
Rp7788
sg11
(lp7789
g0
(g37
g2
Ntp7790
Rp7791
(dp7792
g41
g19
(g44
S'\x00\x00\x00\x00\x00h\x95@'
p7793
tp7794
Rp7795
sbasg50
g51
sg52
g53
sbasg50
g51
sg52
g179
sbag0
(g13
g2
Ntp7796
Rp7797
(dp7798
g17
I2
sg18
g19
(g23
S'\x06\x00\x00\x00\x00\x00\x00\x00'
p7799
tp7800
Rp7801
sg11
(lp7802
g0
(g37
g2
Ntp7803
Rp7804
(dp7805
g41
g19
(g44
S'\x00\x00\x00\x00\x00@v@'
p7806
tp7807
Rp7808
sbasg50
g51
sg52
g179
sbag0
(g13
g2
Ntp7809
Rp7810
(dp7811
g17
I2
sg18
g19
(g23
S'\t\x00\x00\x00\x00\x00\x00\x00'
p7812
tp7813
Rp7814
sg11
(lp7815
g0
(g13
g2
Ntp7816
Rp7817
(dp7818
g17
I3
sg18
g19
(g23
S'\x04\x00\x00\x00\x00\x00\x00\x00'
p7819
tp7820
Rp7821
sg11
(lp7822
g0
(g37
g2
Ntp7823
Rp7824
(dp7825
g41
g19
(g44
S'\x00\x00\x00\x00\x00\xd0y@'
p7826
tp7827
Rp7828
sbasg50
g51
sg52
g213
sbag0
(g13
g2
Ntp7829
Rp7830
(dp7831
g17
I3
sg18
g19
(g23
S'\x00\x00\x00\x00\x00\x00\x00\x00'
p7832
tp7833
Rp7834
sg11
(lp7835
g0
(g37
g2
Ntp7836
Rp7837
(dp7838
g41
g19
(g44
S'\x00\x00\x00\x00\x00x\x80@'
p7839
tp7840
Rp7841
sbasg50
g51
sg52
g213
sbasg50
g51
sg52
g179
sbag0
(g13
g2
Ntp7842
Rp7843
(dp7844
g17
I2
sg18
g19
(g23
S'\x04\x00\x00\x00\x00\x00\x00\x00'
p7845
tp7846
Rp7847
sg11
(lp7848
g0
(g13
g2
Ntp7849
Rp7850
(dp7851
g17
I3
sg18
g19
(g23
S'\n\x00\x00\x00\x00\x00\x00\x00'
p7852
tp7853
Rp7854
sg11
(lp7855
g0
(g37
g2
Ntp7856
Rp7857
(dp7858
g41
g19
(g44
S'\x00\x00\x00\x00\x00\x88\x84@'
p7859
tp7860
Rp7861
sbasg50
g51
sg52
g53
sbag0
(g13
g2
Ntp7862
Rp7863
(dp7864
g17
I3
sg18
g19
(g23
S'\x10\x00\x00\x00\x00\x00\x00\x00'
p7865
tp7866
Rp7867
sg11
(lp7868
g0
(g37
g2
Ntp7869
Rp7870
(dp7871
g41
g19
(g44
S'\x00\x00\x00\x00\x00\x08\x85@'
p7872
tp7873
Rp7874
sbasg50
g51
sg52
g53
sbasg50
g51
sg52
g179
sbag0
(g13
g2
Ntp7875
Rp7876
(dp7877
g17
I2
sg18
g19
(g23
S'\x05\x00\x00\x00\x00\x00\x00\x00'
p7878
tp7879
Rp7880
sg11
(lp7881
g0
(g13
g2
Ntp7882
Rp7883
(dp7884
g17
I3
sg18
g19
(g23
S'\x01\x00\x00\x00\x00\x00\x00\x00'
p7885
tp7886
Rp7887
sg11
(lp7888
g0
(g37
g2
Ntp7889
Rp7890
(dp7891
g41
g19
(g44
S'\x00\x00\x00\x00\x00\xd0{@'
p7892
tp7893
Rp7894
sbasg50
g51
sg52
g879
sbag0
(g13
g2
Ntp7895
Rp7896
(dp7897
g17
I3
sg18
g19
(g23
S'\x02\x00\x00\x00\x00\x00\x00\x00'
p7898
tp7899
Rp7900
sg11
(lp7901
g0
(g37
g2
Ntp7902
Rp7903
(dp7904
g41
g19
(g44
S'\x00\x00\x00\x00\x00\x88\x82@'
p7905
tp7906
Rp7907
sbasg50
g51
sg52
g879
sbasg50
g51
sg52
g179
sbag0
(g13
g2
Ntp7908
Rp7909
(dp7910
g17
I2
sg18
g19
(g23
S'\x08\x00\x00\x00\x00\x00\x00\x00'
p7911
tp7912
Rp7913
sg11
(lp7914
g0
(g37
g2
Ntp7915
Rp7916
(dp7917
g41
g19
(g44
S'\x00\x00\x00\x00\x00Py@'
p7918
tp7919
Rp7920
sbasg50
g51
sg52
g179
sbag0
(g13
g2
Ntp7921
Rp7922
(dp7923
g17
I2
sg18
g19
(g23
S'\x03\x00\x00\x00\x00\x00\x00\x00'
p7924
tp7925
Rp7926
sg11
(lp7927
g0
(g37
g2
Ntp7928
Rp7929
(dp7930
g41
g19
(g44
S'\x00\x00\x00\x00\x00\x80z@'
p7931
tp7932
Rp7933
sbasg50
g51
sg52
g179
sbasg50
g51
sg52
g158
sbag0
(g13
g2
Ntp7934
Rp7935
(dp7936
g17
I1
sg18
g19
(g23
S'%\x00\x00\x00\x00\x00\x00\x00'
p7937
tp7938
Rp7939
sg11
(lp7940
g0
(g13
g2
Ntp7941
Rp7942
(dp7943
g17
I2
sg18
g19
(g23
S'\x01\x00\x00\x00\x00\x00\x00\x00'
p7944
tp7945
Rp7946
sg11
(lp7947
g0
(g13
g2
Ntp7948
Rp7949
(dp7950
g17
I3
sg18
g19
(g23
S'\x03\x00\x00\x00\x00\x00\x00\x00'
p7951
tp7952
Rp7953
sg11
(lp7954
g0
(g37
g2
Ntp7955
Rp7956
(dp7957
g41
g19
(g44
S'\x00\x00\x00\x00\x00\x00k@'
p7958
tp7959
Rp7960
sbasg50
g51
sg52
g213
sbag0
(g13
g2
Ntp7961
Rp7962
(dp7963
g17
I3
sg18
g19
(g23
S'\x04\x00\x00\x00\x00\x00\x00\x00'
p7964
tp7965
Rp7966
sg11
(lp7967
g0
(g37
g2
Ntp7968
Rp7969
(dp7970
g41
g19
(g44
S'\x00\x00\x00\x00\x00`l@'
p7971
tp7972
Rp7973
sbasg50
g51
sg52
g213
sbasg50
g51
sg52
g879
sbag0
(g13
g2
Ntp7974
Rp7975
(dp7976
g17
I2
sg18
g19
(g23
S'\x02\x00\x00\x00\x00\x00\x00\x00'
p7977
tp7978
Rp7979
sg11
(lp7980
g0
(g37
g2
Ntp7981
Rp7982
(dp7983
g41
g19
(g44
S'\x00\x00\x00\x00\x00H\x92@'
p7984
tp7985
Rp7986
sbasg50
g51
sg52
g879
sbasg50
g51
sg52
g158
sbag0
(g13
g2
Ntp7987
Rp7988
(dp7989
g17
I1
sg18
g19
(g23
S'1\x00\x00\x00\x00\x00\x00\x00'
p7990
tp7991
Rp7992
sg11
(lp7993
g0
(g13
g2
Ntp7994
Rp7995
(dp7996
g17
I2
sg18
g19
(g23
S'\x04\x00\x00\x00\x00\x00\x00\x00'
p7997
tp7998
Rp7999
sg11
(lp8000
g0
(g37
g2
Ntp8001
Rp8002
(dp8003
g41
g19
(g44
S'\x00\x00\x00\x00\x004\x9a@'
p8004
tp8005
Rp8006
sbasg50
g51
sg52
g179
sbag0
(g13
g2
Ntp8007
Rp8008
(dp8009
g17
I2
sg18
g19
(g23
S'\x05\x00\x00\x00\x00\x00\x00\x00'
p8010
tp8011
Rp8012
sg11
(lp8013
g0
(g37
g2
Ntp8014
Rp8015
(dp8016
g41
g19
(g44
S'\x00\x00\x00\x00\x00\xd0{@'
p8017
tp8018
Rp8019
sbasg50
g51
sg52
g179
sbag0
(g13
g2
Ntp8020
Rp8021
(dp8022
g17
I2
sg18
g19
(g23
S'\x02\x00\x00\x00\x00\x00\x00\x00'
p8023
tp8024
Rp8025
sg11
(lp8026
g0
(g13
g2
Ntp8027
Rp8028
(dp8029
g17
I3
sg18
g19
(g23
S'\x11\x00\x00\x00\x00\x00\x00\x00'
p8030
tp8031
Rp8032
sg11
(lp8033
g0
(g37
g2
Ntp8034
Rp8035
(dp8036
g41
g19
(g44
S'\x00\x00\x00\x00\x00Pr@'
p8037
tp8038
Rp8039
sbasg50
g51
sg52
g53
sbag0
(g13
g2
Ntp8040
Rp8041
(dp8042
g17
I3
sg18
g19
(g23
S'\x0f\x00\x00\x00\x00\x00\x00\x00'
p8043
tp8044
Rp8045
sg11
(lp8046
g0
(g37
g2
Ntp8047
Rp8048
(dp8049
g41
g19
(g44
S'\x00\x00\x00\x00\x00\xf0t@'
p8050
tp8051
Rp8052
sbasg50
g51
sg52
g53
sbasg50
g51
sg52
g179
sbag0
(g13
g2
Ntp8053
Rp8054
(dp8055
g17
I2
sg18
g19
(g23
S'\x07\x00\x00\x00\x00\x00\x00\x00'
p8056
tp8057
Rp8058
sg11
(lp8059
g0
(g37
g2
Ntp8060
Rp8061
(dp8062
g41
g19
(g44
S'\x00\x00\x00\x00\x00\xc8\x85@'
p8063
tp8064
Rp8065
sbasg50
g51
sg52
g179
sbasg50
g51
sg52
g158
sbag0
(g13
g2
Ntp8066
Rp8067
(dp8068
g17
I1
sg18
g19
(g23
S'?\x00\x00\x00\x00\x00\x00\x00'
p8069
tp8070
Rp8071
sg11
(lp8072
g0
(g13
g2
Ntp8073
Rp8074
(dp8075
g17
I2
sg18
g19
(g23
S'\x03\x00\x00\x00\x00\x00\x00\x00'
p8076
tp8077
Rp8078
sg11
(lp8079
g0
(g37
g2
Ntp8080
Rp8081
(dp8082
g41
g19
(g44
S'\x00\x00\x00\x00\x00Ps@'
p8083
tp8084
Rp8085
sbasg50
g51
sg52
g179
sbag0
(g13
g2
Ntp8086
Rp8087
(dp8088
g17
I2
sg18
g19
(g23
S'\x04\x00\x00\x00\x00\x00\x00\x00'
p8089
tp8090
Rp8091
sg11
(lp8092
g0
(g13
g2
Ntp8093
Rp8094
(dp8095
g17
I3
sg18
g19
(g23
S'\x01\x00\x00\x00\x00\x00\x00\x00'
p8096
tp8097
Rp8098
sg11
(lp8099
g0
(g13
g2
Ntp8100
Rp8101
(dp8102
g17
I4
sg18
g19
(g23
S'\x13\x00\x00\x00\x00\x00\x00\x00'
p8103
tp8104
Rp8105
sg11
(lp8106
g0
(g37
g2
Ntp8107
Rp8108
(dp8109
g41
g19
(g44
S'\x00\x00\x00\x00\x00\xa0x@'
p8110
tp8111
Rp8112
sbasg50
g51
sg52
g53
sbag0
(g13
g2
Ntp8113
Rp8114
(dp8115
g17
I4
sg18
g19
(g23
S'\x11\x00\x00\x00\x00\x00\x00\x00'
p8116
tp8117
Rp8118
sg11
(lp8119
g0
(g37
g2
Ntp8120
Rp8121
(dp8122
g41
g19
(g44
S'\x00\x00\x00\x00\x00\xa8\x82@'
p8123
tp8124
Rp8125
sbasg50
g51
sg52
g53
sbasg50
g51
sg52
g213
sbag0
(g13
g2
Ntp8126
Rp8127
(dp8128
g17
I3
sg18
g19
(g23
S'\x03\x00\x00\x00\x00\x00\x00\x00'
p8129
tp8130
Rp8131
sg11
(lp8132
g0
(g37
g2
Ntp8133
Rp8134
(dp8135
g41
g19
(g44
S'\x00\x00\x00\x00\x00@s@'
p8136
tp8137
Rp8138
sbasg50
g51
sg52
g213
sbasg50
g51
sg52
g179
sbag0
(g13
g2
Ntp8139
Rp8140
(dp8141
g17
I2
sg18
g19
(g23
S'\n\x00\x00\x00\x00\x00\x00\x00'
p8142
tp8143
Rp8144
sg11
(lp8145
g0
(g13
g2
Ntp8146
Rp8147
(dp8148
g17
I3
sg18
g19
(g23
S'\x01\x00\x00\x00\x00\x00\x00\x00'
p8149
tp8150
Rp8151
sg11
(lp8152
g0
(g37
g2
Ntp8153
Rp8154
(dp8155
g41
g19
(g44
S'\x00\x00\x00\x00\x00\x00s@'
p8156
tp8157
Rp8158
sbasg50
g51
sg52
g213
sbag0
(g13
g2
Ntp8159
Rp8160
(dp8161
g17
I3
sg18
g19
(g23
S'\x03\x00\x00\x00\x00\x00\x00\x00'
p8162
tp8163
Rp8164
sg11
(lp8165
g0
(g37
g2
Ntp8166
Rp8167
(dp8168
g41
g19
(g44
S'\x00\x00\x00\x00\x00 \x84@'
p8169
tp8170
Rp8171
sbasg50
g51
sg52
g213
sbasg50
g51
sg52
g179
sbag0
(g13
g2
Ntp8172
Rp8173
(dp8174
g17
I2
sg18
g19
(g23
S'\x0c\x00\x00\x00\x00\x00\x00\x00'
p8175
tp8176
Rp8177
sg11
(lp8178
g0
(g37
g2
Ntp8179
Rp8180
(dp8181
g41
g19
(g44
S'\x00\x00\x00\x00\x00\xc4\x98@'
p8182
tp8183
Rp8184
sbasg50
g51
sg52
g179
sbasg50
g51
sg52
g158
sbag0
(g13
g2
Ntp8185
Rp8186
(dp8187
g17
I1
sg18
g19
(g23
S'D\x00\x00\x00\x00\x00\x00\x00'
p8188
tp8189
Rp8190
sg11
(lp8191
g0
(g13
g2
Ntp8192
Rp8193
(dp8194
g17
I2
sg18
g19
(g23
S'\x0b\x00\x00\x00\x00\x00\x00\x00'
p8195
tp8196
Rp8197
sg11
(lp8198
g0
(g37
g2
Ntp8199
Rp8200
(dp8201
g41
g19
(g44
S'\x00\x00\x00\x00\x00@x@'
p8202
tp8203
Rp8204
sbasg50
g51
sg52
g179
sbag0
(g13
g2
Ntp8205
Rp8206
(dp8207
g17
I2
sg18
g19
(g23
S'\n\x00\x00\x00\x00\x00\x00\x00'
p8208
tp8209
Rp8210
sg11
(lp8211
g0
(g13
g2
Ntp8212
Rp8213
(dp8214
g17
I3
sg18
g19
(g23
S'\x0b\x00\x00\x00\x00\x00\x00\x00'
p8215
tp8216
Rp8217
sg11
(lp8218
g0
(g37
g2
Ntp8219
Rp8220
(dp8221
g41
g19
(g44
S'\x00\x00\x00\x00\x00\xd0\x81@'
p8222
tp8223
Rp8224
sbasg50
g51
sg52
g53
sbag0
(g13
g2
Ntp8225
Rp8226
(dp8227
g17
I3
sg18
g19
(g23
S'\x16\x00\x00\x00\x00\x00\x00\x00'
p8228
tp8229
Rp8230
sg11
(lp8231
g0
(g37
g2
Ntp8232
Rp8233
(dp8234
g41
g19
(g44
S'\x00\x00\x00\x00\x00pw@'
p8235
tp8236
Rp8237
sbasg50
g51
sg52
g53
sbasg50
g51
sg52
g179
sbag0
(g13
g2
Ntp8238
Rp8239
(dp8240
g17
I2
sg18
g19
(g23
S'\x05\x00\x00\x00\x00\x00\x00\x00'
p8241
tp8242
Rp8243
sg11
(lp8244
g0
(g37
g2
Ntp8245
Rp8246
(dp8247
g41
g19
(g44
S'\x00\x00\x00\x00\x00`c@'
p8248
tp8249
Rp8250
sbasg50
g51
sg52
g179
sbag0
(g13
g2
Ntp8251
Rp8252
(dp8253
g17
I2
sg18
g19
(g23
S'\x06\x00\x00\x00\x00\x00\x00\x00'
p8254
tp8255
Rp8256
sg11
(lp8257
g0
(g37
g2
Ntp8258
Rp8259
(dp8260
g41
g19
(g44
S'\x00\x00\x00\x00\x00 j@'
p8261
tp8262
Rp8263
sbasg50
g51
sg52
g179
sbag0
(g13
g2
Ntp8264
Rp8265
(dp8266
g17
I2
sg18
g19
(g23
S'\x07\x00\x00\x00\x00\x00\x00\x00'
p8267
tp8268
Rp8269
sg11
(lp8270
g0
(g37
g2
Ntp8271
Rp8272
(dp8273
g41
g19
(g44
S'\x00\x00\x00\x00\x00\x00\x86@'
p8274
tp8275
Rp8276
sbasg50
g51
sg52
g179
sbag0
(g13
g2
Ntp8277
Rp8278
(dp8279
g17
I2
sg18
g19
(g23
S'\x0c\x00\x00\x00\x00\x00\x00\x00'
p8280
tp8281
Rp8282
sg11
(lp8283
g0
(g37
g2
Ntp8284
Rp8285
(dp8286
g41
g19
(g44
S'\x00\x00\x00\x00\x00\xb0q@'
p8287
tp8288
Rp8289
sbasg50
g51
sg52
g179
sbasg50
g51
sg52
g158
sbag0
(g13
g2
Ntp8290
Rp8291
(dp8292
g17
I1
sg18
g19
(g23
S'\x1b\x00\x00\x00\x00\x00\x00\x00'
p8293
tp8294
Rp8295
sg11
(lp8296
g0
(g13
g2
Ntp8297
Rp8298
(dp8299
g17
I2
sg18
g19
(g23
S'\x02\x00\x00\x00\x00\x00\x00\x00'
p8300
tp8301
Rp8302
sg11
(lp8303
g0
(g37
g2
Ntp8304
Rp8305
(dp8306
g41
g19
(g44
S'\x00\x00\x00\x00\x00\xc0o@'
p8307
tp8308
Rp8309
sbasg50
g51
sg52
g213
sbag0
(g13
g2
Ntp8310
Rp8311
(dp8312
g17
I2
sg18
g19
(g23
S'\x01\x00\x00\x00\x00\x00\x00\x00'
p8313
tp8314
Rp8315
sg11
(lp8316
g0
(g13
g2
Ntp8317
Rp8318
(dp8319
g17
I3
sg18
g19
(g23
S'\x1b\x00\x00\x00\x00\x00\x00\x00'
p8320
tp8321
Rp8322
sg11
(lp8323
g0
(g13
g2
Ntp8324
Rp8325
(dp8326
g17
I4
sg18
g19
(g23
S'\t\x00\x00\x00\x00\x00\x00\x00'
p8327
tp8328
Rp8329
sg11
(lp8330
g0
(g37
g2
Ntp8331
Rp8332
(dp8333
g41
g19
(g44
S'\x00\x00\x00\x00\x00\xc0g@'
p8334
tp8335
Rp8336
sbasg50
g51
sg52
g179
sbag0
(g13
g2
Ntp8337
Rp8338
(dp8339
g17
I4
sg18
g19
(g23
S'\n\x00\x00\x00\x00\x00\x00\x00'
p8340
tp8341
Rp8342
sg11
(lp8343
g0
(g37
g2
Ntp8344
Rp8345
(dp8346
g41
g19
(g44
S'\x00\x00\x00\x00\x00\xe0k@'
p8347
tp8348
Rp8349
sbasg50
g51
sg52
g179
sbasg50
g51
sg52
g158
sbasg50
g51
sg52
g213
sbag0
(g13
g2
Ntp8350
Rp8351
(dp8352
g17
I2
sg18
g19
(g23
S'\x03\x00\x00\x00\x00\x00\x00\x00'
p8353
tp8354
Rp8355
sg11
(lp8356
g0
(g37
g2
Ntp8357
Rp8358
(dp8359
g41
g19
(g44
S'\x00\x00\x00\x00\x00@d@'
p8360
tp8361
Rp8362
sbasg50
g51
sg52
g213
sbag0
(g13
g2
Ntp8363
Rp8364
(dp8365
g17
I2
sg18
g19
(g23
S'\x00\x00\x00\x00\x00\x00\x00\x00'
p8366
tp8367
Rp8368
sg11
(lp8369
g0
(g37
g2
Ntp8370
Rp8371
(dp8372
g41
g19
(g44
S'\x00\x00\x00\x00\x00\x80p@'
p8373
tp8374
Rp8375
sbasg50
g51
sg52
g213
sbasg50
g51
sg52
g158
sbag0
(g13
g2
Ntp8376
Rp8377
(dp8378
g17
I1
sg18
g19
(g23
S'\x16\x00\x00\x00\x00\x00\x00\x00'
p8379
tp8380
Rp8381
sg11
(lp8382
g0
(g13
g2
Ntp8383
Rp8384
(dp8385
g17
I2
sg18
g19
(g23
S'\x01\x00\x00\x00\x00\x00\x00\x00'
p8386
tp8387
Rp8388
sg11
(lp8389
g0
(g37
g2
Ntp8390
Rp8391
(dp8392
g41
g19
(g44
S'\x00\x00\x00\x00\x00\x18\x88@'
p8393
tp8394
Rp8395
sbasg50
g51
sg52
g879
sbag0
(g13
g2
Ntp8396
Rp8397
(dp8398
g17
I2
sg18
g19
(g23
S'\x02\x00\x00\x00\x00\x00\x00\x00'
p8399
tp8400
Rp8401
sg11
(lp8402
g0
(g37
g2
Ntp8403
Rp8404
(dp8405
g41
g19
(g44
S'\x00\x00\x00\x00\x00\xec\xac@'
p8406
tp8407
Rp8408
sbasg50
g51
sg52
g879
sbasg50
g51
sg52
g158
sbag0
(g13
g2
Ntp8409
Rp8410
(dp8411
g17
I1
sg18
g19
(g23
S'\x06\x00\x00\x00\x00\x00\x00\x00'
p8412
tp8413
Rp8414
sg11
(lp8415
g0
(g13
g2
Ntp8416
Rp8417
(dp8418
g17
I2
sg18
g19
(g23
S'\x02\x00\x00\x00\x00\x00\x00\x00'
p8419
tp8420
Rp8421
sg11
(lp8422
g0
(g37
g2
Ntp8423
Rp8424
(dp8425
g41
g19
(g44
S'\x00\x00\x00\x00\x00\xd0{@'
p8426
tp8427
Rp8428
sbasg50
g51
sg52
g179
sbag0
(g13
g2
Ntp8429
Rp8430
(dp8431
g17
I2
sg18
g19
(g23
S'\x05\x00\x00\x00\x00\x00\x00\x00'
p8432
tp8433
Rp8434
sg11
(lp8435
g0
(g37
g2
Ntp8436
Rp8437
(dp8438
g41
g19
(g44
S'\x00\x00\x00\x00\x00\xe0q@'
p8439
tp8440
Rp8441
sbasg50
g51
sg52
g179
sbag0
(g13
g2
Ntp8442
Rp8443
(dp8444
g17
I2
sg18
g19
(g23
S'\x07\x00\x00\x00\x00\x00\x00\x00'
p8445
tp8446
Rp8447
sg11
(lp8448
g0
(g37
g2
Ntp8449
Rp8450
(dp8451
g41
g19
(g44
S'\x00\x00\x00\x00\x00 \x87@'
p8452
tp8453
Rp8454
sbasg50
g51
sg52
g179
sbasg50
g51
sg52
g158
sbag0
(g13
g2
Ntp8455
Rp8456
(dp8457
g17
I1
sg18
g19
(g23
S'B\x00\x00\x00\x00\x00\x00\x00'
p8458
tp8459
Rp8460
sg11
(lp8461
g0
(g13
g2
Ntp8462
Rp8463
(dp8464
g17
I2
sg18
g19
(g23
S'\x08\x00\x00\x00\x00\x00\x00\x00'
p8465
tp8466
Rp8467
sg11
(lp8468
g0
(g13
g2
Ntp8469
Rp8470
(dp8471
g17
I3
sg18
g19
(g23
S'\x02\x00\x00\x00\x00\x00\x00\x00'
p8472
tp8473
Rp8474
sg11
(lp8475
g0
(g13
g2
Ntp8476
Rp8477
(dp8478
g17
I4
sg18
g19
(g23
S'\x04\x00\x00\x00\x00\x00\x00\x00'
p8479
tp8480
Rp8481
sg11
(lp8482
g0
(g37
g2
Ntp8483
Rp8484
(dp8485
g41
g19
(g44
S'\x00\x00\x00\x00\x00\xd0\x82@'
p8486
tp8487
Rp8488
sbasg50
g51
sg52
g179
sbag0
(g13
g2
Ntp8489
Rp8490
(dp8491
g17
I4
sg18
g19
(g23
S'\x01\x00\x00\x00\x00\x00\x00\x00'
p8492
tp8493
Rp8494
sg11
(lp8495
g0
(g37
g2
Ntp8496
Rp8497
(dp8498
g41
g19
(g44
S'\x00\x00\x00\x00\x00@\x82@'
p8499
tp8500
Rp8501
sbasg50
g51
sg52
g179
sbasg50
g51
sg52
g213
sbag0
(g13
g2
Ntp8502
Rp8503
(dp8504
g17
I3
sg18
g19
(g23
S'\x00\x00\x00\x00\x00\x00\x00\x00'
p8505
tp8506
Rp8507
sg11
(lp8508
g0
(g37
g2
Ntp8509
Rp8510
(dp8511
g41
g19
(g44
S'\x00\x00\x00\x00\x00\x98\x8c@'
p8512
tp8513
Rp8514
sbasg50
g51
sg52
g213
sbasg50
g51
sg52
g53
sbag0
(g13
g2
Ntp8515
Rp8516
(dp8517
g17
I2
sg18
g19
(g23
S'\x0f\x00\x00\x00\x00\x00\x00\x00'
p8518
tp8519
Rp8520
sg11
(lp8521
g0
(g37
g2
Ntp8522
Rp8523
(dp8524
g41
g19
(g44
S'\x00\x00\x00\x00\x00\x90\x81@'
p8525
tp8526
Rp8527
sbasg50
g51
sg52
g53
sbag0
(g13
g2
Ntp8528
Rp8529
(dp8530
g17
I2
sg18
g19
(g23
S'\x07\x00\x00\x00\x00\x00\x00\x00'
p8531
tp8532
Rp8533
sg11
(lp8534
g0
(g37
g2
Ntp8535
Rp8536
(dp8537
g41
g19
(g44
S'\x00\x00\x00\x00\x00\x10{@'
p8538
tp8539
Rp8540
sbasg50
g51
sg52
g53
sbag0
(g13
g2
Ntp8541
Rp8542
(dp8543
g17
I2
sg18
g19
(g23
S'\t\x00\x00\x00\x00\x00\x00\x00'
p8544
tp8545
Rp8546
sg11
(lp8547
g0
(g13
g2
Ntp8548
Rp8549
(dp8550
g17
I3
sg18
g19
(g23
S'\x02\x00\x00\x00\x00\x00\x00\x00'
p8551
tp8552
Rp8553
sg11
(lp8554
g0
(g37
g2
Ntp8555
Rp8556
(dp8557
g41
g19
(g44
S'\x00\x00\x00\x00\x00\xb0\x8e@'
p8558
tp8559
Rp8560
sbasg50
g51
sg52
g213
sbag0
(g13
g2
Ntp8561
Rp8562
(dp8563
g17
I3
sg18
g19
(g23
S'\x01\x00\x00\x00\x00\x00\x00\x00'
p8564
tp8565
Rp8566
sg11
(lp8567
g0
(g37
g2
Ntp8568
Rp8569
(dp8570
g41
g19
(g44
S'\x00\x00\x00\x00\x00H\x85@'
p8571
tp8572
Rp8573
sbasg50
g51
sg52
g213
sbasg50
g51
sg52
g53
sbag0
(g13
g2
Ntp8574
Rp8575
(dp8576
g17
I2
sg18
g19
(g23
S'\x10\x00\x00\x00\x00\x00\x00\x00'
p8577
tp8578
Rp8579
sg11
(lp8580
g0
(g37
g2
Ntp8581
Rp8582
(dp8583
g41
g19
(g44
S'\x00\x00\x00\x00\x00X\x85@'
p8584
tp8585
Rp8586
sbasg50
g51
sg52
g53
sbag0
(g13
g2
Ntp8587
Rp8588
(dp8589
g17
I2
sg18
g19
(g23
S'\x0c\x00\x00\x00\x00\x00\x00\x00'
p8590
tp8591
Rp8592
sg11
(lp8593
g0
(g37
g2
Ntp8594
Rp8595
(dp8596
g41
g19
(g44
S'\x00\x00\x00\x00\x00@Z@'
p8597
tp8598
Rp8599
sbasg50
g51
sg52
g53
sbasg50
g51
sg52
g158
sbag0
(g13
g2
Ntp8600
Rp8601
(dp8602
g17
I1
sg18
g19
(g23
S'"\x00\x00\x00\x00\x00\x00\x00'
p8603
tp8604
Rp8605
sg11
(lp8606
g0
(g13
g2
Ntp8607
Rp8608
(dp8609
g17
I2
sg18
g19
(g23
S'\x02\x00\x00\x00\x00\x00\x00\x00'
p8610
tp8611
Rp8612
sg11
(lp8613
g0
(g37
g2
Ntp8614
Rp8615
(dp8616
g41
g19
(g44
S'\x00\x00\x00\x00\x00\xc0r@'
p8617
tp8618
Rp8619
sbasg50
g51
sg52
g213
sbag0
(g13
g2
Ntp8620
Rp8621
(dp8622
g17
I2
sg18
g19
(g23
S'\x05\x00\x00\x00\x00\x00\x00\x00'
p8623
tp8624
Rp8625
sg11
(lp8626
g0
(g37
g2
Ntp8627
Rp8628
(dp8629
g41
g19
(g44
S'\x00\x00\x00\x00\x00\xc0v@'
p8630
tp8631
Rp8632
sbasg50
g51
sg52
g213
sbag0
(g13
g2
Ntp8633
Rp8634
(dp8635
g17
I2
sg18
g19
(g23
S'\x04\x00\x00\x00\x00\x00\x00\x00'
p8636
tp8637
Rp8638
sg11
(lp8639
g0
(g37
g2
Ntp8640
Rp8641
(dp8642
g41
g19
(g44
S'\x00\x00\x00\x00\x00\x90\x88@'
p8643
tp8644
Rp8645
sbasg50
g51
sg52
g213
sbag0
(g13
g2
Ntp8646
Rp8647
(dp8648
g17
I2
sg18
g19
(g23
S'\x06\x00\x00\x00\x00\x00\x00\x00'
p8649
tp8650
Rp8651
sg11
(lp8652
g0
(g37
g2
Ntp8653
Rp8654
(dp8655
g41
g19
(g44
S'\x00\x00\x00\x00\x00\xec\x92@'
p8656
tp8657
Rp8658
sbasg50
g51
sg52
g213
sbasg50
g51
sg52
g158
sbag0
(g13
g2
Ntp8659
Rp8660
(dp8661
g17
I1
sg18
g19
(g23
S'\t\x00\x00\x00\x00\x00\x00\x00'
p8662
tp8663
Rp8664
sg11
(lp8665
g0
(g13
g2
Ntp8666
Rp8667
(dp8668
g17
I2
sg18
g19
(g23
S'\x03\x00\x00\x00\x00\x00\x00\x00'
p8669
tp8670
Rp8671
sg11
(lp8672
g0
(g37
g2
Ntp8673
Rp8674
(dp8675
g41
g19
(g44
S'\x00\x00\x00\x00\x00\xe0\x89@'
p8676
tp8677
Rp8678
sbasg50
g51
sg52
g213
sbag0
(g13
g2
Ntp8679
Rp8680
(dp8681
g17
I2
sg18
g19
(g23
S'\x00\x00\x00\x00\x00\x00\x00\x00'
p8682
tp8683
Rp8684
sg11
(lp8685
g0
(g37
g2
Ntp8686
Rp8687
(dp8688
g41
g19
(g44
S'\x00\x00\x00\x00\x00@\x89@'
p8689
tp8690
Rp8691
sbasg50
g51
sg52
g213
sbasg50
g51
sg52
g158
sbag0
(g37
g2
Ntp8692
Rp8693
(dp8694
g41
g19
(g44
S'\xd1"\xdb\xf9~>\x89@'
p8695
tp8696
Rp8697
sbag0
(g13
g2
Ntp8698
Rp8699
(dp8700
g17
I1
sg18
g19
(g23
S'\x1d\x00\x00\x00\x00\x00\x00\x00'
p8701
tp8702
Rp8703
sg11
(lp8704
g0
(g13
g2
Ntp8705
Rp8706
(dp8707
g17
I2
sg18
g19
(g23
S'\x0b\x00\x00\x00\x00\x00\x00\x00'
p8708
tp8709
Rp8710
sg11
(lp8711
g0
(g37
g2
Ntp8712
Rp8713
(dp8714
g41
g19
(g44
S'\x00\x00\x00\x00\x00\x80o@'
p8715
tp8716
Rp8717
sbasg50
g51
sg52
g179
sbag0
(g13
g2
Ntp8718
Rp8719
(dp8720
g17
I2
sg18
g19
(g23
S'\x02\x00\x00\x00\x00\x00\x00\x00'
p8721
tp8722
Rp8723
sg11
(lp8724
g0
(g37
g2
Ntp8725
Rp8726
(dp8727
g41
g19
(g44
S'\x00\x00\x00\x00\x00\xd8\x82@'
p8728
tp8729
Rp8730
sbasg50
g51
sg52
g179
sbasg50
g51
sg52
g158
sbag0
(g37
g2
Ntp8731
Rp8732
(dp8733
g41
g19
(g44
S'\xd1"\xdb\xf9~>\x89@'
p8734
tp8735
Rp8736
sbag0
(g13
g2
Ntp8737
Rp8738
(dp8739
g17
I1
sg18
g19
(g23
S'\x1f\x00\x00\x00\x00\x00\x00\x00'
p8740
tp8741
Rp8742
sg11
(lp8743
g0
(g13
g2
Ntp8744
Rp8745
(dp8746
g17
I2
sg18
g19
(g23
S'\x01\x00\x00\x00\x00\x00\x00\x00'
p8747
tp8748
Rp8749
sg11
(lp8750
g0
(g37
g2
Ntp8751
Rp8752
(dp8753
g41
g19
(g44
S'\x00\x00\x00\x00\x00\x00i@'
p8754
tp8755
Rp8756
sbasg50
g51
sg52
g213
sbag0
(g13
g2
Ntp8757
Rp8758
(dp8759
g17
I2
sg18
g19
(g23
S'\x05\x00\x00\x00\x00\x00\x00\x00'
p8760
tp8761
Rp8762
sg11
(lp8763
g0
(g37
g2
Ntp8764
Rp8765
(dp8766
g41
g19
(g44
S'\x00\x00\x00\x00\x00 j@'
p8767
tp8768
Rp8769
sbasg50
g51
sg52
g213
sbasg50
g51
sg52
g158
sbag0
(g37
g2
Ntp8770
Rp8771
(dp8772
g41
g19
(g44
S'\xd1"\xdb\xf9~>\x89@'
p8773
tp8774
Rp8775
sbag0
(g37
g2
Ntp8776
Rp8777
(dp8778
g41
g19
(g44
S'\xd1"\xdb\xf9~>\x89@'
p8779
tp8780
Rp8781
sbag0
(g13
g2
Ntp8782
Rp8783
(dp8784
g17
I1
sg18
g19
(g23
S' \x00\x00\x00\x00\x00\x00\x00'
p8785
tp8786
Rp8787
sg11
(lp8788
g0
(g13
g2
Ntp8789
Rp8790
(dp8791
g17
I2
sg18
g19
(g23
S'\x08\x00\x00\x00\x00\x00\x00\x00'
p8792
tp8793
Rp8794
sg11
(lp8795
g0
(g37
g2
Ntp8796
Rp8797
(dp8798
g41
g19
(g44
S'\x00\x00\x00\x00@\x88\xd7@'
p8799
tp8800
Rp8801
sbasg50
g51
sg52
g179
sbag0
(g13
g2
Ntp8802
Rp8803
(dp8804
g17
I2
sg18
g19
(g23
S'\t\x00\x00\x00\x00\x00\x00\x00'
p8805
tp8806
Rp8807
sg11
(lp8808
g0
(g37
g2
Ntp8809
Rp8810
(dp8811
g41
g19
(g44
S'\x00\x00\x00\x00\x000p@'
p8812
tp8813
Rp8814
sbasg50
g51
sg52
g179
sbag0
(g13
g2
Ntp8815
Rp8816
(dp8817
g17
I2
sg18
g19
(g23
S'\x04\x00\x00\x00\x00\x00\x00\x00'
p8818
tp8819
Rp8820
sg11
(lp8821
g0
(g37
g2
Ntp8822
Rp8823
(dp8824
g41
g19
(g44
S'\x00\x00\x00\x00\x00 t@'
p8825
tp8826
Rp8827
sbasg50
g51
sg52
g179
sbasg50
g51
sg52
g158
sbag0
(g37
g2
Ntp8828
Rp8829
(dp8830
g41
g19
(g44
S'\xd1"\xdb\xf9~>\x89@'
p8831
tp8832
Rp8833
sbasg50
g51
sg52
g158
sbsb.