ccopy_reg
_reconstructor
p0
(cclasses
Tree
p1
c__builtin__
object
p2
Ntp3
Rp4
(dp5
S'root'
p6
g0
(cclasses
Root
p7
g2
Ntp8
Rp9
(dp10
S'nodes'
p11
(lp12
g0
(cclasses
Node
p13
g2
Ntp14
Rp15
(dp16
S'depth'
p17
I1
sS'value_condition'
p18
cnumpy.core.multiarray
scalar
p19
(cnumpy
dtype
p20
(S'i8'
p21
I0
I1
tp22
Rp23
(I3
S'<'
p24
NNNI-1
I-1
I0
tp25
bS'\x02\x00\x00\x00\x00\x00\x00\x00'
p26
tp27
Rp28
sg11
(lp29
g0
(g13
g2
Ntp30
Rp31
(dp32
g17
I2
sg18
g19
(g23
S'\x0c\x00\x00\x00\x00\x00\x00\x00'
p33
tp34
Rp35
sg11
(lp36
g0
(cclasses
Leaf
p37
g2
Ntp38
Rp39
(dp40
S'value'
p41
g19
(g20
(S'f8'
p42
I0
I1
tp43
Rp44
(I3
S'<'
p45
NNNI-1
I-1
I0
tp46
bS'\x83)\xf2Y7\xeb\xa6@'
p47
tp48
Rp49
sbasS'target'
p50
S'duration'
p51
sS'feature'
p52
S'start_date_hour'
p53
sbag0
(g13
g2
Ntp54
Rp55
(dp56
g17
I2
sg18
g19
(g23
S'\x15\x00\x00\x00\x00\x00\x00\x00'
p57
tp58
Rp59
sg11
(lp60
g0
(g37
g2
Ntp61
Rp62
(dp63
g41
g19
(g44
S'\x18\x86a\x18\x86\xee\xb2@'
p64
tp65
Rp66
sbasg50
g51
sg52
g53
sbag0
(g13
g2
Ntp67
Rp68
(dp69
g17
I2
sg18
g19
(g23
S'\x0b\x00\x00\x00\x00\x00\x00\x00'
p70
tp71
Rp72
sg11
(lp73
g0
(g37
g2
Ntp74
Rp75
(dp76
g41
g19
(g44
S'\x1f\x85\xebQ\xb8\xaf\xb5@'
p77
tp78
Rp79
sbasg50
g51
sg52
g53
sbag0
(g13
g2
Ntp80
Rp81
(dp82
g17
I2
sg18
g19
(g23
S'\t\x00\x00\x00\x00\x00\x00\x00'
p83
tp84
Rp85
sg11
(lp86
g0
(g37
g2
Ntp87
Rp88
(dp89
g41
g19
(g44
S'\xe4\xb3n0E\xde\xa3@'
p90
tp91
Rp92
sbasg50
g51
sg52
g53
sbag0
(g13
g2
Ntp93
Rp94
(dp95
g17
I2
sg18
g19
(g23
S'\x01\x00\x00\x00\x00\x00\x00\x00'
p96
tp97
Rp98
sg11
(lp99
g0
(g37
g2
Ntp100
Rp101
(dp102
g41
g19
(g44
S'\xdb\xb6m\xdb\xb6\xf5\x90@'
p103
tp104
Rp105
sbasg50
g51
sg52
g53
sbag0
(g13
g2
Ntp106
Rp107
(dp108
g17
I2
sg18
g19
(g23
S'\x0f\x00\x00\x00\x00\x00\x00\x00'
p109
tp110
Rp111
sg11
(lp112
g0
(g37
g2
Ntp113
Rp114
(dp115
g41
g19
(g44
S'dp>\x06\xe7&\xa5@'
p116
tp117
Rp118
sbasg50
g51
sg52
g53
sbag0
(g13
g2
Ntp119
Rp120
(dp121
g17
I2
sg18
g19
(g23
S'\x11\x00\x00\x00\x00\x00\x00\x00'
p122
tp123
Rp124
sg11
(lp125
g0
(g37
g2
Ntp126
Rp127
(dp128
g41
g19
(g44
S'Wj\xa5Vj\xd3\xa3@'
p129
tp130
Rp131
sbasg50
g51
sg52
g53
sbag0
(g13
g2
Ntp132
Rp133
(dp134
g17
I2
sg18
g19
(g23
S'\x05\x00\x00\x00\x00\x00\x00\x00'
p135
tp136
Rp137
sg11
(lp138
g0
(g37
g2
Ntp139
Rp140
(dp141
g41
g19
(g44
S'\xab\xaa\xaa\xaa\xaah\x99@'
p142
tp143
Rp144
sbasg50
g51
sg52
g53
sbag0
(g13
g2
Ntp145
Rp146
(dp147
g17
I2
sg18
g19
(g23
S'\x16\x00\x00\x00\x00\x00\x00\x00'
p148
tp149
Rp150
sg11
(lp151
g0
(g37
g2
Ntp152
Rp153
(dp154
g41
g19
(g44
S'UUUU\xd5\x86\xab@'
p155
tp156
Rp157
sbasg50
g51
sg52
g53
sbag0
(g13
g2
Ntp158
Rp159
(dp160
g17
I2
sg18
g19
(g23
S'\x0e\x00\x00\x00\x00\x00\x00\x00'
p161
tp162
Rp163
sg11
(lp164
g0
(g37
g2
Ntp165
Rp166
(dp167
g41
g19
(g44
S'\x1b\xcak(/B\xac@'
p168
tp169
Rp170
sbasg50
g51
sg52
g53
sbag0
(g13
g2
Ntp171
Rp172
(dp173
g17
I2
sg18
g19
(g23
S'\x12\x00\x00\x00\x00\x00\x00\x00'
p174
tp175
Rp176
sg11
(lp177
g0
(g37
g2
Ntp178
Rp179
(dp180
g41
g19
(g44
S'8\xbd\xe9Mo\x82\x9d@'
p181
tp182
Rp183
sbasg50
g51
sg52
g53
sbag0
(g13
g2
Ntp184
Rp185
(dp186
g17
I2
sg18
g19
(g23
S'\x10\x00\x00\x00\x00\x00\x00\x00'
p187
tp188
Rp189
sg11
(lp190
g0
(g37
g2
Ntp191
Rp192
(dp193
g41
g19
(g44
S'\xd5\xf9\xb5\x87\\\x8c\xa7@'
p194
tp195
Rp196
sbasg50
g51
sg52
g53
sbag0
(g13
g2
Ntp197
Rp198
(dp199
g17
I2
sg18
g19
(g23
S'\x14\x00\x00\x00\x00\x00\x00\x00'
p200
tp201
Rp202
sg11
(lp203
g0
(g37
g2
Ntp204
Rp205
(dp206
g41
g19
(g44
S'I\x92$I\x92\x06\xa5@'
p207
tp208
Rp209
sbasg50
g51
sg52
g53
sbag0
(g13
g2
Ntp210
Rp211
(dp212
g17
I2
sg18
g19
(g23
S'\x08\x00\x00\x00\x00\x00\x00\x00'
p213
tp214
Rp215
sg11
(lp216
g0
(g37
g2
Ntp217
Rp218
(dp219
g41
g19
(g44
S'\xdb\xb6m\xdb\xb6\x17\xa9@'
p220
tp221
Rp222
sbasg50
g51
sg52
g53
sbag0
(g13
g2
Ntp223
Rp224
(dp225
g17
I2
sg18
g19
(g23
S'\x07\x00\x00\x00\x00\x00\x00\x00'
p226
tp227
Rp228
sg11
(lp229
g0
(g37
g2
Ntp230
Rp231
(dp232
g41
g19
(g44
S'\xe8y\x9e\xe7y\x86\x9c@'
p233
tp234
Rp235
sbasg50
g51
sg52
g53
sbag0
(g13
g2
Ntp236
Rp237
(dp238
g17
I2
sg18
g19
(g23
S'\x13\x00\x00\x00\x00\x00\x00\x00'
p239
tp240
Rp241
sg11
(lp242
g0
(g37
g2
Ntp243
Rp244
(dp245
g41
g19
(g44
S'\xad\xb5\xd6Zk?\xab@'
p246
tp247
Rp248
sbasg50
g51
sg52
g53
sbag0
(g13
g2
Ntp249
Rp250
(dp251
g17
I2
sg18
g19
(g23
S'\r\x00\x00\x00\x00\x00\x00\x00'
p252
tp253
Rp254
sg11
(lp255
g0
(g37
g2
Ntp256
Rp257
(dp258
g41
g19
(g44
S'\xd4A\x1d\xd4AD\xa2@'
p259
tp260
Rp261
sbasg50
g51
sg52
g53
sbag0
(g13
g2
Ntp262
Rp263
(dp264
g17
I2
sg18
g19
(g23
S'\x17\x00\x00\x00\x00\x00\x00\x00'
p265
tp266
Rp267
sg11
(lp268
g0
(g37
g2
Ntp269
Rp270
(dp271
g41
g19
(g44
S'UUUUU\xdd\x96@'
p272
tp273
Rp274
sbasg50
g51
sg52
g53
sbag0
(g13
g2
Ntp275
Rp276
(dp277
g17
I2
sg18
g19
(g23
S'\n\x00\x00\x00\x00\x00\x00\x00'
p278
tp279
Rp280
sg11
(lp281
g0
(g37
g2
Ntp282
Rp283
(dp284
g41
g19
(g44
S'\x1b\xcak(/\xd5\xb7@'
p285
tp286
Rp287
sbasg50
g51
sg52
g53
sbag0
(g13
g2
Ntp288
Rp289
(dp290
g17
I2
sg18
g19
(g23
S'\x00\x00\x00\x00\x00\x00\x00\x00'
p291
tp292
Rp293
sg11
(lp294
g0
(g37
g2
Ntp295
Rp296
(dp297
g41
g19
(g44
S'%I\x92$I@\xb8@'
p298
tp299
Rp300
sbasg50
g51
sg52
g53
sbag0
(g13
g2
Ntp301
Rp302
(dp303
g17
I2
sg18
g19
(g23
S'\x03\x00\x00\x00\x00\x00\x00\x00'
p304
tp305
Rp306
sg11
(lp307
g0
(g37
g2
Ntp308
Rp309
(dp310
g41
g19
(g44
S'\x00\x00\x00\x00\x00\x08\x94@'
p311
tp312
Rp313
sbasg50
g51
sg52
g53
sbag0
(g13
g2
Ntp314
Rp315
(dp316
g17
I2
sg18
g19
(g23
S'\x06\x00\x00\x00\x00\x00\x00\x00'
p317
tp318
Rp319
sg11
(lp320
g0
(g37
g2
Ntp321
Rp322
(dp323
g41
g19
(g44
S'\x00\x00\x00\x00\x00p\x9d@'
p324
tp325
Rp326
sbasg50
g51
sg52
g53
sbag0
(g13
g2
Ntp327
Rp328
(dp329
g17
I2
sg18
g19
(g23
S'\x04\x00\x00\x00\x00\x00\x00\x00'
p330
tp331
Rp332
sg11
(lp333
g0
(g37
g2
Ntp334
Rp335
(dp336
g41
g19
(g44
S'\x00\x00\x00\x00\xc0\x80\xc0@'
p337
tp338
Rp339
sbasg50
g51
sg52
g53
sbag0
(g13
g2
Ntp340
Rp341
(dp342
g17
I2
sg18
g19
(g23
S'\x02\x00\x00\x00\x00\x00\x00\x00'
p343
tp344
Rp345
sg11
(lp346
g0
(g37
g2
Ntp347
Rp348
(dp349
g41
g19
(g44
S'\x00\x00\x00\x00\x00\xdc\x8a@'
p350
tp351
Rp352
sbasg50
g51
sg52
g53
sbasg50
g51
sg52
S'subscription_type'
p353
sbag0
(g13
g2
Ntp354
Rp355
(dp356
g17
I1
sg18
g19
(g23
S'\x01\x00\x00\x00\x00\x00\x00\x00'
p357
tp358
Rp359
sg11
(lp360
g0
(g13
g2
Ntp361
Rp362
(dp363
g17
I2
sg18
g19
(g23
S'\x08\x00\x00\x00\x00\x00\x00\x00'
p364
tp365
Rp366
sg11
(lp367
g0
(g37
g2
Ntp368
Rp369
(dp370
g41
g19
(g44
S'\xe3r4.Gs\x7f@'
p371
tp372
Rp373
sbasg50
g51
sg52
g53
sbag0
(g13
g2
Ntp374
Rp375
(dp376
g17
I2
sg18
g19
(g23
S'\x0f\x00\x00\x00\x00\x00\x00\x00'
p377
tp378
Rp379
sg11
(lp380
g0
(g37
g2
Ntp381
Rp382
(dp383
g41
g19
(g44
S' \x16)\x03O\xdb\x81@'
p384
tp385
Rp386
sbasg50
g51
sg52
g53
sbag0
(g13
g2
Ntp387
Rp388
(dp389
g17
I2
sg18
g19
(g23
S'\x10\x00\x00\x00\x00\x00\x00\x00'
p390
tp391
Rp392
sg11
(lp393
g0
(g37
g2
Ntp394
Rp395
(dp396
g41
g19
(g44
S"8'OG\x04\xee\x86@"
p397
tp398
Rp399
sbasg50
g51
sg52
g53
sbag0
(g13
g2
Ntp400
Rp401
(dp402
g17
I2
sg18
g19
(g23
S'\r\x00\x00\x00\x00\x00\x00\x00'
p403
tp404
Rp405
sg11
(lp406
g0
(g37
g2
Ntp407
Rp408
(dp409
g41
g19
(g44
S'\xb4\xdaY\xed\xac\xfe\x80@'
p410
tp411
Rp412
sbasg50
g51
sg52
g53
sbag0
(g13
g2
Ntp413
Rp414
(dp415
g17
I2
sg18
g19
(g23
S'\x12\x00\x00\x00\x00\x00\x00\x00'
p416
tp417
Rp418
sg11
(lp419
g0
(g37
g2
Ntp420
Rp421
(dp422
g41
g19
(g44
S'\x18\r\xb4\xeb\xa8\xca\x80@'
p423
tp424
Rp425
sbasg50
g51
sg52
g53
sbag0
(g13
g2
Ntp426
Rp427
(dp428
g17
I2
sg18
g19
(g23
S'\x0b\x00\x00\x00\x00\x00\x00\x00'
p429
tp430
Rp431
sg11
(lp432
g0
(g37
g2
Ntp433
Rp434
(dp435
g41
g19
(g44
S')\xd9\xb5\x89\x92\xc5\x81@'
p436
tp437
Rp438
sbasg50
g51
sg52
g53
sbag0
(g13
g2
Ntp439
Rp440
(dp441
g17
I2
sg18
g19
(g23
S'\t\x00\x00\x00\x00\x00\x00\x00'
p442
tp443
Rp444
sg11
(lp445
g0
(g37
g2
Ntp446
Rp447
(dp448
g41
g19
(g44
S'E\xbd\x8c\xc4j8\x81@'
p449
tp450
Rp451
sbasg50
g51
sg52
g53
sbag0
(g13
g2
Ntp452
Rp453
(dp454
g17
I2
sg18
g19
(g23
S'\x06\x00\x00\x00\x00\x00\x00\x00'
p455
tp456
Rp457
sg11
(lp458
g0
(g37
g2
Ntp459
Rp460
(dp461
g41
g19
(g44
S'l(\xaf\xa1\xbcn\x7f@'
p462
tp463
Rp464
sbasg50
g51
sg52
g53
sbag0
(g13
g2
Ntp465
Rp466
(dp467
g17
I2
sg18
g19
(g23
S'\x11\x00\x00\x00\x00\x00\x00\x00'
p468
tp469
Rp470
sg11
(lp471
g0
(g37
g2
Ntp472
Rp473
(dp474
g41
g19
(g44
S'\xe2\xdc\rm\xe2O\x81@'
p475
tp476
Rp477
sbasg50
g51
sg52
g53
sbag0
(g13
g2
Ntp478
Rp479
(dp480
g17
I2
sg18
g19
(g23
S'\x07\x00\x00\x00\x00\x00\x00\x00'
p481
tp482
Rp483
sg11
(lp484
g0
(g37
g2
Ntp485
Rp486
(dp487
g41
g19
(g44
S"\xe5'\xc4Y\xf9\x1f\x81@"
p488
tp489
Rp490
sbasg50
g51
sg52
g53
sbag0
(g13
g2
Ntp491
Rp492
(dp493
g17
I2
sg18
g19
(g23
S'\x15\x00\x00\x00\x00\x00\x00\x00'
p494
tp495
Rp496
sg11
(lp497
g0
(g37
g2
Ntp498
Rp499
(dp500
g41
g19
(g44
S'\xf3\xc3"e\xe0\xa9\x7f@'
p501
tp502
Rp503
sbasg50
g51
sg52
g53
sbag0
(g13
g2
Ntp504
Rp505
(dp506
g17
I2
sg18
g19
(g23
S'\x13\x00\x00\x00\x00\x00\x00\x00'
p507
tp508
Rp509
sg11
(lp510
g0
(g37
g2
Ntp511
Rp512
(dp513
g41
g19
(g44
S'\x8d\x8c\x8c\x8c\x8c\x88~@'
p514
tp515
Rp516
sbasg50
g51
sg52
g53
sbag0
(g13
g2
Ntp517
Rp518
(dp519
g17
I2
sg18
g19
(g23
S'\x0c\x00\x00\x00\x00\x00\x00\x00'
p520
tp521
Rp522
sg11
(lp523
g0
(g37
g2
Ntp524
Rp525
(dp526
g41
g19
(g44
S'\x86,d!\x0b\xb4\x82@'
p527
tp528
Rp529
sbasg50
g51
sg52
g53
sbag0
(g13
g2
Ntp530
Rp531
(dp532
g17
I2
sg18
g19
(g23
S'\n\x00\x00\x00\x00\x00\x00\x00'
p533
tp534
Rp535
sg11
(lp536
g0
(g37
g2
Ntp537
Rp538
(dp539
g41
g19
(g44
S'\xd1\xda}\xb8\x05d\x7f@'
p540
tp541
Rp542
sbasg50
g51
sg52
g53
sbag0
(g13
g2
Ntp543
Rp544
(dp545
g17
I2
sg18
g19
(g23
S'\x05\x00\x00\x00\x00\x00\x00\x00'
p546
tp547
Rp548
sg11
(lp549
g0
(g37
g2
Ntp550
Rp551
(dp552
g41
g19
(g44
S'\x19c\x8c1\xc6h{@'
p553
tp554
Rp555
sbasg50
g51
sg52
g53
sbag0
(g13
g2
Ntp556
Rp557
(dp558
g17
I2
sg18
g19
(g23
S'\x17\x00\x00\x00\x00\x00\x00\x00'
p559
tp560
Rp561
sg11
(lp562
g0
(g37
g2
Ntp563
Rp564
(dp565
g41
g19
(g44
S'\xeaMoz\xd3[x@'
p566
tp567
Rp568
sbasg50
g51
sg52
g53
sbag0
(g13
g2
Ntp569
Rp570
(dp571
g17
I2
sg18
g19
(g23
S'\x0e\x00\x00\x00\x00\x00\x00\x00'
p572
tp573
Rp574
sg11
(lp575
g0
(g37
g2
Ntp576
Rp577
(dp578
g41
g19
(g44
S'\xf8\xe0\x83\x0f>\xfe\x81@'
p579
tp580
Rp581
sbasg50
g51
sg52
g53
sbag0
(g13
g2
Ntp582
Rp583
(dp584
g17
I2
sg18
g19
(g23
S'\x14\x00\x00\x00\x00\x00\x00\x00'
p585
tp586
Rp587
sg11
(lp588
g0
(g37
g2
Ntp589
Rp590
(dp591
g41
g19
(g44
S'S\x9b\xda\xd4\xa66}@'
p592
tp593
Rp594
sbasg50
g51
sg52
g53
sbag0
(g13
g2
Ntp595
Rp596
(dp597
g17
I2
sg18
g19
(g23
S'\x16\x00\x00\x00\x00\x00\x00\x00'
p598
tp599
Rp600
sg11
(lp601
g0
(g37
g2
Ntp602
Rp603
(dp604
g41
g19
(g44
S'\xdf\xd9\xa8\xeflt\x92@'
p605
tp606
Rp607
sbasg50
g51
sg52
g53
sbag0
(g13
g2
Ntp608
Rp609
(dp610
g17
I2
sg18
g19
(g23
S'\x04\x00\x00\x00\x00\x00\x00\x00'
p611
tp612
Rp613
sg11
(lp614
g0
(g37
g2
Ntp615
Rp616
(dp617
g41
g19
(g44
S'\x00\x00\x00\x00\x00\xa0\\@'
p618
tp619
Rp620
sbasg50
g51
sg52
g53
sbag0
(g13
g2
Ntp621
Rp622
(dp623
g17
I2
sg18
g19
(g23
S'\x03\x00\x00\x00\x00\x00\x00\x00'
p624
tp625
Rp626
sg11
(lp627
g0
(g37
g2
Ntp628
Rp629
(dp630
g41
g19
(g44
S'\x00\x00\x00\x00\x00X\x80@'
p631
tp632
Rp633
sbasg50
g51
sg52
g53
sbag0
(g13
g2
Ntp634
Rp635
(dp636
g17
I2
sg18
g19
(g23
S'\x00\x00\x00\x00\x00\x00\x00\x00'
p637
tp638
Rp639
sg11
(lp640
g0
(g37
g2
Ntp641
Rp642
(dp643
g41
g19
(g44
S'\x00\x00\x00\x00\x00\xc4\x81@'
p644
tp645
Rp646
sbasg50
g51
sg52
g53
sbag0
(g13
g2
Ntp647
Rp648
(dp649
g17
I2
sg18
g19
(g23
S'\x01\x00\x00\x00\x00\x00\x00\x00'
p650
tp651
Rp652
sg11
(lp653
g0
(g37
g2
Ntp654
Rp655
(dp656
g41
g19
(g44
S'\x00\x00\x00\x00\x00X}@'
p657
tp658
Rp659
sbasg50
g51
sg52
g53
sbag0
(g13
g2
Ntp660
Rp661
(dp662
g17
I2
sg18
g19
(g23
S'\x02\x00\x00\x00\x00\x00\x00\x00'
p663
tp664
Rp665
sg11
(lp666
g0
(g37
g2
Ntp667
Rp668
(dp669
g41
g19
(g44
S'\x00\x00\x00\x00\x00\xc0|@'
p670
tp671
Rp672
sbasg50
g51
sg52
g53
sbasg50
g51
sg52
g353
sbasg50
g51
sg52
g353
sbsb.