ccopy_reg
_reconstructor
p0
(cclasses
Tree
p1
c__builtin__
object
p2
Ntp3
Rp4
(dp5
S'root'
p6
g0
(cclasses
Root
p7
g2
Ntp8
Rp9
(dp10
S'nodes'
p11
(lp12
g0
(cclasses
Leaf
p13
g2
Ntp14
Rp15
(dp16
S'value'
p17
cnumpy.core.multiarray
scalar
p18
(cnumpy
dtype
p19
(S'f8'
p20
I0
I1
tp21
Rp22
(I3
S'<'
p23
NNNI-1
I-1
I0
tp24
bS'\xcd\xcc\xcc\xcc\xcc,\x8e@'
p25
tp26
Rp27
sbag0
(g13
g2
Ntp28
Rp29
(dp30
g17
g18
(g22
S'\xcd\xcc\xcc\xcc\xcc,\x8e@'
p31
tp32
Rp33
sbag0
(g13
g2
Ntp34
Rp35
(dp36
g17
g18
(g22
S'\xcd\xcc\xcc\xcc\xcc,\x8e@'
p37
tp38
Rp39
sbag0
(g13
g2
Ntp40
Rp41
(dp42
g17
g18
(g22
S'\xcd\xcc\xcc\xcc\xcc,\x8e@'
p43
tp44
Rp45
sbag0
(g13
g2
Ntp46
Rp47
(dp48
g17
g18
(g22
S'\xcd\xcc\xcc\xcc\xcc,\x8e@'
p49
tp50
Rp51
sbag0
(g13
g2
Ntp52
Rp53
(dp54
g17
g18
(g22
S'\xcd\xcc\xcc\xcc\xcc,\x8e@'
p55
tp56
Rp57
sbag0
(g13
g2
Ntp58
Rp59
(dp60
g17
g18
(g22
S'\xcd\xcc\xcc\xcc\xcc,\x8e@'
p61
tp62
Rp63
sbag0
(g13
g2
Ntp64
Rp65
(dp66
g17
g18
(g22
S'\xcd\xcc\xcc\xcc\xcc,\x8e@'
p67
tp68
Rp69
sbag0
(g13
g2
Ntp70
Rp71
(dp72
g17
g18
(g22
S'\xcd\xcc\xcc\xcc\xcc,\x8e@'
p73
tp74
Rp75
sbag0
(g13
g2
Ntp76
Rp77
(dp78
g17
g18
(g22
S'\xcd\xcc\xcc\xcc\xcc,\x8e@'
p79
tp80
Rp81
sbag0
(g13
g2
Ntp82
Rp83
(dp84
g17
g18
(g22
S'\xcd\xcc\xcc\xcc\xcc,\x8e@'
p85
tp86
Rp87
sbag0
(g13
g2
Ntp88
Rp89
(dp90
g17
g18
(g22
S'\xcd\xcc\xcc\xcc\xcc,\x8e@'
p91
tp92
Rp93
sbag0
(g13
g2
Ntp94
Rp95
(dp96
g17
g18
(g22
S'\xcd\xcc\xcc\xcc\xcc,\x8e@'
p97
tp98
Rp99
sbag0
(g13
g2
Ntp100
Rp101
(dp102
g17
g18
(g22
S'\xcd\xcc\xcc\xcc\xcc,\x8e@'
p103
tp104
Rp105
sbag0
(g13
g2
Ntp106
Rp107
(dp108
g17
g18
(g22
S'\xcd\xcc\xcc\xcc\xcc,\x8e@'
p109
tp110
Rp111
sbag0
(g13
g2
Ntp112
Rp113
(dp114
g17
g18
(g22
S'\xcd\xcc\xcc\xcc\xcc,\x8e@'
p115
tp116
Rp117
sbag0
(g13
g2
Ntp118
Rp119
(dp120
g17
g18
(g22
S'\xcd\xcc\xcc\xcc\xcc,\x8e@'
p121
tp122
Rp123
sbag0
(g13
g2
Ntp124
Rp125
(dp126
g17
g18
(g22
S'\xcd\xcc\xcc\xcc\xcc,\x8e@'
p127
tp128
Rp129
sbag0
(g13
g2
Ntp130
Rp131
(dp132
g17
g18
(g22
S'\xcd\xcc\xcc\xcc\xcc,\x8e@'
p133
tp134
Rp135
sbag0
(g13
g2
Ntp136
Rp137
(dp138
g17
g18
(g22
S'\xcd\xcc\xcc\xcc\xcc,\x8e@'
p139
tp140
Rp141
sbag0
(g13
g2
Ntp142
Rp143
(dp144
g17
g18
(g22
S'\xcd\xcc\xcc\xcc\xcc,\x8e@'
p145
tp146
Rp147
sbag0
(g13
g2
Ntp148
Rp149
(dp150
g17
g18
(g22
S'\xcd\xcc\xcc\xcc\xcc,\x8e@'
p151
tp152
Rp153
sbag0
(g13
g2
Ntp154
Rp155
(dp156
g17
g18
(g22
S'\xcd\xcc\xcc\xcc\xcc,\x8e@'
p157
tp158
Rp159
sbag0
(g13
g2
Ntp160
Rp161
(dp162
g17
g18
(g22
S'\xcd\xcc\xcc\xcc\xcc,\x8e@'
p163
tp164
Rp165
sbag0
(g13
g2
Ntp166
Rp167
(dp168
g17
g18
(g22
S'\xcd\xcc\xcc\xcc\xcc,\x8e@'
p169
tp170
Rp171
sbag0
(g13
g2
Ntp172
Rp173
(dp174
g17
g18
(g22
S'\xcd\xcc\xcc\xcc\xcc,\x8e@'
p175
tp176
Rp177
sbag0
(g13
g2
Ntp178
Rp179
(dp180
g17
g18
(g22
S'\xcd\xcc\xcc\xcc\xcc,\x8e@'
p181
tp182
Rp183
sbag0
(g13
g2
Ntp184
Rp185
(dp186
g17
g18
(g22
S'\xcd\xcc\xcc\xcc\xcc,\x8e@'
p187
tp188
Rp189
sbag0
(g13
g2
Ntp190
Rp191
(dp192
g17
g18
(g22
S'\xcd\xcc\xcc\xcc\xcc,\x8e@'
p193
tp194
Rp195
sbag0
(g13
g2
Ntp196
Rp197
(dp198
g17
g18
(g22
S'\xcd\xcc\xcc\xcc\xcc,\x8e@'
p199
tp200
Rp201
sbag0
(g13
g2
Ntp202
Rp203
(dp204
g17
g18
(g22
S'\xcd\xcc\xcc\xcc\xcc,\x8e@'
p205
tp206
Rp207
sbag0
(g13
g2
Ntp208
Rp209
(dp210
g17
g18
(g22
S'\xcd\xcc\xcc\xcc\xcc,\x8e@'
p211
tp212
Rp213
sbag0
(g13
g2
Ntp214
Rp215
(dp216
g17
g18
(g22
S'\xcd\xcc\xcc\xcc\xcc,\x8e@'
p217
tp218
Rp219
sbag0
(g13
g2
Ntp220
Rp221
(dp222
g17
g18
(g22
S'\xcd\xcc\xcc\xcc\xcc,\x8e@'
p223
tp224
Rp225
sbag0
(g13
g2
Ntp226
Rp227
(dp228
g17
g18
(g22
S'\xcd\xcc\xcc\xcc\xcc,\x8e@'
p229
tp230
Rp231
sbag0
(g13
g2
Ntp232
Rp233
(dp234
g17
g18
(g22
S'\xcd\xcc\xcc\xcc\xcc,\x8e@'
p235
tp236
Rp237
sbag0
(g13
g2
Ntp238
Rp239
(dp240
g17
g18
(g22
S'\xcd\xcc\xcc\xcc\xcc,\x8e@'
p241
tp242
Rp243
sbag0
(g13
g2
Ntp244
Rp245
(dp246
g17
g18
(g22
S'\xcd\xcc\xcc\xcc\xcc,\x8e@'
p247
tp248
Rp249
sbag0
(g13
g2
Ntp250
Rp251
(dp252
g17
g18
(g22
S'\xcd\xcc\xcc\xcc\xcc,\x8e@'
p253
tp254
Rp255
sbag0
(g13
g2
Ntp256
Rp257
(dp258
g17
g18
(g22
S'\xcd\xcc\xcc\xcc\xcc,\x8e@'
p259
tp260
Rp261
sbag0
(g13
g2
Ntp262
Rp263
(dp264
g17
g18
(g22
S'\xcd\xcc\xcc\xcc\xcc,\x8e@'
p265
tp266
Rp267
sbag0
(g13
g2
Ntp268
Rp269
(dp270
g17
g18
(g22
S'\xcd\xcc\xcc\xcc\xcc,\x8e@'
p271
tp272
Rp273
sbag0
(g13
g2
Ntp274
Rp275
(dp276
g17
g18
(g22
S'\xcd\xcc\xcc\xcc\xcc,\x8e@'
p277
tp278
Rp279
sbag0
(g13
g2
Ntp280
Rp281
(dp282
g17
g18
(g22
S'\xcd\xcc\xcc\xcc\xcc,\x8e@'
p283
tp284
Rp285
sbag0
(g13
g2
Ntp286
Rp287
(dp288
g17
g18
(g22
S'\xcd\xcc\xcc\xcc\xcc,\x8e@'
p289
tp290
Rp291
sbag0
(g13
g2
Ntp292
Rp293
(dp294
g17
g18
(g22
S'\xcd\xcc\xcc\xcc\xcc,\x8e@'
p295
tp296
Rp297
sbag0
(g13
g2
Ntp298
Rp299
(dp300
g17
g18
(g22
S'\xcd\xcc\xcc\xcc\xcc,\x8e@'
p301
tp302
Rp303
sbag0
(g13
g2
Ntp304
Rp305
(dp306
g17
g18
(g22
S'\xcd\xcc\xcc\xcc\xcc,\x8e@'
p307
tp308
Rp309
sbag0
(g13
g2
Ntp310
Rp311
(dp312
g17
g18
(g22
S'\xcd\xcc\xcc\xcc\xcc,\x8e@'
p313
tp314
Rp315
sbag0
(g13
g2
Ntp316
Rp317
(dp318
g17
g18
(g22
S'\xcd\xcc\xcc\xcc\xcc,\x8e@'
p319
tp320
Rp321
sbasS'target'
p322
S'duration'
p323
sS'feature'
p324
S'id'
p325
sbsb.