ccopy_reg
_reconstructor
p0
(cclasses
Tree
p1
c__builtin__
object
p2
Ntp3
Rp4
(dp5
S'root'
p6
g0
(cclasses
Root
p7
g2
Ntp8
Rp9
(dp10
S'nodes'
p11
(lp12
g0
(cclasses
Node
p13
g2
Ntp14
Rp15
(dp16
S'depth'
p17
I1
sS'value_condition'
p18
cnumpy.core.multiarray
scalar
p19
(cnumpy
dtype
p20
(S'i8'
p21
I0
I1
tp22
Rp23
(I3
S'<'
p24
NNNI-1
I-1
I0
tp25
bS'?\x00\x00\x00\x00\x00\x00\x00'
p26
tp27
Rp28
sg11
(lp29
g0
(g13
g2
Ntp30
Rp31
(dp32
g17
I2
sg18
g19
(g23
S'\x08\x00\x00\x00\x00\x00\x00\x00'
p33
tp34
Rp35
sg11
(lp36
g0
(g13
g2
Ntp37
Rp38
(dp39
g17
I3
sg18
g19
(g23
S'\x03\x00\x00\x00\x00\x00\x00\x00'
p40
tp41
Rp42
sg11
(lp43
g0
(cclasses
Leaf
p44
g2
Ntp45
Rp46
(dp47
S'value'
p48
g19
(g20
(S'f8'
p49
I0
I1
tp50
Rp51
(I3
S'<'
p52
NNNI-1
I-1
I0
tp53
bS'\x00\x00\x00\x00\x00`}@'
p54
tp55
Rp56
sbasS'target'
p57
S'duration'
p58
sS'feature'
p59
S'start_date_weekday'
p60
sbag0
(g13
g2
Ntp61
Rp62
(dp63
g17
I3
sg18
g19
(g23
S'\x04\x00\x00\x00\x00\x00\x00\x00'
p64
tp65
Rp66
sg11
(lp67
g0
(g44
g2
Ntp68
Rp69
(dp70
g48
g19
(g51
S'\x00\x00\x00\x00\x00H\x82@'
p71
tp72
Rp73
sbasg57
g58
sg59
g60
sbag0
(g13
g2
Ntp74
Rp75
(dp76
g17
I3
sg18
g19
(g23
S'\x00\x00\x00\x00\x00\x00\x00\x00'
p77
tp78
Rp79
sg11
(lp80
g0
(g44
g2
Ntp81
Rp82
(dp83
g48
g19
(g51
S'\x00\x00\x00\x00\x000}@'
p84
tp85
Rp86
sbasg57
g58
sg59
g60
sbasg57
g58
sg59
S'start_date_month'
p87
sbag0
(g13
g2
Ntp88
Rp89
(dp90
g17
I2
sg18
g19
(g23
S'\t\x00\x00\x00\x00\x00\x00\x00'
p91
tp92
Rp93
sg11
(lp94
g0
(g13
g2
Ntp95
Rp96
(dp97
g17
I3
sg18
g19
(g23
S'\x04\x00\x00\x00\x00\x00\x00\x00'
p98
tp99
Rp100
sg11
(lp101
g0
(g44
g2
Ntp102
Rp103
(dp104
g48
g19
(g51
S'\x00\x00\x00\x00\x00\xe0`@'
p105
tp106
Rp107
sbasg57
g58
sg59
g60
sbag0
(g13
g2
Ntp108
Rp109
(dp110
g17
I3
sg18
g19
(g23
S'\x01\x00\x00\x00\x00\x00\x00\x00'
p111
tp112
Rp113
sg11
(lp114
g0
(g44
g2
Ntp115
Rp116
(dp117
g48
g19
(g51
S'\x00\x00\x00\x00\x00P\x8f@'
p118
tp119
Rp120
sbasg57
g58
sg59
g60
sbasg57
g58
sg59
g87
sbag0
(g13
g2
Ntp121
Rp122
(dp123
g17
I2
sg18
g19
(g23
S'\x04\x00\x00\x00\x00\x00\x00\x00'
p124
tp125
Rp126
sg11
(lp127
g0
(g13
g2
Ntp128
Rp129
(dp130
g17
I3
sg18
g19
(g23
S'\x04\x00\x00\x00\x00\x00\x00\x00'
p131
tp132
Rp133
sg11
(lp134
g0
(g44
g2
Ntp135
Rp136
(dp137
g48
g19
(g51
S'\x00\x00\x00\x00\x00`w@'
p138
tp139
Rp140
sbasg57
g58
sg59
g60
sbag0
(g13
g2
Ntp141
Rp142
(dp143
g17
I3
sg18
g19
(g23
S'\x01\x00\x00\x00\x00\x00\x00\x00'
p144
tp145
Rp146
sg11
(lp147
g0
(g44
g2
Ntp148
Rp149
(dp150
g48
g19
(g51
S'\x00\x00\x00\x00\x00@`@'
p151
tp152
Rp153
sbasg57
g58
sg59
g60
sbag0
(g13
g2
Ntp154
Rp155
(dp156
g17
I3
sg18
g19
(g23
S'\x00\x00\x00\x00\x00\x00\x00\x00'
p157
tp158
Rp159
sg11
(lp160
g0
(g44
g2
Ntp161
Rp162
(dp163
g48
g19
(g51
S'\x00\x00\x00\x00\x00\xc0x@'
p164
tp165
Rp166
sbasg57
g58
sg59
g60
sbasg57
g58
sg59
g87
sbag0
(g13
g2
Ntp167
Rp168
(dp169
g17
I2
sg18
g19
(g23
S'\x07\x00\x00\x00\x00\x00\x00\x00'
p170
tp171
Rp172
sg11
(lp173
g0
(g13
g2
Ntp174
Rp175
(dp176
g17
I3
sg18
g19
(g23
S'\x01\x00\x00\x00\x00\x00\x00\x00'
p177
tp178
Rp179
sg11
(lp180
g0
(g44
g2
Ntp181
Rp182
(dp183
g48
g19
(g51
S'\x00\x00\x00\x00\x00\x80\x8c@'
p184
tp185
Rp186
sbasg57
g58
sg59
S'subscription_type'
p187
sbag0
(g13
g2
Ntp188
Rp189
(dp190
g17
I3
sg18
g19
(g23
S'\x02\x00\x00\x00\x00\x00\x00\x00'
p191
tp192
Rp193
sg11
(lp194
g0
(g44
g2
Ntp195
Rp196
(dp197
g48
g19
(g51
S'\x00\x00\x00\x00\x00\xd0\x88@'
p198
tp199
Rp200
sbasg57
g58
sg59
g187
sbasg57
g58
sg59
g87
sbag0
(g13
g2
Ntp201
Rp202
(dp203
g17
I2
sg18
g19
(g23
S'\x01\x00\x00\x00\x00\x00\x00\x00'
p204
tp205
Rp206
sg11
(lp207
g0
(g44
g2
Ntp208
Rp209
(dp210
g48
g19
(g51
S'\x00\x00\x00\x00\x00@~@'
p211
tp212
Rp213
sbasg57
g58
sg59
g87
sbag0
(g13
g2
Ntp214
Rp215
(dp216
g17
I2
sg18
g19
(g23
S'\x0b\x00\x00\x00\x00\x00\x00\x00'
p217
tp218
Rp219
sg11
(lp220
g0
(g44
g2
Ntp221
Rp222
(dp223
g48
g19
(g51
S'\x00\x00\x00\x00\x00\xc0~@'
p224
tp225
Rp226
sbasg57
g58
sg59
g87
sbag0
(g13
g2
Ntp227
Rp228
(dp229
g17
I2
sg18
g19
(g23
S'\x02\x00\x00\x00\x00\x00\x00\x00'
p230
tp231
Rp232
sg11
(lp233
g0
(g44
g2
Ntp234
Rp235
(dp236
g48
g19
(g51
S'\x00\x00\x00\x00\x00\xa0n@'
p237
tp238
Rp239
sbasg57
g58
sg59
g87
sbag0
(g13
g2
Ntp240
Rp241
(dp242
g17
I2
sg18
g19
(g23
S'\x0c\x00\x00\x00\x00\x00\x00\x00'
p243
tp244
Rp245
sg11
(lp246
g0
(g44
g2
Ntp247
Rp248
(dp249
g48
g19
(g51
S'\x00\x00\x00\x00\x00\xf3\xbc@'
p250
tp251
Rp252
sbasg57
g58
sg59
g87
sbasg57
g58
sg59
S'start_station_id'
p253
sbag0
(g13
g2
Ntp254
Rp255
(dp256
g17
I1
sg18
g19
(g23
S'I\x00\x00\x00\x00\x00\x00\x00'
p257
tp258
Rp259
sg11
(lp260
g0
(g13
g2
Ntp261
Rp262
(dp263
g17
I2
sg18
g19
(g23
S'\x02\x00\x00\x00\x00\x00\x00\x00'
p264
tp265
Rp266
sg11
(lp267
g0
(g44
g2
Ntp268
Rp269
(dp270
g48
g19
(g51
S'\x00\x00\x00\x00\x00(\x99@'
p271
tp272
Rp273
sbasg57
g58
sg59
S'start_date_hour'
p274
sbag0
(g13
g2
Ntp275
Rp276
(dp277
g17
I2
sg18
g19
(g23
S'\x07\x00\x00\x00\x00\x00\x00\x00'
p278
tp279
Rp280
sg11
(lp281
g0
(g44
g2
Ntp282
Rp283
(dp284
g48
g19
(g51
S'\x00\x00\x00\x00\x00\xe0~@'
p285
tp286
Rp287
sbasg57
g58
sg59
g274
sbag0
(g13
g2
Ntp288
Rp289
(dp290
g17
I2
sg18
g19
(g23
S'\x0b\x00\x00\x00\x00\x00\x00\x00'
p291
tp292
Rp293
sg11
(lp294
g0
(g44
g2
Ntp295
Rp296
(dp297
g48
g19
(g51
S'\x00\x00\x00\x00\x00\xa0\x8a@'
p298
tp299
Rp300
sbasg57
g58
sg59
g274
sbag0
(g13
g2
Ntp301
Rp302
(dp303
g17
I2
sg18
g19
(g23
S'\t\x00\x00\x00\x00\x00\x00\x00'
p304
tp305
Rp306
sg11
(lp307
g0
(g13
g2
Ntp308
Rp309
(dp310
g17
I3
sg18
g19
(g23
S'\x06\x00\x00\x00\x00\x00\x00\x00'
p311
tp312
Rp313
sg11
(lp314
g0
(g44
g2
Ntp315
Rp316
(dp317
g48
g19
(g51
S'\x00\x00\x00\x00\x00H\x81@'
p318
tp319
Rp320
sbasg57
g58
sg59
g60
sbag0
(g13
g2
Ntp321
Rp322
(dp323
g17
I3
sg18
g19
(g23
S'\x00\x00\x00\x00\x00\x00\x00\x00'
p324
tp325
Rp326
sg11
(lp327
g0
(g44
g2
Ntp328
Rp329
(dp330
g48
g19
(g51
S'\x00\x00\x00\x00\x00\x88\x83@'
p331
tp332
Rp333
sbasg57
g58
sg59
g60
sbasg57
g58
sg59
g274
sbag0
(g13
g2
Ntp334
Rp335
(dp336
g17
I2
sg18
g19
(g23
S'\x05\x00\x00\x00\x00\x00\x00\x00'
p337
tp338
Rp339
sg11
(lp340
g0
(g13
g2
Ntp341
Rp342
(dp343
g17
I3
sg18
g19
(g23
S'I\x00\x00\x00\x00\x00\x00\x00'
p344
tp345
Rp346
sg11
(lp347
g0
(g13
g2
Ntp348
Rp349
(dp350
g17
I4
sg18
g19
(g23
S'I\x00\x00\x00\x00\x00\x00\x00'
p351
tp352
Rp353
sg11
(lp354
g0
(g13
g2
Ntp355
Rp356
(dp357
g17
I5
sg18
g19
(g23
S'\x03\x00\x00\x00\x00\x00\x00\x00'
p358
tp359
Rp360
sg11
(lp361
g0
(g44
g2
Ntp362
Rp363
(dp364
g48
g19
(g51
S'\x00\x00\x00\x00\x00\xb0p@'
p365
tp366
Rp367
sbasg57
g58
sg59
g60
sbag0
(g13
g2
Ntp368
Rp369
(dp370
g17
I5
sg18
g19
(g23
S'\x00\x00\x00\x00\x00\x00\x00\x00'
p371
tp372
Rp373
sg11
(lp374
g0
(g44
g2
Ntp375
Rp376
(dp377
g48
g19
(g51
S'\x00\x00\x00\x00\x00\x90s@'
p378
tp379
Rp380
sbasg57
g58
sg59
g60
sbasg57
g58
sg59
g253
sbasg57
g58
sg59
g253
sbasg57
g58
sg59
g274
sbag0
(g13
g2
Ntp381
Rp382
(dp383
g17
I2
sg18
g19
(g23
S'\x17\x00\x00\x00\x00\x00\x00\x00'
p384
tp385
Rp386
sg11
(lp387
g0
(g44
g2
Ntp388
Rp389
(dp390
g48
g19
(g51
S'\x00\x00\x00\x00\x00\xa8\x93@'
p391
tp392
Rp393
sbasg57
g58
sg59
g274
sbag0
(g13
g2
Ntp394
Rp395
(dp396
g17
I2
sg18
g19
(g23
S'\x08\x00\x00\x00\x00\x00\x00\x00'
p397
tp398
Rp399
sg11
(lp400
g0
(g13
g2
Ntp401
Rp402
(dp403
g17
I3
sg18
g19
(g23
S'\n\x00\x00\x00\x00\x00\x00\x00'
p404
tp405
Rp406
sg11
(lp407
g0
(g13
g2
Ntp408
Rp409
(dp410
g17
I4
sg18
g19
(g23
S'\x01\x00\x00\x00\x00\x00\x00\x00'
p411
tp412
Rp413
sg11
(lp414
g0
(g13
g2
Ntp415
Rp416
(dp417
g17
I5
sg18
g19
(g23
S'\x01\x00\x00\x00\x00\x00\x00\x00'
p418
tp419
Rp420
sg11
(lp421
g0
(g44
g2
Ntp422
Rp423
(dp424
g48
g19
(g51
S'\x00\x00\x00\x00\x00\xe0|@'
p425
tp426
Rp427
sbasg57
g58
sg59
g60
sbag0
(g13
g2
Ntp428
Rp429
(dp430
g17
I5
sg18
g19
(g23
S'\x03\x00\x00\x00\x00\x00\x00\x00'
p431
tp432
Rp433
sg11
(lp434
g0
(g44
g2
Ntp435
Rp436
(dp437
g48
g19
(g51
S'\x00\x00\x00\x00\x00\xc0i@'
p438
tp439
Rp440
sbasg57
g58
sg59
g60
sbasg57
g58
sg59
g187
sbasg57
g58
sg59
g87
sbag0
(g13
g2
Ntp441
Rp442
(dp443
g17
I3
sg18
g19
(g23
S'\x07\x00\x00\x00\x00\x00\x00\x00'
p444
tp445
Rp446
sg11
(lp447
g0
(g44
g2
Ntp448
Rp449
(dp450
g48
g19
(g51
S'\x00\x00\x00\x00\x00 \x81@'
p451
tp452
Rp453
sbasg57
g58
sg59
g87
sbasg57
g58
sg59
g274
sbag0
(g13
g2
Ntp454
Rp455
(dp456
g17
I2
sg18
g19
(g23
S'\x10\x00\x00\x00\x00\x00\x00\x00'
p457
tp458
Rp459
sg11
(lp460
g0
(g44
g2
Ntp461
Rp462
(dp463
g48
g19
(g51
S'\x00\x00\x00\x00\x00\xc8\x95@'
p464
tp465
Rp466
sbasg57
g58
sg59
g274
sbag0
(g13
g2
Ntp467
Rp468
(dp469
g17
I2
sg18
g19
(g23
S'\x04\x00\x00\x00\x00\x00\x00\x00'
p470
tp471
Rp472
sg11
(lp473
g0
(g44
g2
Ntp474
Rp475
(dp476
g48
g19
(g51
S'\x00\x00\x00\x00\x00@_@'
p477
tp478
Rp479
sbasg57
g58
sg59
g274
sbag0
(g13
g2
Ntp480
Rp481
(dp482
g17
I2
sg18
g19
(g23
S'\x12\x00\x00\x00\x00\x00\x00\x00'
p483
tp484
Rp485
sg11
(lp486
g0
(g13
g2
Ntp487
Rp488
(dp489
g17
I3
sg18
g19
(g23
S'I\x00\x00\x00\x00\x00\x00\x00'
p490
tp491
Rp492
sg11
(lp493
g0
(g13
g2
Ntp494
Rp495
(dp496
g17
I4
sg18
g19
(g23
S'\x04\x00\x00\x00\x00\x00\x00\x00'
p497
tp498
Rp499
sg11
(lp500
g0
(g44
g2
Ntp501
Rp502
(dp503
g48
g19
(g51
S'\x00\x00\x00\x00\x00\xa4\x9d@'
p504
tp505
Rp506
sbasg57
g58
sg59
g87
sbag0
(g13
g2
Ntp507
Rp508
(dp509
g17
I4
sg18
g19
(g23
S'\x08\x00\x00\x00\x00\x00\x00\x00'
p510
tp511
Rp512
sg11
(lp513
g0
(g44
g2
Ntp514
Rp515
(dp516
g48
g19
(g51
S'\x00\x00\x00\x00\x00\x00f@'
p517
tp518
Rp519
sbasg57
g58
sg59
g87
sbasg57
g58
sg59
g253
sbasg57
g58
sg59
g274
sbasg57
g58
sg59
g253
sbag0
(g13
g2
Ntp520
Rp521
(dp522
g17
I1
sg18
g19
(g23
S'=\x00\x00\x00\x00\x00\x00\x00'
p523
tp524
Rp525
sg11
(lp526
g0
(g13
g2
Ntp527
Rp528
(dp529
g17
I2
sg18
g19
(g23
S'\x03\x00\x00\x00\x00\x00\x00\x00'
p530
tp531
Rp532
sg11
(lp533
g0
(g13
g2
Ntp534
Rp535
(dp536
g17
I3
sg18
g19
(g23
S'\x08\x00\x00\x00\x00\x00\x00\x00'
p537
tp538
Rp539
sg11
(lp540
g0
(g13
g2
Ntp541
Rp542
(dp543
g17
I4
sg18
g19
(g23
S'=\x00\x00\x00\x00\x00\x00\x00'
p544
tp545
Rp546
sg11
(lp547
g0
(g13
g2
Ntp548
Rp549
(dp550
g17
I5
sg18
g19
(g23
S'=\x00\x00\x00\x00\x00\x00\x00'
p551
tp552
Rp553
sg11
(lp554
g0
(g13
g2
Ntp555
Rp556
(dp557
g17
I6
sg18
g19
(g23
S'\x0e\x00\x00\x00\x00\x00\x00\x00'
p558
tp559
Rp560
sg11
(lp561
g0
(g44
g2
Ntp562
Rp563
(dp564
g48
g19
(g51
S'\x00\x00\x00\x00\x00p\x82@'
p565
tp566
Rp567
sbasg57
g58
sg59
g274
sbag0
(g13
g2
Ntp568
Rp569
(dp570
g17
I6
sg18
g19
(g23
S'\x08\x00\x00\x00\x00\x00\x00\x00'
p571
tp572
Rp573
sg11
(lp574
g0
(g44
g2
Ntp575
Rp576
(dp577
g48
g19
(g51
S'\x00\x00\x00\x00\x00\xc0p@'
p578
tp579
Rp580
sbasg57
g58
sg59
g274
sbasg57
g58
sg59
g253
sbasg57
g58
sg59
g253
sbasg57
g58
sg59
g87
sbag0
(g13
g2
Ntp581
Rp582
(dp583
g17
I3
sg18
g19
(g23
S'\t\x00\x00\x00\x00\x00\x00\x00'
p584
tp585
Rp586
sg11
(lp587
g0
(g44
g2
Ntp588
Rp589
(dp590
g48
g19
(g51
S'\x00\x00\x00\x00\x00\xd8\x81@'
p591
tp592
Rp593
sbasg57
g58
sg59
g87
sbag0
(g13
g2
Ntp594
Rp595
(dp596
g17
I3
sg18
g19
(g23
S'\x04\x00\x00\x00\x00\x00\x00\x00'
p597
tp598
Rp599
sg11
(lp600
g0
(g44
g2
Ntp601
Rp602
(dp603
g48
g19
(g51
S'\x00\x00\x00\x00\x00\x90z@'
p604
tp605
Rp606
sbasg57
g58
sg59
g87
sbasg57
g58
sg59
g60
sbag0
(g13
g2
Ntp607
Rp608
(dp609
g17
I2
sg18
g19
(g23
S'\x02\x00\x00\x00\x00\x00\x00\x00'
p610
tp611
Rp612
sg11
(lp613
g0
(g13
g2
Ntp614
Rp615
(dp616
g17
I3
sg18
g19
(g23
S'\t\x00\x00\x00\x00\x00\x00\x00'
p617
tp618
Rp619
sg11
(lp620
g0
(g44
g2
Ntp621
Rp622
(dp623
g48
g19
(g51
S'\x00\x00\x00\x00\x00 \x94@'
p624
tp625
Rp626
sbasg57
g58
sg59
g87
sbag0
(g13
g2
Ntp627
Rp628
(dp629
g17
I3
sg18
g19
(g23
S'\x0b\x00\x00\x00\x00\x00\x00\x00'
p630
tp631
Rp632
sg11
(lp633
g0
(g13
g2
Ntp634
Rp635
(dp636
g17
I4
sg18
g19
(g23
S'=\x00\x00\x00\x00\x00\x00\x00'
p637
tp638
Rp639
sg11
(lp640
g0
(g13
g2
Ntp641
Rp642
(dp643
g17
I5
sg18
g19
(g23
S'=\x00\x00\x00\x00\x00\x00\x00'
p644
tp645
Rp646
sg11
(lp647
g0
(g13
g2
Ntp648
Rp649
(dp650
g17
I6
sg18
g19
(g23
S'=\x00\x00\x00\x00\x00\x00\x00'
p651
tp652
Rp653
sg11
(lp654
g0
(g13
g2
Ntp655
Rp656
(dp657
g17
I7
sg18
g19
(g23
S'=\x00\x00\x00\x00\x00\x00\x00'
p658
tp659
Rp660
sg11
(lp661
g0
(g13
g2
Ntp662
Rp663
(dp664
g17
I8
sg18
g19
(g23
S'=\x00\x00\x00\x00\x00\x00\x00'
p665
tp666
Rp667
sg11
(lp668
g0
(g13
g2
Ntp669
Rp670
(dp671
g17
I9
sg18
g19
(g23
S'=\x00\x00\x00\x00\x00\x00\x00'
p672
tp673
Rp674
sg11
(lp675
g0
(g13
g2
Ntp676
Rp677
(dp678
g17
I10
sg18
g19
(g23
S'\x02\x00\x00\x00\x00\x00\x00\x00'
p679
tp680
Rp681
sg11
(lp682
g0
(g13
g2
Ntp683
Rp684
(dp685
g17
I11
sg18
g19
(g23
S'\x01\x00\x00\x00\x00\x00\x00\x00'
p686
tp687
Rp688
sg11
(lp689
g0
(g13
g2
Ntp690
Rp691
(dp692
g17
I12
sg18
g19
(g23
S'=\x00\x00\x00\x00\x00\x00\x00'
p693
tp694
Rp695
sg11
(lp696
g0
(g13
g2
Ntp697
Rp698
(dp699
g17
I13
sg18
g19
(g23
S'=\x00\x00\x00\x00\x00\x00\x00'
p700
tp701
Rp702
sg11
(lp703
g0
(g13
g2
Ntp704
Rp705
(dp706
g17
I14
sg18
g19
(g23
S'=\x00\x00\x00\x00\x00\x00\x00'
p707
tp708
Rp709
sg11
(lp710
g0
(g13
g2
Ntp711
Rp712
(dp713
g17
I15
sg18
g19
(g23
S'=\x00\x00\x00\x00\x00\x00\x00'
p714
tp715
Rp716
sg11
(lp717
g0
(g13
g2
Ntp718
Rp719
(dp720
g17
I16
sg18
g19
(g23
S'=\x00\x00\x00\x00\x00\x00\x00'
p721
tp722
Rp723
sg11
(lp724
g0
(g13
g2
Ntp725
Rp726
(dp727
g17
I17
sg18
g19
(g23
S'=\x00\x00\x00\x00\x00\x00\x00'
p728
tp729
Rp730
sg11
(lp731
g0
(g13
g2
Ntp732
Rp733
(dp734
g17
I18
sg18
g19
(g23
S'=\x00\x00\x00\x00\x00\x00\x00'
p735
tp736
Rp737
sg11
(lp738
g0
(g13
g2
Ntp739
Rp740
(dp741
g17
I19
sg18
g19
(g23
S'=\x00\x00\x00\x00\x00\x00\x00'
p742
tp743
Rp744
sg11
(lp745
g0
(g13
g2
Ntp746
Rp747
(dp748
g17
I20
sg18
g19
(g23
S'\x01\x00\x00\x00\x00\x00\x00\x00'
p749
tp750
Rp751
sg11
(lp752
g0
(g13
g2
Ntp753
Rp754
(dp755
g17
I21
sg18
g19
(g23
S'\x01\x00\x00\x00\x00\x00\x00\x00'
p756
tp757
Rp758
sg11
(lp759
g0
(g13
g2
Ntp760
Rp761
(dp762
g17
I22
sg18
g19
(g23
S'=\x00\x00\x00\x00\x00\x00\x00'
p763
tp764
Rp765
sg11
(lp766
g0
(g13
g2
Ntp767
Rp768
(dp769
g17
I23
sg18
g19
(g23
S'\x01\x00\x00\x00\x00\x00\x00\x00'
p770
tp771
Rp772
sg11
(lp773
g0
(g13
g2
Ntp774
Rp775
(dp776
g17
I24
sg18
g19
(g23
S'\x01\x00\x00\x00\x00\x00\x00\x00'
p777
tp778
Rp779
sg11
(lp780
g0
(g13
g2
Ntp781
Rp782
(dp783
g17
I25
sg18
g19
(g23
S'=\x00\x00\x00\x00\x00\x00\x00'
p784
tp785
Rp786
sg11
(lp787
g0
(g44
g2
Ntp788
Rp789
(dp790
g48
g19
(g51
S'\x00\x00\x00\x00\x00\x80c@'
p791
tp792
Rp793
sbasg57
g58
sg59
g253
sbasg57
g58
sg59
g187
sbasg57
g58
sg59
g187
sbasg57
g58
sg59
g253
sbasg57
g58
sg59
g187
sbasg57
g58
sg59
g187
sbasg57
g58
sg59
g253
sbasg57
g58
sg59
g253
sbasg57
g58
sg59
g253
sbasg57
g58
sg59
g253
sbasg57
g58
sg59
g253
sbasg57
g58
sg59
g253
sbasg57
g58
sg59
g253
sbasg57
g58
sg59
g253
sbasg57
g58
sg59
g187
sbasg57
g58
sg59
g60
sbasg57
g58
sg59
g253
sbasg57
g58
sg59
g253
sbasg57
g58
sg59
g253
sbasg57
g58
sg59
g253
sbasg57
g58
sg59
g253
sbasg57
g58
sg59
g253
sbasg57
g58
sg59
g87
sbag0
(g13
g2
Ntp794
Rp795
(dp796
g17
I3
sg18
g19
(g23
S'\x0c\x00\x00\x00\x00\x00\x00\x00'
p797
tp798
Rp799
sg11
(lp800
g0
(g44
g2
Ntp801
Rp802
(dp803
g48
g19
(g51
S'\x00\x00\x00\x00\x80!\xc0@'
p804
tp805
Rp806
sbasg57
g58
sg59
g87
sbasg57
g58
sg59
g60
sbag0
(g13
g2
Ntp807
Rp808
(dp809
g17
I2
sg18
g19
(g23
S'\x00\x00\x00\x00\x00\x00\x00\x00'
p810
tp811
Rp812
sg11
(lp813
g0
(g13
g2
Ntp814
Rp815
(dp816
g17
I3
sg18
g19
(g23
S'\n\x00\x00\x00\x00\x00\x00\x00'
p817
tp818
Rp819
sg11
(lp820
g0
(g44
g2
Ntp821
Rp822
(dp823
g48
g19
(g51
S'\x00\x00\x00\x00\x00l\xb4@'
p824
tp825
Rp826
sbasg57
g58
sg59
g87
sbag0
(g13
g2
Ntp827
Rp828
(dp829
g17
I3
sg18
g19
(g23
S'\x08\x00\x00\x00\x00\x00\x00\x00'
p830
tp831
Rp832
sg11
(lp833
g0
(g44
g2
Ntp834
Rp835
(dp836
g48
g19
(g51
S'\x00\x00\x00\x00\x00P\x84@'
p837
tp838
Rp839
sbasg57
g58
sg59
g87
sbag0
(g13
g2
Ntp840
Rp841
(dp842
g17
I3
sg18
g19
(g23
S'\x02\x00\x00\x00\x00\x00\x00\x00'
p843
tp844
Rp845
sg11
(lp846
g0
(g44
g2
Ntp847
Rp848
(dp849
g48
g19
(g51
S'\x00\x00\x00\x00\x00\x00}@'
p850
tp851
Rp852
sbasg57
g58
sg59
g87
sbag0
(g13
g2
Ntp853
Rp854
(dp855
g17
I3
sg18
g19
(g23
S'\x0b\x00\x00\x00\x00\x00\x00\x00'
p856
tp857
Rp858
sg11
(lp859
g0
(g44
g2
Ntp860
Rp861
(dp862
g48
g19
(g51
S'\x00\x00\x00\x00\x00\x90r@'
p863
tp864
Rp865
sbasg57
g58
sg59
g87
sbasg57
g58
sg59
g60
sbag0
(g13
g2
Ntp866
Rp867
(dp868
g17
I2
sg18
g19
(g23
S'\x04\x00\x00\x00\x00\x00\x00\x00'
p869
tp870
Rp871
sg11
(lp872
g0
(g13
g2
Ntp873
Rp874
(dp875
g17
I3
sg18
g19
(g23
S'\x02\x00\x00\x00\x00\x00\x00\x00'
p876
tp877
Rp878
sg11
(lp879
g0
(g44
g2
Ntp880
Rp881
(dp882
g48
g19
(g51
S'\x00\x00\x00\x00\x000r@'
p883
tp884
Rp885
sbasg57
g58
sg59
g87
sbag0
(g13
g2
Ntp886
Rp887
(dp888
g17
I3
sg18
g19
(g23
S'\x0b\x00\x00\x00\x00\x00\x00\x00'
p889
tp890
Rp891
sg11
(lp892
g0
(g44
g2
Ntp893
Rp894
(dp895
g48
g19
(g51
S'\x00\x00\x00\x00\x00 }@'
p896
tp897
Rp898
sbasg57
g58
sg59
g87
sbag0
(g13
g2
Ntp899
Rp900
(dp901
g17
I3
sg18
g19
(g23
S'\x07\x00\x00\x00\x00\x00\x00\x00'
p902
tp903
Rp904
sg11
(lp905
g0
(g44
g2
Ntp906
Rp907
(dp908
g48
g19
(g51
S'\x00\x00\x00\x00\x00\x80\x83@'
p909
tp910
Rp911
sbasg57
g58
sg59
g87
sbasg57
g58
sg59
g60
sbag0
(g13
g2
Ntp912
Rp913
(dp914
g17
I2
sg18
g19
(g23
S'\x01\x00\x00\x00\x00\x00\x00\x00'
p915
tp916
Rp917
sg11
(lp918
g0
(g13
g2
Ntp919
Rp920
(dp921
g17
I3
sg18
g19
(g23
S'\x06\x00\x00\x00\x00\x00\x00\x00'
p922
tp923
Rp924
sg11
(lp925
g0
(g44
g2
Ntp926
Rp927
(dp928
g48
g19
(g51
S'\x00\x00\x00\x00\x00\xe0{@'
p929
tp930
Rp931
sbasg57
g58
sg59
g87
sbag0
(g13
g2
Ntp932
Rp933
(dp934
g17
I3
sg18
g19
(g23
S'\x08\x00\x00\x00\x00\x00\x00\x00'
p935
tp936
Rp937
sg11
(lp938
g0
(g44
g2
Ntp939
Rp940
(dp941
g48
g19
(g51
S'\x00\x00\x00\x00\x00\x00t@'
p942
tp943
Rp944
sbasg57
g58
sg59
g87
sbag0
(g13
g2
Ntp945
Rp946
(dp947
g17
I3
sg18
g19
(g23
S'\x0b\x00\x00\x00\x00\x00\x00\x00'
p948
tp949
Rp950
sg11
(lp951
g0
(g44
g2
Ntp952
Rp953
(dp954
g48
g19
(g51
S'\x00\x00\x00\x00\x00\x10~@'
p955
tp956
Rp957
sbasg57
g58
sg59
g87
sbasg57
g58
sg59
g60
sbag0
(g13
g2
Ntp958
Rp959
(dp960
g17
I2
sg18
g19
(g23
S'\x05\x00\x00\x00\x00\x00\x00\x00'
p961
tp962
Rp963
sg11
(lp964
g0
(g13
g2
Ntp965
Rp966
(dp967
g17
I3
sg18
g19
(g23
S'\x03\x00\x00\x00\x00\x00\x00\x00'
p968
tp969
Rp970
sg11
(lp971
g0
(g44
g2
Ntp972
Rp973
(dp974
g48
g19
(g51
S'\x00\x00\x00\x00\x00\xa0y@'
p975
tp976
Rp977
sbasg57
g58
sg59
g87
sbag0
(g13
g2
Ntp978
Rp979
(dp980
g17
I3
sg18
g19
(g23
S'\x0b\x00\x00\x00\x00\x00\x00\x00'
p981
tp982
Rp983
sg11
(lp984
g0
(g44
g2
Ntp985
Rp986
(dp987
g48
g19
(g51
S'\x00\x00\x00\x00\x00@|@'
p988
tp989
Rp990
sbasg57
g58
sg59
g87
sbag0
(g13
g2
Ntp991
Rp992
(dp993
g17
I3
sg18
g19
(g23
S'\t\x00\x00\x00\x00\x00\x00\x00'
p994
tp995
Rp996
sg11
(lp997
g0
(g44
g2
Ntp998
Rp999
(dp1000
g48
g19
(g51
S'\x00\x00\x00\x00\x00\xf8\x87@'
p1001
tp1002
Rp1003
sbasg57
g58
sg59
g87
sbag0
(g13
g2
Ntp1004
Rp1005
(dp1006
g17
I3
sg18
g19
(g23
S'\x08\x00\x00\x00\x00\x00\x00\x00'
p1007
tp1008
Rp1009
sg11
(lp1010
g0
(g44
g2
Ntp1011
Rp1012
(dp1013
g48
g19
(g51
S'\x00\x00\x00\x00\x00\xd8\x02A'
p1014
tp1015
Rp1016
sbasg57
g58
sg59
g87
sbasg57
g58
sg59
g60
sbasg57
g58
sg59
g253
sbag0
(g13
g2
Ntp1017
Rp1018
(dp1019
g17
I1
sg18
g19
(g23
S'R\x00\x00\x00\x00\x00\x00\x00'
p1020
tp1021
Rp1022
sg11
(lp1023
g0
(g13
g2
Ntp1024
Rp1025
(dp1026
g17
I2
sg18
g19
(g23
S'\r\x00\x00\x00\x00\x00\x00\x00'
p1027
tp1028
Rp1029
sg11
(lp1030
g0
(g44
g2
Ntp1031
Rp1032
(dp1033
g48
g19
(g51
S'\x00\x00\x00\x00\x00\xa0\x93@'
p1034
tp1035
Rp1036
sbasg57
g58
sg59
g274
sbag0
(g13
g2
Ntp1037
Rp1038
(dp1039
g17
I2
sg18
g19
(g23
S'\x11\x00\x00\x00\x00\x00\x00\x00'
p1040
tp1041
Rp1042
sg11
(lp1043
g0
(g44
g2
Ntp1044
Rp1045
(dp1046
g48
g19
(g51
S'\x00\x00\x00\x00\x00\xec\x91@'
p1047
tp1048
Rp1049
sbasg57
g58
sg59
g274
sbag0
(g13
g2
Ntp1050
Rp1051
(dp1052
g17
I2
sg18
g19
(g23
S'\x0b\x00\x00\x00\x00\x00\x00\x00'
p1053
tp1054
Rp1055
sg11
(lp1056
g0
(g13
g2
Ntp1057
Rp1058
(dp1059
g17
I3
sg18
g19
(g23
S'\n\x00\x00\x00\x00\x00\x00\x00'
p1060
tp1061
Rp1062
sg11
(lp1063
g0
(g44
g2
Ntp1064
Rp1065
(dp1066
g48
g19
(g51
S'\x00\x00\x00\x00\x00\xc0~@'
p1067
tp1068
Rp1069
sbasg57
g58
sg59
g87
sbag0
(g13
g2
Ntp1070
Rp1071
(dp1072
g17
I3
sg18
g19
(g23
S'\x03\x00\x00\x00\x00\x00\x00\x00'
p1073
tp1074
Rp1075
sg11
(lp1076
g0
(g44
g2
Ntp1077
Rp1078
(dp1079
g48
g19
(g51
S'\x00\x00\x00\x00\x00\xc0l@'
p1080
tp1081
Rp1082
sbasg57
g58
sg59
g87
sbasg57
g58
sg59
g274
sbag0
(g13
g2
Ntp1083
Rp1084
(dp1085
g17
I2
sg18
g19
(g23
S'\x07\x00\x00\x00\x00\x00\x00\x00'
p1086
tp1087
Rp1088
sg11
(lp1089
g0
(g13
g2
Ntp1090
Rp1091
(dp1092
g17
I3
sg18
g19
(g23
S'\x02\x00\x00\x00\x00\x00\x00\x00'
p1093
tp1094
Rp1095
sg11
(lp1096
g0
(g44
g2
Ntp1097
Rp1098
(dp1099
g48
g19
(g51
S'\x00\x00\x00\x00\x00X\x89@'
p1100
tp1101
Rp1102
sbasg57
g58
sg59
g187
sbag0
(g13
g2
Ntp1103
Rp1104
(dp1105
g17
I3
sg18
g19
(g23
S'\x01\x00\x00\x00\x00\x00\x00\x00'
p1106
tp1107
Rp1108
sg11
(lp1109
g0
(g44
g2
Ntp1110
Rp1111
(dp1112
g48
g19
(g51
S'\x00\x00\x00\x00\x00\xe8\x89@'
p1113
tp1114
Rp1115
sbasg57
g58
sg59
g187
sbasg57
g58
sg59
g274
sbag0
(g13
g2
Ntp1116
Rp1117
(dp1118
g17
I2
sg18
g19
(g23
S'\x12\x00\x00\x00\x00\x00\x00\x00'
p1119
tp1120
Rp1121
sg11
(lp1122
g0
(g44
g2
Ntp1123
Rp1124
(dp1125
g48
g19
(g51
S'\x00\x00\x00\x00\x00 k@'
p1126
tp1127
Rp1128
sbasg57
g58
sg59
g274
sbasg57
g58
sg59
g253
sbag0
(g13
g2
Ntp1129
Rp1130
(dp1131
g17
I1
sg18
g19
(g23
S'<\x00\x00\x00\x00\x00\x00\x00'
p1132
tp1133
Rp1134
sg11
(lp1135
g0
(g13
g2
Ntp1136
Rp1137
(dp1138
g17
I2
sg18
g19
(g23
S'\x08\x00\x00\x00\x00\x00\x00\x00'
p1139
tp1140
Rp1141
sg11
(lp1142
g0
(g44
g2
Ntp1143
Rp1144
(dp1145
g48
g19
(g51
S'\x00\x00\x00\x00\x00\x00z@'
p1146
tp1147
Rp1148
sbasg57
g58
sg59
g87
sbag0
(g13
g2
Ntp1149
Rp1150
(dp1151
g17
I2
sg18
g19
(g23
S'\t\x00\x00\x00\x00\x00\x00\x00'
p1152
tp1153
Rp1154
sg11
(lp1155
g0
(g13
g2
Ntp1156
Rp1157
(dp1158
g17
I3
sg18
g19
(g23
S'\x02\x00\x00\x00\x00\x00\x00\x00'
p1159
tp1160
Rp1161
sg11
(lp1162
g0
(g13
g2
Ntp1163
Rp1164
(dp1165
g17
I4
sg18
g19
(g23
S'\x10\x00\x00\x00\x00\x00\x00\x00'
p1166
tp1167
Rp1168
sg11
(lp1169
g0
(g44
g2
Ntp1170
Rp1171
(dp1172
g48
g19
(g51
S'\x00\x00\x00\x00\x00\x88\x96@'
p1173
tp1174
Rp1175
sbasg57
g58
sg59
g274
sbag0
(g13
g2
Ntp1176
Rp1177
(dp1178
g17
I4
sg18
g19
(g23
S'\x0b\x00\x00\x00\x00\x00\x00\x00'
p1179
tp1180
Rp1181
sg11
(lp1182
g0
(g44
g2
Ntp1183
Rp1184
(dp1185
g48
g19
(g51
S'\x00\x00\x00\x00\x00\xd8\x96@'
p1186
tp1187
Rp1188
sbasg57
g58
sg59
g274
sbag0
(g13
g2
Ntp1189
Rp1190
(dp1191
g17
I4
sg18
g19
(g23
S'\x11\x00\x00\x00\x00\x00\x00\x00'
p1192
tp1193
Rp1194
sg11
(lp1195
g0
(g44
g2
Ntp1196
Rp1197
(dp1198
g48
g19
(g51
S'\x00\x00\x00\x00\x00x\x98@'
p1199
tp1200
Rp1201
sbasg57
g58
sg59
g274
sbasg57
g58
sg59
g187
sbag0
(g13
g2
Ntp1202
Rp1203
(dp1204
g17
I3
sg18
g19
(g23
S'\x01\x00\x00\x00\x00\x00\x00\x00'
p1205
tp1206
Rp1207
sg11
(lp1208
g0
(g44
g2
Ntp1209
Rp1210
(dp1211
g48
g19
(g51
S'\x00\x00\x00\x00\x00 \x85@'
p1212
tp1213
Rp1214
sbasg57
g58
sg59
g187
sbasg57
g58
sg59
g87
sbag0
(g13
g2
Ntp1215
Rp1216
(dp1217
g17
I2
sg18
g19
(g23
S'\x06\x00\x00\x00\x00\x00\x00\x00'
p1218
tp1219
Rp1220
sg11
(lp1221
g0
(g13
g2
Ntp1222
Rp1223
(dp1224
g17
I3
sg18
g19
(g23
S'\x04\x00\x00\x00\x00\x00\x00\x00'
p1225
tp1226
Rp1227
sg11
(lp1228
g0
(g44
g2
Ntp1229
Rp1230
(dp1231
g48
g19
(g51
S'\x00\x00\x00\x00\x00\x80\x88@'
p1232
tp1233
Rp1234
sbasg57
g58
sg59
g60
sbag0
(g13
g2
Ntp1235
Rp1236
(dp1237
g17
I3
sg18
g19
(g23
S'\x06\x00\x00\x00\x00\x00\x00\x00'
p1238
tp1239
Rp1240
sg11
(lp1241
g0
(g44
g2
Ntp1242
Rp1243
(dp1244
g48
g19
(g51
S'\x00\x00\x00\x00\x00\x06\xa3@'
p1245
tp1246
Rp1247
sbasg57
g58
sg59
g60
sbag0
(g13
g2
Ntp1248
Rp1249
(dp1250
g17
I3
sg18
g19
(g23
S'\x03\x00\x00\x00\x00\x00\x00\x00'
p1251
tp1252
Rp1253
sg11
(lp1254
g0
(g44
g2
Ntp1255
Rp1256
(dp1257
g48
g19
(g51
S'\x00\x00\x00\x00\x00 u@'
p1258
tp1259
Rp1260
sbasg57
g58
sg59
g60
sbasg57
g58
sg59
g87
sbag0
(g13
g2
Ntp1261
Rp1262
(dp1263
g17
I2
sg18
g19
(g23
S'\x03\x00\x00\x00\x00\x00\x00\x00'
p1264
tp1265
Rp1266
sg11
(lp1267
g0
(g13
g2
Ntp1268
Rp1269
(dp1270
g17
I3
sg18
g19
(g23
S'\x01\x00\x00\x00\x00\x00\x00\x00'
p1271
tp1272
Rp1273
sg11
(lp1274
g0
(g44
g2
Ntp1275
Rp1276
(dp1277
g48
g19
(g51
S'\x00\x00\x00\x00\x00\xe0\xb3@'
p1278
tp1279
Rp1280
sbasg57
g58
sg59
g60
sbag0
(g13
g2
Ntp1281
Rp1282
(dp1283
g17
I3
sg18
g19
(g23
S'\x02\x00\x00\x00\x00\x00\x00\x00'
p1284
tp1285
Rp1286
sg11
(lp1287
g0
(g44
g2
Ntp1288
Rp1289
(dp1290
g48
g19
(g51
S'\x00\x00\x00\x00\x00\xc0~@'
p1291
tp1292
Rp1293
sbasg57
g58
sg59
g60
sbasg57
g58
sg59
g87
sbag0
(g13
g2
Ntp1294
Rp1295
(dp1296
g17
I2
sg18
g19
(g23
S'\x0c\x00\x00\x00\x00\x00\x00\x00'
p1297
tp1298
Rp1299
sg11
(lp1300
g0
(g44
g2
Ntp1301
Rp1302
(dp1303
g48
g19
(g51
S'\x00\x00\x00\x00\x00\xd8\x84@'
p1304
tp1305
Rp1306
sbasg57
g58
sg59
g87
sbag0
(g13
g2
Ntp1307
Rp1308
(dp1309
g17
I2
sg18
g19
(g23
S'\x05\x00\x00\x00\x00\x00\x00\x00'
p1310
tp1311
Rp1312
sg11
(lp1313
g0
(g44
g2
Ntp1314
Rp1315
(dp1316
g48
g19
(g51
S'\x00\x00\x00\x00\x00`\x7f@'
p1317
tp1318
Rp1319
sbasg57
g58
sg59
g87
sbag0
(g13
g2
Ntp1320
Rp1321
(dp1322
g17
I2
sg18
g19
(g23
S'\x07\x00\x00\x00\x00\x00\x00\x00'
p1323
tp1324
Rp1325
sg11
(lp1326
g0
(g44
g2
Ntp1327
Rp1328
(dp1329
g48
g19
(g51
S'\x00\x00\x00\x00\x00\xbc\x99@'
p1330
tp1331
Rp1332
sbasg57
g58
sg59
g87
sbag0
(g13
g2
Ntp1333
Rp1334
(dp1335
g17
I2
sg18
g19
(g23
S'\x02\x00\x00\x00\x00\x00\x00\x00'
p1336
tp1337
Rp1338
sg11
(lp1339
g0
(g44
g2
Ntp1340
Rp1341
(dp1342
g48
g19
(g51
S'\x00\x00\x00\x00\x004\x95@'
p1343
tp1344
Rp1345
sbasg57
g58
sg59
g87
sbasg57
g58
sg59
g253
sbag0
(g13
g2
Ntp1346
Rp1347
(dp1348
g17
I1
sg18
g19
(g23
S'0\x00\x00\x00\x00\x00\x00\x00'
p1349
tp1350
Rp1351
sg11
(lp1352
g0
(g13
g2
Ntp1353
Rp1354
(dp1355
g17
I2
sg18
g19
(g23
S'\r\x00\x00\x00\x00\x00\x00\x00'
p1356
tp1357
Rp1358
sg11
(lp1359
g0
(g13
g2
Ntp1360
Rp1361
(dp1362
g17
I3
sg18
g19
(g23
S'\x03\x00\x00\x00\x00\x00\x00\x00'
p1363
tp1364
Rp1365
sg11
(lp1366
g0
(g44
g2
Ntp1367
Rp1368
(dp1369
g48
g19
(g51
S'\x00\x00\x00\x00\x00T\xa1@'
p1370
tp1371
Rp1372
sbasg57
g58
sg59
g60
sbag0
(g13
g2
Ntp1373
Rp1374
(dp1375
g17
I3
sg18
g19
(g23
S'\x01\x00\x00\x00\x00\x00\x00\x00'
p1376
tp1377
Rp1378
sg11
(lp1379
g0
(g44
g2
Ntp1380
Rp1381
(dp1382
g48
g19
(g51
S'\x00\x00\x00\x00\x00(\x80@'
p1383
tp1384
Rp1385
sbasg57
g58
sg59
g60
sbasg57
g58
sg59
g274
sbag0
(g13
g2
Ntp1386
Rp1387
(dp1388
g17
I2
sg18
g19
(g23
S'\x10\x00\x00\x00\x00\x00\x00\x00'
p1389
tp1390
Rp1391
sg11
(lp1392
g0
(g13
g2
Ntp1393
Rp1394
(dp1395
g17
I3
sg18
g19
(g23
S'\x01\x00\x00\x00\x00\x00\x00\x00'
p1396
tp1397
Rp1398
sg11
(lp1399
g0
(g13
g2
Ntp1400
Rp1401
(dp1402
g17
I4
sg18
g19
(g23
S'\x06\x00\x00\x00\x00\x00\x00\x00'
p1403
tp1404
Rp1405
sg11
(lp1406
g0
(g44
g2
Ntp1407
Rp1408
(dp1409
g48
g19
(g51
S'\x00\x00\x00\x00\x00H\x8f@'
p1410
tp1411
Rp1412
sbasg57
g58
sg59
g87
sbag0
(g13
g2
Ntp1413
Rp1414
(dp1415
g17
I4
sg18
g19
(g23
S'\x02\x00\x00\x00\x00\x00\x00\x00'
p1416
tp1417
Rp1418
sg11
(lp1419
g0
(g44
g2
Ntp1420
Rp1421
(dp1422
g48
g19
(g51
S'\x00\x00\x00\x00\x00p\x8e@'
p1423
tp1424
Rp1425
sbasg57
g58
sg59
g87
sbasg57
g58
sg59
g60
sbag0
(g13
g2
Ntp1426
Rp1427
(dp1428
g17
I3
sg18
g19
(g23
S'\x00\x00\x00\x00\x00\x00\x00\x00'
p1429
tp1430
Rp1431
sg11
(lp1432
g0
(g44
g2
Ntp1433
Rp1434
(dp1435
g48
g19
(g51
S'\x00\x00\x00\x00\x00\x98\x8e@'
p1436
tp1437
Rp1438
sbasg57
g58
sg59
g60
sbasg57
g58
sg59
g274
sbag0
(g13
g2
Ntp1439
Rp1440
(dp1441
g17
I2
sg18
g19
(g23
S'\x11\x00\x00\x00\x00\x00\x00\x00'
p1442
tp1443
Rp1444
sg11
(lp1445
g0
(g44
g2
Ntp1446
Rp1447
(dp1448
g48
g19
(g51
S'\x00\x00\x00\x00\x00\xb0r@'
p1449
tp1450
Rp1451
sbasg57
g58
sg59
g274
sbag0
(g13
g2
Ntp1452
Rp1453
(dp1454
g17
I2
sg18
g19
(g23
S'\x0e\x00\x00\x00\x00\x00\x00\x00'
p1455
tp1456
Rp1457
sg11
(lp1458
g0
(g13
g2
Ntp1459
Rp1460
(dp1461
g17
I3
sg18
g19
(g23
S'\x01\x00\x00\x00\x00\x00\x00\x00'
p1462
tp1463
Rp1464
sg11
(lp1465
g0
(g44
g2
Ntp1466
Rp1467
(dp1468
g48
g19
(g51
S'\x00\x00\x00\x00\x00\x0c\x96@'
p1469
tp1470
Rp1471
sbasg57
g58
sg59
g60
sbag0
(g13
g2
Ntp1472
Rp1473
(dp1474
g17
I3
sg18
g19
(g23
S'\x05\x00\x00\x00\x00\x00\x00\x00'
p1475
tp1476
Rp1477
sg11
(lp1478
g0
(g44
g2
Ntp1479
Rp1480
(dp1481
g48
g19
(g51
S'\x00\x00\x00\x00\x00\xb4\x9d@'
p1482
tp1483
Rp1484
sbasg57
g58
sg59
g60
sbag0
(g13
g2
Ntp1485
Rp1486
(dp1487
g17
I3
sg18
g19
(g23
S'\x06\x00\x00\x00\x00\x00\x00\x00'
p1488
tp1489
Rp1490
sg11
(lp1491
g0
(g44
g2
Ntp1492
Rp1493
(dp1494
g48
g19
(g51
S'\x00\x00\x00\x00\x00\x00\x80@'
p1495
tp1496
Rp1497
sbasg57
g58
sg59
g60
sbasg57
g58
sg59
g274
sbag0
(g13
g2
Ntp1498
Rp1499
(dp1500
g17
I2
sg18
g19
(g23
S'\x13\x00\x00\x00\x00\x00\x00\x00'
p1501
tp1502
Rp1503
sg11
(lp1504
g0
(g13
g2
Ntp1505
Rp1506
(dp1507
g17
I3
sg18
g19
(g23
S'\x00\x00\x00\x00\x00\x00\x00\x00'
p1508
tp1509
Rp1510
sg11
(lp1511
g0
(g44
g2
Ntp1512
Rp1513
(dp1514
g48
g19
(g51
S'\x00\x00\x00\x00\x00p\x8d@'
p1515
tp1516
Rp1517
sbasg57
g58
sg59
g60
sbag0
(g13
g2
Ntp1518
Rp1519
(dp1520
g17
I3
sg18
g19
(g23
S'\x03\x00\x00\x00\x00\x00\x00\x00'
p1521
tp1522
Rp1523
sg11
(lp1524
g0
(g44
g2
Ntp1525
Rp1526
(dp1527
g48
g19
(g51
S'\x00\x00\x00\x00\x00\x10{@'
p1528
tp1529
Rp1530
sbasg57
g58
sg59
g60
sbasg57
g58
sg59
g274
sbag0
(g13
g2
Ntp1531
Rp1532
(dp1533
g17
I2
sg18
g19
(g23
S'\x12\x00\x00\x00\x00\x00\x00\x00'
p1534
tp1535
Rp1536
sg11
(lp1537
g0
(g44
g2
Ntp1538
Rp1539
(dp1540
g48
g19
(g51
S'\x00\x00\x00\x00\x00@u@'
p1541
tp1542
Rp1543
sbasg57
g58
sg59
g274
sbag0
(g13
g2
Ntp1544
Rp1545
(dp1546
g17
I2
sg18
g19
(g23
S'\x0c\x00\x00\x00\x00\x00\x00\x00'
p1547
tp1548
Rp1549
sg11
(lp1550
g0
(g13
g2
Ntp1551
Rp1552
(dp1553
g17
I3
sg18
g19
(g23
S'\x07\x00\x00\x00\x00\x00\x00\x00'
p1554
tp1555
Rp1556
sg11
(lp1557
g0
(g44
g2
Ntp1558
Rp1559
(dp1560
g48
g19
(g51
S'\x00\x00\x00\x00\x00\xc0\x80@'
p1561
tp1562
Rp1563
sbasg57
g58
sg59
g87
sbag0
(g13
g2
Ntp1564
Rp1565
(dp1566
g17
I3
sg18
g19
(g23
S'\x04\x00\x00\x00\x00\x00\x00\x00'
p1567
tp1568
Rp1569
sg11
(lp1570
g0
(g44
g2
Ntp1571
Rp1572
(dp1573
g48
g19
(g51
S'\x00\x00\x00\x00\x00\xd0t@'
p1574
tp1575
Rp1576
sbasg57
g58
sg59
g87
sbasg57
g58
sg59
g274
sbag0
(g13
g2
Ntp1577
Rp1578
(dp1579
g17
I2
sg18
g19
(g23
S'\x0f\x00\x00\x00\x00\x00\x00\x00'
p1580
tp1581
Rp1582
sg11
(lp1583
g0
(g44
g2
Ntp1584
Rp1585
(dp1586
g48
g19
(g51
S'\x00\x00\x00\x00\x00\x80s@'
p1587
tp1588
Rp1589
sbasg57
g58
sg59
g274
sbasg57
g58
sg59
g253
sbag0
(g13
g2
Ntp1590
Rp1591
(dp1592
g17
I1
sg18
g19
(g23
S'B\x00\x00\x00\x00\x00\x00\x00'
p1593
tp1594
Rp1595
sg11
(lp1596
g0
(g13
g2
Ntp1597
Rp1598
(dp1599
g17
I2
sg18
g19
(g23
S'\x0c\x00\x00\x00\x00\x00\x00\x00'
p1600
tp1601
Rp1602
sg11
(lp1603
g0
(g44
g2
Ntp1604
Rp1605
(dp1606
g48
g19
(g51
S'\x00\x00\x00\x00\x00@\x91@'
p1607
tp1608
Rp1609
sbasg57
g58
sg59
g87
sbag0
(g13
g2
Ntp1610
Rp1611
(dp1612
g17
I2
sg18
g19
(g23
S'\x03\x00\x00\x00\x00\x00\x00\x00'
p1613
tp1614
Rp1615
sg11
(lp1616
g0
(g44
g2
Ntp1617
Rp1618
(dp1619
g48
g19
(g51
S'\x00\x00\x00\x00\x00 {@'
p1620
tp1621
Rp1622
sbasg57
g58
sg59
g87
sbag0
(g13
g2
Ntp1623
Rp1624
(dp1625
g17
I2
sg18
g19
(g23
S'\x05\x00\x00\x00\x00\x00\x00\x00'
p1626
tp1627
Rp1628
sg11
(lp1629
g0
(g44
g2
Ntp1630
Rp1631
(dp1632
g48
g19
(g51
S'\x00\x00\x00\x00\x00\xd0\x82@'
p1633
tp1634
Rp1635
sbasg57
g58
sg59
g87
sbag0
(g13
g2
Ntp1636
Rp1637
(dp1638
g17
I2
sg18
g19
(g23
S'\t\x00\x00\x00\x00\x00\x00\x00'
p1639
tp1640
Rp1641
sg11
(lp1642
g0
(g44
g2
Ntp1643
Rp1644
(dp1645
g48
g19
(g51
S'\x00\x00\x00\x00\x00 \x88@'
p1646
tp1647
Rp1648
sbasg57
g58
sg59
g87
sbag0
(g13
g2
Ntp1649
Rp1650
(dp1651
g17
I2
sg18
g19
(g23
S'\x0b\x00\x00\x00\x00\x00\x00\x00'
p1652
tp1653
Rp1654
sg11
(lp1655
g0
(g44
g2
Ntp1656
Rp1657
(dp1658
g48
g19
(g51
S'\x00\x00\x00\x00\x00\x98\x8c@'
p1659
tp1660
Rp1661
sbasg57
g58
sg59
g87
sbag0
(g13
g2
Ntp1662
Rp1663
(dp1664
g17
I2
sg18
g19
(g23
S'\n\x00\x00\x00\x00\x00\x00\x00'
p1665
tp1666
Rp1667
sg11
(lp1668
g0
(g13
g2
Ntp1669
Rp1670
(dp1671
g17
I3
sg18
g19
(g23
S'\x04\x00\x00\x00\x00\x00\x00\x00'
p1672
tp1673
Rp1674
sg11
(lp1675
g0
(g44
g2
Ntp1676
Rp1677
(dp1678
g48
g19
(g51
S'\x00\x00\x00\x00\x00`}@'
p1679
tp1680
Rp1681
sbasg57
g58
sg59
g60
sbag0
(g13
g2
Ntp1682
Rp1683
(dp1684
g17
I3
sg18
g19
(g23
S'\x02\x00\x00\x00\x00\x00\x00\x00'
p1685
tp1686
Rp1687
sg11
(lp1688
g0
(g44
g2
Ntp1689
Rp1690
(dp1691
g48
g19
(g51
S'\x00\x00\x00\x00\x00\xd0\x82@'
p1692
tp1693
Rp1694
sbasg57
g58
sg59
g60
sbasg57
g58
sg59
g87
sbag0
(g13
g2
Ntp1695
Rp1696
(dp1697
g17
I2
sg18
g19
(g23
S'\x08\x00\x00\x00\x00\x00\x00\x00'
p1698
tp1699
Rp1700
sg11
(lp1701
g0
(g44
g2
Ntp1702
Rp1703
(dp1704
g48
g19
(g51
S'\x00\x00\x00\x00\x00\x00w@'
p1705
tp1706
Rp1707
sbasg57
g58
sg59
g87
sbasg57
g58
sg59
g253
sbag0
(g13
g2
Ntp1708
Rp1709
(dp1710
g17
I1
sg18
g19
(g23
S'D\x00\x00\x00\x00\x00\x00\x00'
p1711
tp1712
Rp1713
sg11
(lp1714
g0
(g13
g2
Ntp1715
Rp1716
(dp1717
g17
I2
sg18
g19
(g23
S'\x03\x00\x00\x00\x00\x00\x00\x00'
p1718
tp1719
Rp1720
sg11
(lp1721
g0
(g44
g2
Ntp1722
Rp1723
(dp1724
g48
g19
(g51
S'\x00\x00\x00\x00\x00 u@'
p1725
tp1726
Rp1727
sbasg57
g58
sg59
g87
sbag0
(g13
g2
Ntp1728
Rp1729
(dp1730
g17
I2
sg18
g19
(g23
S'\x05\x00\x00\x00\x00\x00\x00\x00'
p1731
tp1732
Rp1733
sg11
(lp1734
g0
(g44
g2
Ntp1735
Rp1736
(dp1737
g48
g19
(g51
S'\x00\x00\x00\x00\x00`e@'
p1738
tp1739
Rp1740
sbasg57
g58
sg59
g87
sbag0
(g13
g2
Ntp1741
Rp1742
(dp1743
g17
I2
sg18
g19
(g23
S'\x01\x00\x00\x00\x00\x00\x00\x00'
p1744
tp1745
Rp1746
sg11
(lp1747
g0
(g13
g2
Ntp1748
Rp1749
(dp1750
g17
I3
sg18
g19
(g23
S'\x01\x00\x00\x00\x00\x00\x00\x00'
p1751
tp1752
Rp1753
sg11
(lp1754
g0
(g44
g2
Ntp1755
Rp1756
(dp1757
g48
g19
(g51
S'\x00\x00\x00\x00\x00\xc0p@'
p1758
tp1759
Rp1760
sbasg57
g58
sg59
g187
sbag0
(g13
g2
Ntp1761
Rp1762
(dp1763
g17
I3
sg18
g19
(g23
S'\x02\x00\x00\x00\x00\x00\x00\x00'
p1764
tp1765
Rp1766
sg11
(lp1767
g0
(g44
g2
Ntp1768
Rp1769
(dp1770
g48
g19
(g51
S'\x00\x00\x00\x00\x00\xb4\x91@'
p1771
tp1772
Rp1773
sbasg57
g58
sg59
g187
sbasg57
g58
sg59
g87
sbag0
(g13
g2
Ntp1774
Rp1775
(dp1776
g17
I2
sg18
g19
(g23
S'\x08\x00\x00\x00\x00\x00\x00\x00'
p1777
tp1778
Rp1779
sg11
(lp1780
g0
(g44
g2
Ntp1781
Rp1782
(dp1783
g48
g19
(g51
S'\x00\x00\x00\x00\x00 \x8c@'
p1784
tp1785
Rp1786
sbasg57
g58
sg59
g87
sbag0
(g13
g2
Ntp1787
Rp1788
(dp1789
g17
I2
sg18
g19
(g23
S'\x0b\x00\x00\x00\x00\x00\x00\x00'
p1790
tp1791
Rp1792
sg11
(lp1793
g0
(g44
g2
Ntp1794
Rp1795
(dp1796
g48
g19
(g51
S'\x00\x00\x00\x00\x00h\x8e@'
p1797
tp1798
Rp1799
sbasg57
g58
sg59
g87
sbasg57
g58
sg59
g253
sbag0
(g13
g2
Ntp1800
Rp1801
(dp1802
g17
I1
sg18
g19
(g23
S'M\x00\x00\x00\x00\x00\x00\x00'
p1803
tp1804
Rp1805
sg11
(lp1806
g0
(g13
g2
Ntp1807
Rp1808
(dp1809
g17
I2
sg18
g19
(g23
S'\x11\x00\x00\x00\x00\x00\x00\x00'
p1810
tp1811
Rp1812
sg11
(lp1813
g0
(g13
g2
Ntp1814
Rp1815
(dp1816
g17
I3
sg18
g19
(g23
S'\x04\x00\x00\x00\x00\x00\x00\x00'
p1817
tp1818
Rp1819
sg11
(lp1820
g0
(g13
g2
Ntp1821
Rp1822
(dp1823
g17
I4
sg18
g19
(g23
S'M\x00\x00\x00\x00\x00\x00\x00'
p1824
tp1825
Rp1826
sg11
(lp1827
g0
(g13
g2
Ntp1828
Rp1829
(dp1830
g17
I5
sg18
g19
(g23
S'M\x00\x00\x00\x00\x00\x00\x00'
p1831
tp1832
Rp1833
sg11
(lp1834
g0
(g13
g2
Ntp1835
Rp1836
(dp1837
g17
I6
sg18
g19
(g23
S'M\x00\x00\x00\x00\x00\x00\x00'
p1838
tp1839
Rp1840
sg11
(lp1841
g0
(g13
g2
Ntp1842
Rp1843
(dp1844
g17
I7
sg18
g19
(g23
S'M\x00\x00\x00\x00\x00\x00\x00'
p1845
tp1846
Rp1847
sg11
(lp1848
g0
(g13
g2
Ntp1849
Rp1850
(dp1851
g17
I8
sg18
g19
(g23
S'\x01\x00\x00\x00\x00\x00\x00\x00'
p1852
tp1853
Rp1854
sg11
(lp1855
g0
(g13
g2
Ntp1856
Rp1857
(dp1858
g17
I9
sg18
g19
(g23
S'\x01\x00\x00\x00\x00\x00\x00\x00'
p1859
tp1860
Rp1861
sg11
(lp1862
g0
(g13
g2
Ntp1863
Rp1864
(dp1865
g17
I10
sg18
g19
(g23
S'\x01\x00\x00\x00\x00\x00\x00\x00'
p1866
tp1867
Rp1868
sg11
(lp1869
g0
(g13
g2
Ntp1870
Rp1871
(dp1872
g17
I11
sg18
g19
(g23
S'M\x00\x00\x00\x00\x00\x00\x00'
p1873
tp1874
Rp1875
sg11
(lp1876
g0
(g13
g2
Ntp1877
Rp1878
(dp1879
g17
I12
sg18
g19
(g23
S'M\x00\x00\x00\x00\x00\x00\x00'
p1880
tp1881
Rp1882
sg11
(lp1883
g0
(g13
g2
Ntp1884
Rp1885
(dp1886
g17
I13
sg18
g19
(g23
S'M\x00\x00\x00\x00\x00\x00\x00'
p1887
tp1888
Rp1889
sg11
(lp1890
g0
(g13
g2
Ntp1891
Rp1892
(dp1893
g17
I14
sg18
g19
(g23
S'M\x00\x00\x00\x00\x00\x00\x00'
p1894
tp1895
Rp1896
sg11
(lp1897
g0
(g13
g2
Ntp1898
Rp1899
(dp1900
g17
I15
sg18
g19
(g23
S'\x01\x00\x00\x00\x00\x00\x00\x00'
p1901
tp1902
Rp1903
sg11
(lp1904
g0
(g13
g2
Ntp1905
Rp1906
(dp1907
g17
I16
sg18
g19
(g23
S'M\x00\x00\x00\x00\x00\x00\x00'
p1908
tp1909
Rp1910
sg11
(lp1911
g0
(g13
g2
Ntp1912
Rp1913
(dp1914
g17
I17
sg18
g19
(g23
S'\x01\x00\x00\x00\x00\x00\x00\x00'
p1915
tp1916
Rp1917
sg11
(lp1918
g0
(g13
g2
Ntp1919
Rp1920
(dp1921
g17
I18
sg18
g19
(g23
S'\x01\x00\x00\x00\x00\x00\x00\x00'
p1922
tp1923
Rp1924
sg11
(lp1925
g0
(g13
g2
Ntp1926
Rp1927
(dp1928
g17
I19
sg18
g19
(g23
S'M\x00\x00\x00\x00\x00\x00\x00'
p1929
tp1930
Rp1931
sg11
(lp1932
g0
(g13
g2
Ntp1933
Rp1934
(dp1935
g17
I20
sg18
g19
(g23
S'M\x00\x00\x00\x00\x00\x00\x00'
p1936
tp1937
Rp1938
sg11
(lp1939
g0
(g13
g2
Ntp1940
Rp1941
(dp1942
g17
I21
sg18
g19
(g23
S'M\x00\x00\x00\x00\x00\x00\x00'
p1943
tp1944
Rp1945
sg11
(lp1946
g0
(g13
g2
Ntp1947
Rp1948
(dp1949
g17
I22
sg18
g19
(g23
S'M\x00\x00\x00\x00\x00\x00\x00'
p1950
tp1951
Rp1952
sg11
(lp1953
g0
(g13
g2
Ntp1954
Rp1955
(dp1956
g17
I23
sg18
g19
(g23
S'M\x00\x00\x00\x00\x00\x00\x00'
p1957
tp1958
Rp1959
sg11
(lp1960
g0
(g13
g2
Ntp1961
Rp1962
(dp1963
g17
I24
sg18
g19
(g23
S'M\x00\x00\x00\x00\x00\x00\x00'
p1964
tp1965
Rp1966
sg11
(lp1967
g0
(g13
g2
Ntp1968
Rp1969
(dp1970
g17
I25
sg18
g19
(g23
S'M\x00\x00\x00\x00\x00\x00\x00'
p1971
tp1972
Rp1973
sg11
(lp1974
g0
(g44
g2
Ntp1975
Rp1976
(dp1977
g48
g19
(g51
S'\x00\x00\x00\x00\x00\x98}@'
p1978
tp1979
Rp1980
sbasg57
g58
sg59
g253
sbasg57
g58
sg59
g253
sbasg57
g58
sg59
g253
sbasg57
g58
sg59
g253
sbasg57
g58
sg59
g253
sbasg57
g58
sg59
g253
sbasg57
g58
sg59
g253
sbasg57
g58
sg59
g187
sbasg57
g58
sg59
g187
sbasg57
g58
sg59
g253
sbasg57
g58
sg59
g187
sbasg57
g58
sg59
g253
sbasg57
g58
sg59
g253
sbasg57
g58
sg59
g253
sbasg57
g58
sg59
g253
sbasg57
g58
sg59
g187
sbasg57
g58
sg59
g187
sbasg57
g58
sg59
g187
sbasg57
g58
sg59
g253
sbasg57
g58
sg59
g253
sbasg57
g58
sg59
g253
sbasg57
g58
sg59
g253
sbasg57
g58
sg59
g60
sbag0
(g13
g2
Ntp1981
Rp1982
(dp1983
g17
I3
sg18
g19
(g23
S'\x00\x00\x00\x00\x00\x00\x00\x00'
p1984
tp1985
Rp1986
sg11
(lp1987
g0
(g44
g2
Ntp1988
Rp1989
(dp1990
g48
g19
(g51
S'\x00\x00\x00\x00\x00@\x7f@'
p1991
tp1992
Rp1993
sbasg57
g58
sg59
g60
sbasg57
g58
sg59
g274
sbag0
(g13
g2
Ntp1994
Rp1995
(dp1996
g17
I2
sg18
g19
(g23
S'\x08\x00\x00\x00\x00\x00\x00\x00'
p1997
tp1998
Rp1999
sg11
(lp2000
g0
(g13
g2
Ntp2001
Rp2002
(dp2003
g17
I3
sg18
g19
(g23
S'\x0b\x00\x00\x00\x00\x00\x00\x00'
p2004
tp2005
Rp2006
sg11
(lp2007
g0
(g44
g2
Ntp2008
Rp2009
(dp2010
g48
g19
(g51
S'\x00\x00\x00\x00\x00 ~@'
p2011
tp2012
Rp2013
sbasg57
g58
sg59
g87
sbag0
(g13
g2
Ntp2014
Rp2015
(dp2016
g17
I3
sg18
g19
(g23
S'\x03\x00\x00\x00\x00\x00\x00\x00'
p2017
tp2018
Rp2019
sg11
(lp2020
g0
(g44
g2
Ntp2021
Rp2022
(dp2023
g48
g19
(g51
S'\x00\x00\x00\x00\x00pq@'
p2024
tp2025
Rp2026
sbasg57
g58
sg59
g87
sbag0
(g13
g2
Ntp2027
Rp2028
(dp2029
g17
I3
sg18
g19
(g23
S'\x05\x00\x00\x00\x00\x00\x00\x00'
p2030
tp2031
Rp2032
sg11
(lp2033
g0
(g44
g2
Ntp2034
Rp2035
(dp2036
g48
g19
(g51
S'\x00\x00\x00\x00\x00\x00\x85@'
p2037
tp2038
Rp2039
sbasg57
g58
sg59
g87
sbasg57
g58
sg59
g274
sbag0
(g13
g2
Ntp2040
Rp2041
(dp2042
g17
I2
sg18
g19
(g23
S'\t\x00\x00\x00\x00\x00\x00\x00'
p2043
tp2044
Rp2045
sg11
(lp2046
g0
(g13
g2
Ntp2047
Rp2048
(dp2049
g17
I3
sg18
g19
(g23
S'\t\x00\x00\x00\x00\x00\x00\x00'
p2050
tp2051
Rp2052
sg11
(lp2053
g0
(g44
g2
Ntp2054
Rp2055
(dp2056
g48
g19
(g51
S'\x00\x00\x00\x00\x00\xf8\x85@'
p2057
tp2058
Rp2059
sbasg57
g58
sg59
g87
sbag0
(g13
g2
Ntp2060
Rp2061
(dp2062
g17
I3
sg18
g19
(g23
S'\n\x00\x00\x00\x00\x00\x00\x00'
p2063
tp2064
Rp2065
sg11
(lp2066
g0
(g44
g2
Ntp2067
Rp2068
(dp2069
g48
g19
(g51
S'\x00\x00\x00\x00\x00\xb0s@'
p2070
tp2071
Rp2072
sbasg57
g58
sg59
g87
sbasg57
g58
sg59
g274
sbag0
(g13
g2
Ntp2073
Rp2074
(dp2075
g17
I2
sg18
g19
(g23
S'\n\x00\x00\x00\x00\x00\x00\x00'
p2076
tp2077
Rp2078
sg11
(lp2079
g0
(g13
g2
Ntp2080
Rp2081
(dp2082
g17
I3
sg18
g19
(g23
S'\x04\x00\x00\x00\x00\x00\x00\x00'
p2083
tp2084
Rp2085
sg11
(lp2086
g0
(g13
g2
Ntp2087
Rp2088
(dp2089
g17
I4
sg18
g19
(g23
S'\x04\x00\x00\x00\x00\x00\x00\x00'
p2090
tp2091
Rp2092
sg11
(lp2093
g0
(g13
g2
Ntp2094
Rp2095
(dp2096
g17
I5
sg18
g19
(g23
S'M\x00\x00\x00\x00\x00\x00\x00'
p2097
tp2098
Rp2099
sg11
(lp2100
g0
(g13
g2
Ntp2101
Rp2102
(dp2103
g17
I6
sg18
g19
(g23
S'M\x00\x00\x00\x00\x00\x00\x00'
p2104
tp2105
Rp2106
sg11
(lp2107
g0
(g13
g2
Ntp2108
Rp2109
(dp2110
g17
I7
sg18
g19
(g23
S'\x01\x00\x00\x00\x00\x00\x00\x00'
p2111
tp2112
Rp2113
sg11
(lp2114
g0
(g13
g2
Ntp2115
Rp2116
(dp2117
g17
I8
sg18
g19
(g23
S'\x01\x00\x00\x00\x00\x00\x00\x00'
p2118
tp2119
Rp2120
sg11
(lp2121
g0
(g13
g2
Ntp2122
Rp2123
(dp2124
g17
I9
sg18
g19
(g23
S'M\x00\x00\x00\x00\x00\x00\x00'
p2125
tp2126
Rp2127
sg11
(lp2128
g0
(g13
g2
Ntp2129
Rp2130
(dp2131
g17
I10
sg18
g19
(g23
S'M\x00\x00\x00\x00\x00\x00\x00'
p2132
tp2133
Rp2134
sg11
(lp2135
g0
(g13
g2
Ntp2136
Rp2137
(dp2138
g17
I11
sg18
g19
(g23
S'M\x00\x00\x00\x00\x00\x00\x00'
p2139
tp2140
Rp2141
sg11
(lp2142
g0
(g13
g2
Ntp2143
Rp2144
(dp2145
g17
I12
sg18
g19
(g23
S'M\x00\x00\x00\x00\x00\x00\x00'
p2146
tp2147
Rp2148
sg11
(lp2149
g0
(g13
g2
Ntp2150
Rp2151
(dp2152
g17
I13
sg18
g19
(g23
S'M\x00\x00\x00\x00\x00\x00\x00'
p2153
tp2154
Rp2155
sg11
(lp2156
g0
(g13
g2
Ntp2157
Rp2158
(dp2159
g17
I14
sg18
g19
(g23
S'M\x00\x00\x00\x00\x00\x00\x00'
p2160
tp2161
Rp2162
sg11
(lp2163
g0
(g13
g2
Ntp2164
Rp2165
(dp2166
g17
I15
sg18
g19
(g23
S'\x01\x00\x00\x00\x00\x00\x00\x00'
p2167
tp2168
Rp2169
sg11
(lp2170
g0
(g13
g2
Ntp2171
Rp2172
(dp2173
g17
I16
sg18
g19
(g23
S'\x01\x00\x00\x00\x00\x00\x00\x00'
p2174
tp2175
Rp2176
sg11
(lp2177
g0
(g13
g2
Ntp2178
Rp2179
(dp2180
g17
I17
sg18
g19
(g23
S'M\x00\x00\x00\x00\x00\x00\x00'
p2181
tp2182
Rp2183
sg11
(lp2184
g0
(g13
g2
Ntp2185
Rp2186
(dp2187
g17
I18
sg18
g19
(g23
S'\x01\x00\x00\x00\x00\x00\x00\x00'
p2188
tp2189
Rp2190
sg11
(lp2191
g0
(g13
g2
Ntp2192
Rp2193
(dp2194
g17
I19
sg18
g19
(g23
S'M\x00\x00\x00\x00\x00\x00\x00'
p2195
tp2196
Rp2197
sg11
(lp2198
g0
(g13
g2
Ntp2199
Rp2200
(dp2201
g17
I20
sg18
g19
(g23
S'M\x00\x00\x00\x00\x00\x00\x00'
p2202
tp2203
Rp2204
sg11
(lp2205
g0
(g13
g2
Ntp2206
Rp2207
(dp2208
g17
I21
sg18
g19
(g23
S'M\x00\x00\x00\x00\x00\x00\x00'
p2209
tp2210
Rp2211
sg11
(lp2212
g0
(g13
g2
Ntp2213
Rp2214
(dp2215
g17
I22
sg18
g19
(g23
S'M\x00\x00\x00\x00\x00\x00\x00'
p2216
tp2217
Rp2218
sg11
(lp2219
g0
(g13
g2
Ntp2220
Rp2221
(dp2222
g17
I23
sg18
g19
(g23
S'\x01\x00\x00\x00\x00\x00\x00\x00'
p2223
tp2224
Rp2225
sg11
(lp2226
g0
(g13
g2
Ntp2227
Rp2228
(dp2229
g17
I24
sg18
g19
(g23
S'\x01\x00\x00\x00\x00\x00\x00\x00'
p2230
tp2231
Rp2232
sg11
(lp2233
g0
(g13
g2
Ntp2234
Rp2235
(dp2236
g17
I25
sg18
g19
(g23
S'M\x00\x00\x00\x00\x00\x00\x00'
p2237
tp2238
Rp2239
sg11
(lp2240
g0
(g44
g2
Ntp2241
Rp2242
(dp2243
g48
g19
(g51
S'\x00\x00\x00\x00\x008v@'
p2244
tp2245
Rp2246
sbasg57
g58
sg59
g253
sbasg57
g58
sg59
g187
sbasg57
g58
sg59
g187
sbasg57
g58
sg59
g253
sbasg57
g58
sg59
g253
sbasg57
g58
sg59
g253
sbasg57
g58
sg59
g253
sbasg57
g58
sg59
g187
sbasg57
g58
sg59
g253
sbasg57
g58
sg59
g187
sbasg57
g58
sg59
g187
sbasg57
g58
sg59
g253
sbasg57
g58
sg59
g253
sbasg57
g58
sg59
g253
sbasg57
g58
sg59
g253
sbasg57
g58
sg59
g253
sbasg57
g58
sg59
g253
sbasg57
g58
sg59
g187
sbasg57
g58
sg59
g187
sbasg57
g58
sg59
g253
sbasg57
g58
sg59
g253
sbasg57
g58
sg59
g60
sbasg57
g58
sg59
g60
sbag0
(g13
g2
Ntp2247
Rp2248
(dp2249
g17
I3
sg18
g19
(g23
S'\x00\x00\x00\x00\x00\x00\x00\x00'
p2250
tp2251
Rp2252
sg11
(lp2253
g0
(g44
g2
Ntp2254
Rp2255
(dp2256
g48
g19
(g51
S'\x00\x00\x00\x00\x00\x10w@'
p2257
tp2258
Rp2259
sbasg57
g58
sg59
g60
sbag0
(g13
g2
Ntp2260
Rp2261
(dp2262
g17
I3
sg18
g19
(g23
S'\x03\x00\x00\x00\x00\x00\x00\x00'
p2263
tp2264
Rp2265
sg11
(lp2266
g0
(g44
g2
Ntp2267
Rp2268
(dp2269
g48
g19
(g51
S'\x00\x00\x00\x00\x00\xf0\x83@'
p2270
tp2271
Rp2272
sbasg57
g58
sg59
g60
sbag0
(g13
g2
Ntp2273
Rp2274
(dp2275
g17
I3
sg18
g19
(g23
S'\x06\x00\x00\x00\x00\x00\x00\x00'
p2276
tp2277
Rp2278
sg11
(lp2279
g0
(g44
g2
Ntp2280
Rp2281
(dp2282
g48
g19
(g51
S'\x00\x00\x00\x00\x00H\x82@'
p2283
tp2284
Rp2285
sbasg57
g58
sg59
g60
sbasg57
g58
sg59
g274
sbag0
(g13
g2
Ntp2286
Rp2287
(dp2288
g17
I2
sg18
g19
(g23
S'\x0c\x00\x00\x00\x00\x00\x00\x00'
p2289
tp2290
Rp2291
sg11
(lp2292
g0
(g13
g2
Ntp2293
Rp2294
(dp2295
g17
I3
sg18
g19
(g23
S'\t\x00\x00\x00\x00\x00\x00\x00'
p2296
tp2297
Rp2298
sg11
(lp2299
g0
(g44
g2
Ntp2300
Rp2301
(dp2302
g48
g19
(g51
S'\x00\x00\x00\x00\x00\xc8\x87@'
p2303
tp2304
Rp2305
sbasg57
g58
sg59
g87
sbag0
(g13
g2
Ntp2306
Rp2307
(dp2308
g17
I3
sg18
g19
(g23
S'\x08\x00\x00\x00\x00\x00\x00\x00'
p2309
tp2310
Rp2311
sg11
(lp2312
g0
(g44
g2
Ntp2313
Rp2314
(dp2315
g48
g19
(g51
S'\x00\x00\x00\x00\x00P}@'
p2316
tp2317
Rp2318
sbasg57
g58
sg59
g87
sbag0
(g13
g2
Ntp2319
Rp2320
(dp2321
g17
I3
sg18
g19
(g23
S'\x03\x00\x00\x00\x00\x00\x00\x00'
p2322
tp2323
Rp2324
sg11
(lp2325
g0
(g44
g2
Ntp2326
Rp2327
(dp2328
g48
g19
(g51
S'\x00\x00\x00\x00\x00,\x91@'
p2329
tp2330
Rp2331
sbasg57
g58
sg59
g87
sbag0
(g13
g2
Ntp2332
Rp2333
(dp2334
g17
I3
sg18
g19
(g23
S'\x0b\x00\x00\x00\x00\x00\x00\x00'
p2335
tp2336
Rp2337
sg11
(lp2338
g0
(g44
g2
Ntp2339
Rp2340
(dp2341
g48
g19
(g51
S'\x00\x00\x00\x00\x00\xe0p@'
p2342
tp2343
Rp2344
sbasg57
g58
sg59
g87
sbasg57
g58
sg59
g274
sbag0
(g13
g2
Ntp2345
Rp2346
(dp2347
g17
I2
sg18
g19
(g23
S'\x12\x00\x00\x00\x00\x00\x00\x00'
p2348
tp2349
Rp2350
sg11
(lp2351
g0
(g13
g2
Ntp2352
Rp2353
(dp2354
g17
I3
sg18
g19
(g23
S'\x02\x00\x00\x00\x00\x00\x00\x00'
p2355
tp2356
Rp2357
sg11
(lp2358
g0
(g44
g2
Ntp2359
Rp2360
(dp2361
g48
g19
(g51
S'\x00\x00\x00\x00\x00\xa0s@'
p2362
tp2363
Rp2364
sbasg57
g58
sg59
g60
sbag0
(g13
g2
Ntp2365
Rp2366
(dp2367
g17
I3
sg18
g19
(g23
S'\x01\x00\x00\x00\x00\x00\x00\x00'
p2368
tp2369
Rp2370
sg11
(lp2371
g0
(g44
g2
Ntp2372
Rp2373
(dp2374
g48
g19
(g51
S'\x00\x00\x00\x00\x00pr@'
p2375
tp2376
Rp2377
sbasg57
g58
sg59
g60
sbag0
(g13
g2
Ntp2378
Rp2379
(dp2380
g17
I3
sg18
g19
(g23
S'\x03\x00\x00\x00\x00\x00\x00\x00'
p2381
tp2382
Rp2383
sg11
(lp2384
g0
(g44
g2
Ntp2385
Rp2386
(dp2387
g48
g19
(g51
S'\x00\x00\x00\x00\x00\xb0\x82@'
p2388
tp2389
Rp2390
sbasg57
g58
sg59
g60
sbasg57
g58
sg59
g274
sbag0
(g13
g2
Ntp2391
Rp2392
(dp2393
g17
I2
sg18
g19
(g23
S'\x07\x00\x00\x00\x00\x00\x00\x00'
p2394
tp2395
Rp2396
sg11
(lp2397
g0
(g44
g2
Ntp2398
Rp2399
(dp2400
g48
g19
(g51
S'\x00\x00\x00\x00\x00\x80a@'
p2401
tp2402
Rp2403
sbasg57
g58
sg59
g274
sbag0
(g13
g2
Ntp2404
Rp2405
(dp2406
g17
I2
sg18
g19
(g23
S'\x17\x00\x00\x00\x00\x00\x00\x00'
p2407
tp2408
Rp2409
sg11
(lp2410
g0
(g44
g2
Ntp2411
Rp2412
(dp2413
g48
g19
(g51
S'\x00\x00\x00\x00\x000\x87@'
p2414
tp2415
Rp2416
sbasg57
g58
sg59
g274
sbag0
(g13
g2
Ntp2417
Rp2418
(dp2419
g17
I2
sg18
g19
(g23
S'\r\x00\x00\x00\x00\x00\x00\x00'
p2420
tp2421
Rp2422
sg11
(lp2423
g0
(g44
g2
Ntp2424
Rp2425
(dp2426
g48
g19
(g51
S'\x00\x00\x00\x00\x00\xf0v@'
p2427
tp2428
Rp2429
sbasg57
g58
sg59
g274
sbag0
(g13
g2
Ntp2430
Rp2431
(dp2432
g17
I2
sg18
g19
(g23
S'\x14\x00\x00\x00\x00\x00\x00\x00'
p2433
tp2434
Rp2435
sg11
(lp2436
g0
(g44
g2
Ntp2437
Rp2438
(dp2439
g48
g19
(g51
S'\x00\x00\x00\x00\x00P\x85@'
p2440
tp2441
Rp2442
sbasg57
g58
sg59
g274
sbag0
(g13
g2
Ntp2443
Rp2444
(dp2445
g17
I2
sg18
g19
(g23
S'\x15\x00\x00\x00\x00\x00\x00\x00'
p2446
tp2447
Rp2448
sg11
(lp2449
g0
(g44
g2
Ntp2450
Rp2451
(dp2452
g48
g19
(g51
S'\x00\x00\x00\x00\x00\xb0s@'
p2453
tp2454
Rp2455
sbasg57
g58
sg59
g274
sbasg57
g58
sg59
g253
sbag0
(g13
g2
Ntp2456
Rp2457
(dp2458
g17
I1
sg18
g19
(g23
S'2\x00\x00\x00\x00\x00\x00\x00'
p2459
tp2460
Rp2461
sg11
(lp2462
g0
(g13
g2
Ntp2463
Rp2464
(dp2465
g17
I2
sg18
g19
(g23
S'\x07\x00\x00\x00\x00\x00\x00\x00'
p2466
tp2467
Rp2468
sg11
(lp2469
g0
(g13
g2
Ntp2470
Rp2471
(dp2472
g17
I3
sg18
g19
(g23
S'\x0b\x00\x00\x00\x00\x00\x00\x00'
p2473
tp2474
Rp2475
sg11
(lp2476
g0
(g44
g2
Ntp2477
Rp2478
(dp2479
g48
g19
(g51
S'\x00\x00\x00\x00\x00\xd0\x9f@'
p2480
tp2481
Rp2482
sbasg57
g58
sg59
g274
sbag0
(g13
g2
Ntp2483
Rp2484
(dp2485
g17
I3
sg18
g19
(g23
S'\x12\x00\x00\x00\x00\x00\x00\x00'
p2486
tp2487
Rp2488
sg11
(lp2489
g0
(g44
g2
Ntp2490
Rp2491
(dp2492
g48
g19
(g51
S'\x00\x00\x00\x00\x00\xb0\x88@'
p2493
tp2494
Rp2495
sbasg57
g58
sg59
g274
sbag0
(g13
g2
Ntp2496
Rp2497
(dp2498
g17
I3
sg18
g19
(g23
S'\x13\x00\x00\x00\x00\x00\x00\x00'
p2499
tp2500
Rp2501
sg11
(lp2502
g0
(g44
g2
Ntp2503
Rp2504
(dp2505
g48
g19
(g51
S'\x00\x00\x00\x00\x00\xd0\x8e@'
p2506
tp2507
Rp2508
sbasg57
g58
sg59
g274
sbasg57
g58
sg59
g87
sbag0
(g13
g2
Ntp2509
Rp2510
(dp2511
g17
I2
sg18
g19
(g23
S'\x0c\x00\x00\x00\x00\x00\x00\x00'
p2512
tp2513
Rp2514
sg11
(lp2515
g0
(g13
g2
Ntp2516
Rp2517
(dp2518
g17
I3
sg18
g19
(g23
S'\x01\x00\x00\x00\x00\x00\x00\x00'
p2519
tp2520
Rp2521
sg11
(lp2522
g0
(g44
g2
Ntp2523
Rp2524
(dp2525
g48
g19
(g51
S'\x00\x00\x00\x00\x00@y@'
p2526
tp2527
Rp2528
sbasg57
g58
sg59
g60
sbag0
(g13
g2
Ntp2529
Rp2530
(dp2531
g17
I3
sg18
g19
(g23
S'\x00\x00\x00\x00\x00\x00\x00\x00'
p2532
tp2533
Rp2534
sg11
(lp2535
g0
(g44
g2
Ntp2536
Rp2537
(dp2538
g48
g19
(g51
S'\x00\x00\x00\x00\x00\xf0|@'
p2539
tp2540
Rp2541
sbasg57
g58
sg59
g60
sbasg57
g58
sg59
g87
sbag0
(g13
g2
Ntp2542
Rp2543
(dp2544
g17
I2
sg18
g19
(g23
S'\x01\x00\x00\x00\x00\x00\x00\x00'
p2545
tp2546
Rp2547
sg11
(lp2548
g0
(g44
g2
Ntp2549
Rp2550
(dp2551
g48
g19
(g51
S'\x00\x00\x00\x00\x00\x18\x83@'
p2552
tp2553
Rp2554
sbasg57
g58
sg59
g87
sbag0
(g13
g2
Ntp2555
Rp2556
(dp2557
g17
I2
sg18
g19
(g23
S'\x08\x00\x00\x00\x00\x00\x00\x00'
p2558
tp2559
Rp2560
sg11
(lp2561
g0
(g13
g2
Ntp2562
Rp2563
(dp2564
g17
I3
sg18
g19
(g23
S'\x10\x00\x00\x00\x00\x00\x00\x00'
p2565
tp2566
Rp2567
sg11
(lp2568
g0
(g44
g2
Ntp2569
Rp2570
(dp2571
g48
g19
(g51
S'\x00\x00\x00\x00\x00Pq@'
p2572
tp2573
Rp2574
sbasg57
g58
sg59
g274
sbag0
(g13
g2
Ntp2575
Rp2576
(dp2577
g17
I3
sg18
g19
(g23
S'\x07\x00\x00\x00\x00\x00\x00\x00'
p2578
tp2579
Rp2580
sg11
(lp2581
g0
(g44
g2
Ntp2582
Rp2583
(dp2584
g48
g19
(g51
S'\x00\x00\x00\x00\x00\xa0{@'
p2585
tp2586
Rp2587
sbasg57
g58
sg59
g274
sbag0
(g13
g2
Ntp2588
Rp2589
(dp2590
g17
I3
sg18
g19
(g23
S'\x0c\x00\x00\x00\x00\x00\x00\x00'
p2591
tp2592
Rp2593
sg11
(lp2594
g0
(g44
g2
Ntp2595
Rp2596
(dp2597
g48
g19
(g51
S'\x00\x00\x00\x00\x00\xf0\x7f@'
p2598
tp2599
Rp2600
sbasg57
g58
sg59
g274
sbasg57
g58
sg59
g87
sbag0
(g13
g2
Ntp2601
Rp2602
(dp2603
g17
I2
sg18
g19
(g23
S'\x05\x00\x00\x00\x00\x00\x00\x00'
p2604
tp2605
Rp2606
sg11
(lp2607
g0
(g13
g2
Ntp2608
Rp2609
(dp2610
g17
I3
sg18
g19
(g23
S'\x03\x00\x00\x00\x00\x00\x00\x00'
p2611
tp2612
Rp2613
sg11
(lp2614
g0
(g44
g2
Ntp2615
Rp2616
(dp2617
g48
g19
(g51
S'\x00\x00\x00\x00\x00\xb0w@'
p2618
tp2619
Rp2620
sbasg57
g58
sg59
g60
sbag0
(g13
g2
Ntp2621
Rp2622
(dp2623
g17
I3
sg18
g19
(g23
S'\x05\x00\x00\x00\x00\x00\x00\x00'
p2624
tp2625
Rp2626
sg11
(lp2627
g0
(g44
g2
Ntp2628
Rp2629
(dp2630
g48
g19
(g51
S'\x00\x00\x00\x00\x00x\x9a@'
p2631
tp2632
Rp2633
sbasg57
g58
sg59
g60
sbag0
(g13
g2
Ntp2634
Rp2635
(dp2636
g17
I3
sg18
g19
(g23
S'\x00\x00\x00\x00\x00\x00\x00\x00'
p2637
tp2638
Rp2639
sg11
(lp2640
g0
(g44
g2
Ntp2641
Rp2642
(dp2643
g48
g19
(g51
S'\x00\x00\x00\x00\x00w\xb1@'
p2644
tp2645
Rp2646
sbasg57
g58
sg59
g60
sbasg57
g58
sg59
g87
sbag0
(g13
g2
Ntp2647
Rp2648
(dp2649
g17
I2
sg18
g19
(g23
S'\x03\x00\x00\x00\x00\x00\x00\x00'
p2650
tp2651
Rp2652
sg11
(lp2653
g0
(g13
g2
Ntp2654
Rp2655
(dp2656
g17
I3
sg18
g19
(g23
S'\x00\x00\x00\x00\x00\x00\x00\x00'
p2657
tp2658
Rp2659
sg11
(lp2660
g0
(g44
g2
Ntp2661
Rp2662
(dp2663
g48
g19
(g51
S'\x00\x00\x00\x00\x00\xe4\x9e@'
p2664
tp2665
Rp2666
sbasg57
g58
sg59
g60
sbag0
(g13
g2
Ntp2667
Rp2668
(dp2669
g17
I3
sg18
g19
(g23
S'\x06\x00\x00\x00\x00\x00\x00\x00'
p2670
tp2671
Rp2672
sg11
(lp2673
g0
(g44
g2
Ntp2674
Rp2675
(dp2676
g48
g19
(g51
S'\x00\x00\x00\x00\x008\x96@'
p2677
tp2678
Rp2679
sbasg57
g58
sg59
g60
sbasg57
g58
sg59
g87
sbag0
(g13
g2
Ntp2680
Rp2681
(dp2682
g17
I2
sg18
g19
(g23
S'\x04\x00\x00\x00\x00\x00\x00\x00'
p2683
tp2684
Rp2685
sg11
(lp2686
g0
(g13
g2
Ntp2687
Rp2688
(dp2689
g17
I3
sg18
g19
(g23
S'2\x00\x00\x00\x00\x00\x00\x00'
p2690
tp2691
Rp2692
sg11
(lp2693
g0
(g13
g2
Ntp2694
Rp2695
(dp2696
g17
I4
sg18
g19
(g23
S'2\x00\x00\x00\x00\x00\x00\x00'
p2697
tp2698
Rp2699
sg11
(lp2700
g0
(g13
g2
Ntp2701
Rp2702
(dp2703
g17
I5
sg18
g19
(g23
S'2\x00\x00\x00\x00\x00\x00\x00'
p2704
tp2705
Rp2706
sg11
(lp2707
g0
(g13
g2
Ntp2708
Rp2709
(dp2710
g17
I6
sg18
g19
(g23
S'\x02\x00\x00\x00\x00\x00\x00\x00'
p2711
tp2712
Rp2713
sg11
(lp2714
g0
(g13
g2
Ntp2715
Rp2716
(dp2717
g17
I7
sg18
g19
(g23
S'\x01\x00\x00\x00\x00\x00\x00\x00'
p2718
tp2719
Rp2720
sg11
(lp2721
g0
(g13
g2
Ntp2722
Rp2723
(dp2724
g17
I8
sg18
g19
(g23
S'2\x00\x00\x00\x00\x00\x00\x00'
p2725
tp2726
Rp2727
sg11
(lp2728
g0
(g13
g2
Ntp2729
Rp2730
(dp2731
g17
I9
sg18
g19
(g23
S'\x01\x00\x00\x00\x00\x00\x00\x00'
p2732
tp2733
Rp2734
sg11
(lp2735
g0
(g13
g2
Ntp2736
Rp2737
(dp2738
g17
I10
sg18
g19
(g23
S'\x01\x00\x00\x00\x00\x00\x00\x00'
p2739
tp2740
Rp2741
sg11
(lp2742
g0
(g13
g2
Ntp2743
Rp2744
(dp2745
g17
I11
sg18
g19
(g23
S'\x01\x00\x00\x00\x00\x00\x00\x00'
p2746
tp2747
Rp2748
sg11
(lp2749
g0
(g13
g2
Ntp2750
Rp2751
(dp2752
g17
I12
sg18
g19
(g23
S'2\x00\x00\x00\x00\x00\x00\x00'
p2753
tp2754
Rp2755
sg11
(lp2756
g0
(g13
g2
Ntp2757
Rp2758
(dp2759
g17
I13
sg18
g19
(g23
S'2\x00\x00\x00\x00\x00\x00\x00'
p2760
tp2761
Rp2762
sg11
(lp2763
g0
(g13
g2
Ntp2764
Rp2765
(dp2766
g17
I14
sg18
g19
(g23
S'2\x00\x00\x00\x00\x00\x00\x00'
p2767
tp2768
Rp2769
sg11
(lp2770
g0
(g13
g2
Ntp2771
Rp2772
(dp2773
g17
I15
sg18
g19
(g23
S'\x01\x00\x00\x00\x00\x00\x00\x00'
p2774
tp2775
Rp2776
sg11
(lp2777
g0
(g13
g2
Ntp2778
Rp2779
(dp2780
g17
I16
sg18
g19
(g23
S'\x01\x00\x00\x00\x00\x00\x00\x00'
p2781
tp2782
Rp2783
sg11
(lp2784
g0
(g13
g2
Ntp2785
Rp2786
(dp2787
g17
I17
sg18
g19
(g23
S'\x01\x00\x00\x00\x00\x00\x00\x00'
p2788
tp2789
Rp2790
sg11
(lp2791
g0
(g13
g2
Ntp2792
Rp2793
(dp2794
g17
I18
sg18
g19
(g23
S'2\x00\x00\x00\x00\x00\x00\x00'
p2795
tp2796
Rp2797
sg11
(lp2798
g0
(g13
g2
Ntp2799
Rp2800
(dp2801
g17
I19
sg18
g19
(g23
S'2\x00\x00\x00\x00\x00\x00\x00'
p2802
tp2803
Rp2804
sg11
(lp2805
g0
(g13
g2
Ntp2806
Rp2807
(dp2808
g17
I20
sg18
g19
(g23
S'\x01\x00\x00\x00\x00\x00\x00\x00'
p2809
tp2810
Rp2811
sg11
(lp2812
g0
(g13
g2
Ntp2813
Rp2814
(dp2815
g17
I21
sg18
g19
(g23
S'\x02\x00\x00\x00\x00\x00\x00\x00'
p2816
tp2817
Rp2818
sg11
(lp2819
g0
(g13
g2
Ntp2820
Rp2821
(dp2822
g17
I22
sg18
g19
(g23
S'\x01\x00\x00\x00\x00\x00\x00\x00'
p2823
tp2824
Rp2825
sg11
(lp2826
g0
(g13
g2
Ntp2827
Rp2828
(dp2829
g17
I23
sg18
g19
(g23
S'2\x00\x00\x00\x00\x00\x00\x00'
p2830
tp2831
Rp2832
sg11
(lp2833
g0
(g13
g2
Ntp2834
Rp2835
(dp2836
g17
I24
sg18
g19
(g23
S'\x01\x00\x00\x00\x00\x00\x00\x00'
p2837
tp2838
Rp2839
sg11
(lp2840
g0
(g13
g2
Ntp2841
Rp2842
(dp2843
g17
I25
sg18
g19
(g23
S'2\x00\x00\x00\x00\x00\x00\x00'
p2844
tp2845
Rp2846
sg11
(lp2847
g0
(g44
g2
Ntp2848
Rp2849
(dp2850
g48
g19
(g51
S'\x00\x00\x00\x00\x00p{@'
p2851
tp2852
Rp2853
sbasg57
g58
sg59
g253
sbasg57
g58
sg59
g187
sbasg57
g58
sg59
g253
sbasg57
g58
sg59
g187
sbasg57
g58
sg59
g60
sbasg57
g58
sg59
g187
sbasg57
g58
sg59
g253
sbasg57
g58
sg59
g253
sbasg57
g58
sg59
g187
sbasg57
g58
sg59
g187
sbasg57
g58
sg59
g187
sbasg57
g58
sg59
g253
sbasg57
g58
sg59
g253
sbasg57
g58
sg59
g253
sbasg57
g58
sg59
g187
sbasg57
g58
sg59
g187
sbasg57
g58
sg59
g187
sbasg57
g58
sg59
g253
sbasg57
g58
sg59
g187
sbasg57
g58
sg59
g60
sbasg57
g58
sg59
g253
sbasg57
g58
sg59
g253
sbasg57
g58
sg59
g253
sbasg57
g58
sg59
g87
sbag0
(g13
g2
Ntp2854
Rp2855
(dp2856
g17
I2
sg18
g19
(g23
S'\n\x00\x00\x00\x00\x00\x00\x00'
p2857
tp2858
Rp2859
sg11
(lp2860
g0
(g44
g2
Ntp2861
Rp2862
(dp2863
g48
g19
(g51
S'\x00\x00\x00\x00\x00\x00u@'
p2864
tp2865
Rp2866
sbasg57
g58
sg59
g87
sbag0
(g13
g2
Ntp2867
Rp2868
(dp2869
g17
I2
sg18
g19
(g23
S'\x06\x00\x00\x00\x00\x00\x00\x00'
p2870
tp2871
Rp2872
sg11
(lp2873
g0
(g44
g2
Ntp2874
Rp2875
(dp2876
g48
g19
(g51
S'\x00\x00\x00\x00\x00\xe0\x7f@'
p2877
tp2878
Rp2879
sbasg57
g58
sg59
g87
sbasg57
g58
sg59
g253
sbag0
(g13
g2
Ntp2880
Rp2881
(dp2882
g17
I1
sg18
g19
(g23
S'@\x00\x00\x00\x00\x00\x00\x00'
p2883
tp2884
Rp2885
sg11
(lp2886
g0
(g13
g2
Ntp2887
Rp2888
(dp2889
g17
I2
sg18
g19
(g23
S'\x10\x00\x00\x00\x00\x00\x00\x00'
p2890
tp2891
Rp2892
sg11
(lp2893
g0
(g13
g2
Ntp2894
Rp2895
(dp2896
g17
I3
sg18
g19
(g23
S'\x03\x00\x00\x00\x00\x00\x00\x00'
p2897
tp2898
Rp2899
sg11
(lp2900
g0
(g44
g2
Ntp2901
Rp2902
(dp2903
g48
g19
(g51
S'\x00\x00\x00\x00\x00\xd0\x81@'
p2904
tp2905
Rp2906
sbasg57
g58
sg59
g60
sbag0
(g13
g2
Ntp2907
Rp2908
(dp2909
g17
I3
sg18
g19
(g23
S'\x01\x00\x00\x00\x00\x00\x00\x00'
p2910
tp2911
Rp2912
sg11
(lp2913
g0
(g44
g2
Ntp2914
Rp2915
(dp2916
g48
g19
(g51
S'\x00\x00\x00\x00\x00L\x90@'
p2917
tp2918
Rp2919
sbasg57
g58
sg59
g60
sbasg57
g58
sg59
g274
sbag0
(g13
g2
Ntp2920
Rp2921
(dp2922
g17
I2
sg18
g19
(g23
S'\x11\x00\x00\x00\x00\x00\x00\x00'
p2923
tp2924
Rp2925
sg11
(lp2926
g0
(g13
g2
Ntp2927
Rp2928
(dp2929
g17
I3
sg18
g19
(g23
S'\x03\x00\x00\x00\x00\x00\x00\x00'
p2930
tp2931
Rp2932
sg11
(lp2933
g0
(g44
g2
Ntp2934
Rp2935
(dp2936
g48
g19
(g51
S'\x00\x00\x00\x00\x00\x10p@'
p2937
tp2938
Rp2939
sbasg57
g58
sg59
g87
sbag0
(g13
g2
Ntp2940
Rp2941
(dp2942
g17
I3
sg18
g19
(g23
S'\n\x00\x00\x00\x00\x00\x00\x00'
p2943
tp2944
Rp2945
sg11
(lp2946
g0
(g44
g2
Ntp2947
Rp2948
(dp2949
g48
g19
(g51
S'\x00\x00\x00\x00\x00\xc8\x86@'
p2950
tp2951
Rp2952
sbasg57
g58
sg59
g87
sbasg57
g58
sg59
g274
sbag0
(g13
g2
Ntp2953
Rp2954
(dp2955
g17
I2
sg18
g19
(g23
S'\x12\x00\x00\x00\x00\x00\x00\x00'
p2956
tp2957
Rp2958
sg11
(lp2959
g0
(g13
g2
Ntp2960
Rp2961
(dp2962
g17
I3
sg18
g19
(g23
S'\x04\x00\x00\x00\x00\x00\x00\x00'
p2963
tp2964
Rp2965
sg11
(lp2966
g0
(g44
g2
Ntp2967
Rp2968
(dp2969
g48
g19
(g51
S'\x00\x00\x00\x00\x00`s@'
p2970
tp2971
Rp2972
sbasg57
g58
sg59
g60
sbag0
(g13
g2
Ntp2973
Rp2974
(dp2975
g17
I3
sg18
g19
(g23
S'\x02\x00\x00\x00\x00\x00\x00\x00'
p2976
tp2977
Rp2978
sg11
(lp2979
g0
(g44
g2
Ntp2980
Rp2981
(dp2982
g48
g19
(g51
S'\x00\x00\x00\x00\x000\x81@'
p2983
tp2984
Rp2985
sbasg57
g58
sg59
g60
sbag0
(g13
g2
Ntp2986
Rp2987
(dp2988
g17
I3
sg18
g19
(g23
S'\x00\x00\x00\x00\x00\x00\x00\x00'
p2989
tp2990
Rp2991
sg11
(lp2992
g0
(g44
g2
Ntp2993
Rp2994
(dp2995
g48
g19
(g51
S'\x00\x00\x00\x00\x00@g@'
p2996
tp2997
Rp2998
sbasg57
g58
sg59
g60
sbasg57
g58
sg59
g274
sbag0
(g13
g2
Ntp2999
Rp3000
(dp3001
g17
I2
sg18
g19
(g23
S'\x08\x00\x00\x00\x00\x00\x00\x00'
p3002
tp3003
Rp3004
sg11
(lp3005
g0
(g44
g2
Ntp3006
Rp3007
(dp3008
g48
g19
(g51
S'\x00\x00\x00\x00\x00pq@'
p3009
tp3010
Rp3011
sbasg57
g58
sg59
g274
sbag0
(g13
g2
Ntp3012
Rp3013
(dp3014
g17
I2
sg18
g19
(g23
S'\x16\x00\x00\x00\x00\x00\x00\x00'
p3015
tp3016
Rp3017
sg11
(lp3018
g0
(g44
g2
Ntp3019
Rp3020
(dp3021
g48
g19
(g51
S'\x00\x00\x00\x00\x00\x80\x80@'
p3022
tp3023
Rp3024
sbasg57
g58
sg59
g274
sbag0
(g13
g2
Ntp3025
Rp3026
(dp3027
g17
I2
sg18
g19
(g23
S'\x0f\x00\x00\x00\x00\x00\x00\x00'
p3028
tp3029
Rp3030
sg11
(lp3031
g0
(g13
g2
Ntp3032
Rp3033
(dp3034
g17
I3
sg18
g19
(g23
S'\x03\x00\x00\x00\x00\x00\x00\x00'
p3035
tp3036
Rp3037
sg11
(lp3038
g0
(g44
g2
Ntp3039
Rp3040
(dp3041
g48
g19
(g51
S'\x00\x00\x00\x00\x00\xb0y@'
p3042
tp3043
Rp3044
sbasg57
g58
sg59
g60
sbag0
(g13
g2
Ntp3045
Rp3046
(dp3047
g17
I3
sg18
g19
(g23
S'\x06\x00\x00\x00\x00\x00\x00\x00'
p3048
tp3049
Rp3050
sg11
(lp3051
g0
(g44
g2
Ntp3052
Rp3053
(dp3054
g48
g19
(g51
S'\x00\x00\x00\x00\x00@r@'
p3055
tp3056
Rp3057
sbasg57
g58
sg59
g60
sbasg57
g58
sg59
g274
sbag0
(g13
g2
Ntp3058
Rp3059
(dp3060
g17
I2
sg18
g19
(g23
S'\x07\x00\x00\x00\x00\x00\x00\x00'
p3061
tp3062
Rp3063
sg11
(lp3064
g0
(g44
g2
Ntp3065
Rp3066
(dp3067
g48
g19
(g51
S'\x00\x00\x00\x00\x00\x10z@'
p3068
tp3069
Rp3070
sbasg57
g58
sg59
g274
sbag0
(g13
g2
Ntp3071
Rp3072
(dp3073
g17
I2
sg18
g19
(g23
S'\x06\x00\x00\x00\x00\x00\x00\x00'
p3074
tp3075
Rp3076
sg11
(lp3077
g0
(g44
g2
Ntp3078
Rp3079
(dp3080
g48
g19
(g51
S'\x00\x00\x00\x00\x00\xe0f@'
p3081
tp3082
Rp3083
sbasg57
g58
sg59
g274
sbag0
(g13
g2
Ntp3084
Rp3085
(dp3086
g17
I2
sg18
g19
(g23
S'\x14\x00\x00\x00\x00\x00\x00\x00'
p3087
tp3088
Rp3089
sg11
(lp3090
g0
(g44
g2
Ntp3091
Rp3092
(dp3093
g48
g19
(g51
S'\x00\x00\x00\x00\x00`u@'
p3094
tp3095
Rp3096
sbasg57
g58
sg59
g274
sbag0
(g13
g2
Ntp3097
Rp3098
(dp3099
g17
I2
sg18
g19
(g23
S'\x0e\x00\x00\x00\x00\x00\x00\x00'
p3100
tp3101
Rp3102
sg11
(lp3103
g0
(g44
g2
Ntp3104
Rp3105
(dp3106
g48
g19
(g51
S'\x00\x00\x00\x00\x00 w@'
p3107
tp3108
Rp3109
sbasg57
g58
sg59
g274
sbag0
(g13
g2
Ntp3110
Rp3111
(dp3112
g17
I2
sg18
g19
(g23
S'\t\x00\x00\x00\x00\x00\x00\x00'
p3113
tp3114
Rp3115
sg11
(lp3116
g0
(g44
g2
Ntp3117
Rp3118
(dp3119
g48
g19
(g51
S'\x00\x00\x00\x00\x00\xc0|@'
p3120
tp3121
Rp3122
sbasg57
g58
sg59
g274
sbasg57
g58
sg59
g253
sbag0
(g13
g2
Ntp3123
Rp3124
(dp3125
g17
I1
sg18
g19
(g23
S'H\x00\x00\x00\x00\x00\x00\x00'
p3126
tp3127
Rp3128
sg11
(lp3129
g0
(g13
g2
Ntp3130
Rp3131
(dp3132
g17
I2
sg18
g19
(g23
S'\x00\x00\x00\x00\x00\x00\x00\x00'
p3133
tp3134
Rp3135
sg11
(lp3136
g0
(g13
g2
Ntp3137
Rp3138
(dp3139
g17
I3
sg18
g19
(g23
S'\x08\x00\x00\x00\x00\x00\x00\x00'
p3140
tp3141
Rp3142
sg11
(lp3143
g0
(g44
g2
Ntp3144
Rp3145
(dp3146
g48
g19
(g51
S'\x00\x00\x00\x00\x00\xb0\x80@'
p3147
tp3148
Rp3149
sbasg57
g58
sg59
g274
sbag0
(g13
g2
Ntp3150
Rp3151
(dp3152
g17
I3
sg18
g19
(g23
S'\x10\x00\x00\x00\x00\x00\x00\x00'
p3153
tp3154
Rp3155
sg11
(lp3156
g0
(g44
g2
Ntp3157
Rp3158
(dp3159
g48
g19
(g51
S'\x00\x00\x00\x00\x00\xe0\x84@'
p3160
tp3161
Rp3162
sbasg57
g58
sg59
g274
sbasg57
g58
sg59
g60
sbag0
(g13
g2
Ntp3163
Rp3164
(dp3165
g17
I2
sg18
g19
(g23
S'\x03\x00\x00\x00\x00\x00\x00\x00'
p3166
tp3167
Rp3168
sg11
(lp3169
g0
(g13
g2
Ntp3170
Rp3171
(dp3172
g17
I3
sg18
g19
(g23
S'\x02\x00\x00\x00\x00\x00\x00\x00'
p3173
tp3174
Rp3175
sg11
(lp3176
g0
(g44
g2
Ntp3177
Rp3178
(dp3179
g48
g19
(g51
S'\x00\x00\x00\x00\x00\xb0\x99@'
p3180
tp3181
Rp3182
sbasg57
g58
sg59
g187
sbag0
(g13
g2
Ntp3183
Rp3184
(dp3185
g17
I3
sg18
g19
(g23
S'\x01\x00\x00\x00\x00\x00\x00\x00'
p3186
tp3187
Rp3188
sg11
(lp3189
g0
(g44
g2
Ntp3190
Rp3191
(dp3192
g48
g19
(g51
S'\x00\x00\x00\x00\x00\xd0\x7f@'
p3193
tp3194
Rp3195
sbasg57
g58
sg59
g187
sbasg57
g58
sg59
g60
sbag0
(g13
g2
Ntp3196
Rp3197
(dp3198
g17
I2
sg18
g19
(g23
S'\x05\x00\x00\x00\x00\x00\x00\x00'
p3199
tp3200
Rp3201
sg11
(lp3202
g0
(g13
g2
Ntp3203
Rp3204
(dp3205
g17
I3
sg18
g19
(g23
S'\x00\x00\x00\x00\x00\x00\x00\x00'
p3206
tp3207
Rp3208
sg11
(lp3209
g0
(g44
g2
Ntp3210
Rp3211
(dp3212
g48
g19
(g51
S'\x00\x00\x00\x00\x00`o@'
p3213
tp3214
Rp3215
sbasg57
g58
sg59
g274
sbag0
(g13
g2
Ntp3216
Rp3217
(dp3218
g17
I3
sg18
g19
(g23
S'\x10\x00\x00\x00\x00\x00\x00\x00'
p3219
tp3220
Rp3221
sg11
(lp3222
g0
(g44
g2
Ntp3223
Rp3224
(dp3225
g48
g19
(g51
S'\x00\x00\x00\x00\x00\xa0\x87@'
p3226
tp3227
Rp3228
sbasg57
g58
sg59
g274
sbag0
(g13
g2
Ntp3229
Rp3230
(dp3231
g17
I3
sg18
g19
(g23
S'\x14\x00\x00\x00\x00\x00\x00\x00'
p3232
tp3233
Rp3234
sg11
(lp3235
g0
(g44
g2
Ntp3236
Rp3237
(dp3238
g48
g19
(g51
S'\x00\x00\x00\x00\x00\x10q@'
p3239
tp3240
Rp3241
sbasg57
g58
sg59
g274
sbasg57
g58
sg59
g60
sbag0
(g13
g2
Ntp3242
Rp3243
(dp3244
g17
I2
sg18
g19
(g23
S'\x02\x00\x00\x00\x00\x00\x00\x00'
p3245
tp3246
Rp3247
sg11
(lp3248
g0
(g13
g2
Ntp3249
Rp3250
(dp3251
g17
I3
sg18
g19
(g23
S'\x04\x00\x00\x00\x00\x00\x00\x00'
p3252
tp3253
Rp3254
sg11
(lp3255
g0
(g44
g2
Ntp3256
Rp3257
(dp3258
g48
g19
(g51
S'\x00\x00\x00\x00\x00\xd0\x80@'
p3259
tp3260
Rp3261
sbasg57
g58
sg59
g87
sbag0
(g13
g2
Ntp3262
Rp3263
(dp3264
g17
I3
sg18
g19
(g23
S'\x03\x00\x00\x00\x00\x00\x00\x00'
p3265
tp3266
Rp3267
sg11
(lp3268
g0
(g44
g2
Ntp3269
Rp3270
(dp3271
g48
g19
(g51
S'\x00\x00\x00\x00\x00\xe0z@'
p3272
tp3273
Rp3274
sbasg57
g58
sg59
g87
sbasg57
g58
sg59
g60
sbag0
(g13
g2
Ntp3275
Rp3276
(dp3277
g17
I2
sg18
g19
(g23
S'\x04\x00\x00\x00\x00\x00\x00\x00'
p3278
tp3279
Rp3280
sg11
(lp3281
g0
(g44
g2
Ntp3282
Rp3283
(dp3284
g48
g19
(g51
S'\x00\x00\x00\x00\x00C\xbc@'
p3285
tp3286
Rp3287
sbasg57
g58
sg59
g60
sbag0
(g13
g2
Ntp3288
Rp3289
(dp3290
g17
I2
sg18
g19
(g23
S'\x06\x00\x00\x00\x00\x00\x00\x00'
p3291
tp3292
Rp3293
sg11
(lp3294
g0
(g44
g2
Ntp3295
Rp3296
(dp3297
g48
g19
(g51
S'\x00\x00\x00\x00\x00\xf8\x8d@'
p3298
tp3299
Rp3300
sbasg57
g58
sg59
g60
sbasg57
g58
sg59
g253
sbag0
(g13
g2
Ntp3301
Rp3302
(dp3303
g17
I1
sg18
g19
(g23
S')\x00\x00\x00\x00\x00\x00\x00'
p3304
tp3305
Rp3306
sg11
(lp3307
g0
(g13
g2
Ntp3308
Rp3309
(dp3310
g17
I2
sg18
g19
(g23
S'\t\x00\x00\x00\x00\x00\x00\x00'
p3311
tp3312
Rp3313
sg11
(lp3314
g0
(g44
g2
Ntp3315
Rp3316
(dp3317
g48
g19
(g51
S'\x00\x00\x00\x00\x00\x80l@'
p3318
tp3319
Rp3320
sbasg57
g58
sg59
g87
sbag0
(g13
g2
Ntp3321
Rp3322
(dp3323
g17
I2
sg18
g19
(g23
S'\x06\x00\x00\x00\x00\x00\x00\x00'
p3324
tp3325
Rp3326
sg11
(lp3327
g0
(g44
g2
Ntp3328
Rp3329
(dp3330
g48
g19
(g51
S'\x00\x00\x00\x00\x000\x87@'
p3331
tp3332
Rp3333
sbasg57
g58
sg59
g87
sbag0
(g13
g2
Ntp3334
Rp3335
(dp3336
g17
I2
sg18
g19
(g23
S'\x01\x00\x00\x00\x00\x00\x00\x00'
p3337
tp3338
Rp3339
sg11
(lp3340
g0
(g13
g2
Ntp3341
Rp3342
(dp3343
g17
I3
sg18
g19
(g23
S'\x01\x00\x00\x00\x00\x00\x00\x00'
p3344
tp3345
Rp3346
sg11
(lp3347
g0
(g44
g2
Ntp3348
Rp3349
(dp3350
g48
g19
(g51
S'\x00\x00\x00\x00\x00@\x97@'
p3351
tp3352
Rp3353
sbasg57
g58
sg59
g187
sbag0
(g13
g2
Ntp3354
Rp3355
(dp3356
g17
I3
sg18
g19
(g23
S'\x02\x00\x00\x00\x00\x00\x00\x00'
p3357
tp3358
Rp3359
sg11
(lp3360
g0
(g44
g2
Ntp3361
Rp3362
(dp3363
g48
g19
(g51
S'\x00\x00\x00\x00\x00(\x80@'
p3364
tp3365
Rp3366
sbasg57
g58
sg59
g187
sbasg57
g58
sg59
g87
sbag0
(g13
g2
Ntp3367
Rp3368
(dp3369
g17
I2
sg18
g19
(g23
S'\x0c\x00\x00\x00\x00\x00\x00\x00'
p3370
tp3371
Rp3372
sg11
(lp3373
g0
(g44
g2
Ntp3374
Rp3375
(dp3376
g48
g19
(g51
S'\x00\x00\x00\x00\x00\x00i@'
p3377
tp3378
Rp3379
sbasg57
g58
sg59
g87
sbasg57
g58
sg59
g253
sbag0
(g13
g2
Ntp3380
Rp3381
(dp3382
g17
I1
sg18
g19
(g23
S'F\x00\x00\x00\x00\x00\x00\x00'
p3383
tp3384
Rp3385
sg11
(lp3386
g0
(g13
g2
Ntp3387
Rp3388
(dp3389
g17
I2
sg18
g19
(g23
S'\x13\x00\x00\x00\x00\x00\x00\x00'
p3390
tp3391
Rp3392
sg11
(lp3393
g0
(g13
g2
Ntp3394
Rp3395
(dp3396
g17
I3
sg18
g19
(g23
S'\x01\x00\x00\x00\x00\x00\x00\x00'
p3397
tp3398
Rp3399
sg11
(lp3400
g0
(g44
g2
Ntp3401
Rp3402
(dp3403
g48
g19
(g51
S'\x00\x00\x00\x00\x00\xc8\x84@'
p3404
tp3405
Rp3406
sbasg57
g58
sg59
g87
sbag0
(g13
g2
Ntp3407
Rp3408
(dp3409
g17
I3
sg18
g19
(g23
S'\x04\x00\x00\x00\x00\x00\x00\x00'
p3410
tp3411
Rp3412
sg11
(lp3413
g0
(g44
g2
Ntp3414
Rp3415
(dp3416
g48
g19
(g51
S'\x00\x00\x00\x00\x00\xf0u@'
p3417
tp3418
Rp3419
sbasg57
g58
sg59
g87
sbag0
(g13
g2
Ntp3420
Rp3421
(dp3422
g17
I3
sg18
g19
(g23
S'\x0b\x00\x00\x00\x00\x00\x00\x00'
p3423
tp3424
Rp3425
sg11
(lp3426
g0
(g44
g2
Ntp3427
Rp3428
(dp3429
g48
g19
(g51
S'\x00\x00\x00\x00\x00\xc0g@'
p3430
tp3431
Rp3432
sbasg57
g58
sg59
g87
sbasg57
g58
sg59
g274
sbag0
(g13
g2
Ntp3433
Rp3434
(dp3435
g17
I2
sg18
g19
(g23
S'\x08\x00\x00\x00\x00\x00\x00\x00'
p3436
tp3437
Rp3438
sg11
(lp3439
g0
(g13
g2
Ntp3440
Rp3441
(dp3442
g17
I3
sg18
g19
(g23
S'\x02\x00\x00\x00\x00\x00\x00\x00'
p3443
tp3444
Rp3445
sg11
(lp3446
g0
(g13
g2
Ntp3447
Rp3448
(dp3449
g17
I4
sg18
g19
(g23
S'\x06\x00\x00\x00\x00\x00\x00\x00'
p3450
tp3451
Rp3452
sg11
(lp3453
g0
(g44
g2
Ntp3454
Rp3455
(dp3456
g48
g19
(g51
S'\x00\x00\x00\x00\x00\xc0\x8c@'
p3457
tp3458
Rp3459
sbasg57
g58
sg59
g87
sbag0
(g13
g2
Ntp3460
Rp3461
(dp3462
g17
I4
sg18
g19
(g23
S'\x01\x00\x00\x00\x00\x00\x00\x00'
p3463
tp3464
Rp3465
sg11
(lp3466
g0
(g44
g2
Ntp3467
Rp3468
(dp3469
g48
g19
(g51
S'\x00\x00\x00\x00\x00\xa8\x8a@'
p3470
tp3471
Rp3472
sbasg57
g58
sg59
g87
sbasg57
g58
sg59
g60
sbag0
(g13
g2
Ntp3473
Rp3474
(dp3475
g17
I3
sg18
g19
(g23
S'\x04\x00\x00\x00\x00\x00\x00\x00'
p3476
tp3477
Rp3478
sg11
(lp3479
g0
(g13
g2
Ntp3480
Rp3481
(dp3482
g17
I4
sg18
g19
(g23
S'\x05\x00\x00\x00\x00\x00\x00\x00'
p3483
tp3484
Rp3485
sg11
(lp3486
g0
(g44
g2
Ntp3487
Rp3488
(dp3489
g48
g19
(g51
S'\x00\x00\x00\x00\x00\xd0\x89@'
p3490
tp3491
Rp3492
sbasg57
g58
sg59
g87
sbag0
(g13
g2
Ntp3493
Rp3494
(dp3495
g17
I4
sg18
g19
(g23
S'\x03\x00\x00\x00\x00\x00\x00\x00'
p3496
tp3497
Rp3498
sg11
(lp3499
g0
(g44
g2
Ntp3500
Rp3501
(dp3502
g48
g19
(g51
S'\x00\x00\x00\x00\x00\x18\x81@'
p3503
tp3504
Rp3505
sbasg57
g58
sg59
g87
sbag0
(g13
g2
Ntp3506
Rp3507
(dp3508
g17
I4
sg18
g19
(g23
S'\x02\x00\x00\x00\x00\x00\x00\x00'
p3509
tp3510
Rp3511
sg11
(lp3512
g0
(g44
g2
Ntp3513
Rp3514
(dp3515
g48
g19
(g51
S'\x00\x00\x00\x00\x00\x10\x8e@'
p3516
tp3517
Rp3518
sbasg57
g58
sg59
g87
sbasg57
g58
sg59
g60
sbag0
(g13
g2
Ntp3519
Rp3520
(dp3521
g17
I3
sg18
g19
(g23
S'\x03\x00\x00\x00\x00\x00\x00\x00'
p3522
tp3523
Rp3524
sg11
(lp3525
g0
(g13
g2
Ntp3526
Rp3527
(dp3528
g17
I4
sg18
g19
(g23
S'\x06\x00\x00\x00\x00\x00\x00\x00'
p3529
tp3530
Rp3531
sg11
(lp3532
g0
(g44
g2
Ntp3533
Rp3534
(dp3535
g48
g19
(g51
S'\x00\x00\x00\x00\x00\x08\x85@'
p3536
tp3537
Rp3538
sbasg57
g58
sg59
g87
sbag0
(g13
g2
Ntp3539
Rp3540
(dp3541
g17
I4
sg18
g19
(g23
S'\x08\x00\x00\x00\x00\x00\x00\x00'
p3542
tp3543
Rp3544
sg11
(lp3545
g0
(g44
g2
Ntp3546
Rp3547
(dp3548
g48
g19
(g51
S'\x00\x00\x00\x00\x00\x80\x80@'
p3549
tp3550
Rp3551
sbasg57
g58
sg59
g87
sbasg57
g58
sg59
g60
sbag0
(g13
g2
Ntp3552
Rp3553
(dp3554
g17
I3
sg18
g19
(g23
S'\x01\x00\x00\x00\x00\x00\x00\x00'
p3555
tp3556
Rp3557
sg11
(lp3558
g0
(g13
g2
Ntp3559
Rp3560
(dp3561
g17
I4
sg18
g19
(g23
S'\n\x00\x00\x00\x00\x00\x00\x00'
p3562
tp3563
Rp3564
sg11
(lp3565
g0
(g44
g2
Ntp3566
Rp3567
(dp3568
g48
g19
(g51
S'\x00\x00\x00\x00\x00\xd8\x82@'
p3569
tp3570
Rp3571
sbasg57
g58
sg59
g87
sbag0
(g13
g2
Ntp3572
Rp3573
(dp3574
g17
I4
sg18
g19
(g23
S'\x0c\x00\x00\x00\x00\x00\x00\x00'
p3575
tp3576
Rp3577
sg11
(lp3578
g0
(g13
g2
Ntp3579
Rp3580
(dp3581
g17
I5
sg18
g19
(g23
S'\x01\x00\x00\x00\x00\x00\x00\x00'
p3582
tp3583
Rp3584
sg11
(lp3585
g0
(g13
g2
Ntp3586
Rp3587
(dp3588
g17
I6
sg18
g19
(g23
S'F\x00\x00\x00\x00\x00\x00\x00'
p3589
tp3590
Rp3591
sg11
(lp3592
g0
(g13
g2
Ntp3593
Rp3594
(dp3595
g17
I7
sg18
g19
(g23
S'F\x00\x00\x00\x00\x00\x00\x00'
p3596
tp3597
Rp3598
sg11
(lp3599
g0
(g13
g2
Ntp3600
Rp3601
(dp3602
g17
I8
sg18
g19
(g23
S'F\x00\x00\x00\x00\x00\x00\x00'
p3603
tp3604
Rp3605
sg11
(lp3606
g0
(g13
g2
Ntp3607
Rp3608
(dp3609
g17
I9
sg18
g19
(g23
S'F\x00\x00\x00\x00\x00\x00\x00'
p3610
tp3611
Rp3612
sg11
(lp3613
g0
(g13
g2
Ntp3614
Rp3615
(dp3616
g17
I10
sg18
g19
(g23
S'\x01\x00\x00\x00\x00\x00\x00\x00'
p3617
tp3618
Rp3619
sg11
(lp3620
g0
(g13
g2
Ntp3621
Rp3622
(dp3623
g17
I11
sg18
g19
(g23
S'F\x00\x00\x00\x00\x00\x00\x00'
p3624
tp3625
Rp3626
sg11
(lp3627
g0
(g13
g2
Ntp3628
Rp3629
(dp3630
g17
I12
sg18
g19
(g23
S'\x01\x00\x00\x00\x00\x00\x00\x00'
p3631
tp3632
Rp3633
sg11
(lp3634
g0
(g13
g2
Ntp3635
Rp3636
(dp3637
g17
I13
sg18
g19
(g23
S'F\x00\x00\x00\x00\x00\x00\x00'
p3638
tp3639
Rp3640
sg11
(lp3641
g0
(g13
g2
Ntp3642
Rp3643
(dp3644
g17
I14
sg18
g19
(g23
S'F\x00\x00\x00\x00\x00\x00\x00'
p3645
tp3646
Rp3647
sg11
(lp3648
g0
(g13
g2
Ntp3649
Rp3650
(dp3651
g17
I15
sg18
g19
(g23
S'F\x00\x00\x00\x00\x00\x00\x00'
p3652
tp3653
Rp3654
sg11
(lp3655
g0
(g13
g2
Ntp3656
Rp3657
(dp3658
g17
I16
sg18
g19
(g23
S'F\x00\x00\x00\x00\x00\x00\x00'
p3659
tp3660
Rp3661
sg11
(lp3662
g0
(g13
g2
Ntp3663
Rp3664
(dp3665
g17
I17
sg18
g19
(g23
S'F\x00\x00\x00\x00\x00\x00\x00'
p3666
tp3667
Rp3668
sg11
(lp3669
g0
(g13
g2
Ntp3670
Rp3671
(dp3672
g17
I18
sg18
g19
(g23
S'F\x00\x00\x00\x00\x00\x00\x00'
p3673
tp3674
Rp3675
sg11
(lp3676
g0
(g13
g2
Ntp3677
Rp3678
(dp3679
g17
I19
sg18
g19
(g23
S'\x01\x00\x00\x00\x00\x00\x00\x00'
p3680
tp3681
Rp3682
sg11
(lp3683
g0
(g13
g2
Ntp3684
Rp3685
(dp3686
g17
I20
sg18
g19
(g23
S'F\x00\x00\x00\x00\x00\x00\x00'
p3687
tp3688
Rp3689
sg11
(lp3690
g0
(g13
g2
Ntp3691
Rp3692
(dp3693
g17
I21
sg18
g19
(g23
S'F\x00\x00\x00\x00\x00\x00\x00'
p3694
tp3695
Rp3696
sg11
(lp3697
g0
(g13
g2
Ntp3698
Rp3699
(dp3700
g17
I22
sg18
g19
(g23
S'F\x00\x00\x00\x00\x00\x00\x00'
p3701
tp3702
Rp3703
sg11
(lp3704
g0
(g13
g2
Ntp3705
Rp3706
(dp3707
g17
I23
sg18
g19
(g23
S'F\x00\x00\x00\x00\x00\x00\x00'
p3708
tp3709
Rp3710
sg11
(lp3711
g0
(g13
g2
Ntp3712
Rp3713
(dp3714
g17
I24
sg18
g19
(g23
S'F\x00\x00\x00\x00\x00\x00\x00'
p3715
tp3716
Rp3717
sg11
(lp3718
g0
(g13
g2
Ntp3719
Rp3720
(dp3721
g17
I25
sg18
g19
(g23
S'F\x00\x00\x00\x00\x00\x00\x00'
p3722
tp3723
Rp3724
sg11
(lp3725
g0
(g44
g2
Ntp3726
Rp3727
(dp3728
g48
g19
(g51
S'\x00\x00\x00\x00\x00\xac\x88@'
p3729
tp3730
Rp3731
sbasg57
g58
sg59
g253
sbasg57
g58
sg59
g253
sbasg57
g58
sg59
g253
sbasg57
g58
sg59
g253
sbasg57
g58
sg59
g253
sbasg57
g58
sg59
g253
sbasg57
g58
sg59
g187
sbasg57
g58
sg59
g253
sbasg57
g58
sg59
g253
sbasg57
g58
sg59
g253
sbasg57
g58
sg59
g253
sbasg57
g58
sg59
g253
sbasg57
g58
sg59
g253
sbasg57
g58
sg59
g187
sbasg57
g58
sg59
g253
sbasg57
g58
sg59
g60
sbasg57
g58
sg59
g253
sbasg57
g58
sg59
g253
sbasg57
g58
sg59
g253
sbasg57
g58
sg59
g253
sbasg57
g58
sg59
g60
sbasg57
g58
sg59
g87
sbag0
(g13
g2
Ntp3732
Rp3733
(dp3734
g17
I4
sg18
g19
(g23
S'\x04\x00\x00\x00\x00\x00\x00\x00'
p3735
tp3736
Rp3737
sg11
(lp3738
g0
(g44
g2
Ntp3739
Rp3740
(dp3741
g48
g19
(g51
S'\x00\x00\x00\x00\x00\xc0\x8c@'
p3742
tp3743
Rp3744
sbasg57
g58
sg59
g87
sbag0
(g13
g2
Ntp3745
Rp3746
(dp3747
g17
I4
sg18
g19
(g23
S'\x03\x00\x00\x00\x00\x00\x00\x00'
p3748
tp3749
Rp3750
sg11
(lp3751
g0
(g44
g2
Ntp3752
Rp3753
(dp3754
g48
g19
(g51
S'\x00\x00\x00\x00\x00\x00\x85@'
p3755
tp3756
Rp3757
sbasg57
g58
sg59
g87
sbag0
(g13
g2
Ntp3758
Rp3759
(dp3760
g17
I4
sg18
g19
(g23
S'\x08\x00\x00\x00\x00\x00\x00\x00'
p3761
tp3762
Rp3763
sg11
(lp3764
g0
(g44
g2
Ntp3765
Rp3766
(dp3767
g48
g19
(g51
S'\x00\x00\x00\x00\x00\x10\x7f@'
p3768
tp3769
Rp3770
sbasg57
g58
sg59
g87
sbag0
(g13
g2
Ntp3771
Rp3772
(dp3773
g17
I4
sg18
g19
(g23
S'\x01\x00\x00\x00\x00\x00\x00\x00'
p3774
tp3775
Rp3776
sg11
(lp3777
g0
(g44
g2
Ntp3778
Rp3779
(dp3780
g48
g19
(g51
S'\x00\x00\x00\x00\x00\xb0v@'
p3781
tp3782
Rp3783
sbasg57
g58
sg59
g87
sbasg57
g58
sg59
g60
sbag0
(g13
g2
Ntp3784
Rp3785
(dp3786
g17
I3
sg18
g19
(g23
S'\x00\x00\x00\x00\x00\x00\x00\x00'
p3787
tp3788
Rp3789
sg11
(lp3790
g0
(g44
g2
Ntp3791
Rp3792
(dp3793
g48
g19
(g51
S'\x00\x00\x00\x00\x00\xf8\x81@'
p3794
tp3795
Rp3796
sbasg57
g58
sg59
g60
sbasg57
g58
sg59
g274
sbag0
(g13
g2
Ntp3797
Rp3798
(dp3799
g17
I2
sg18
g19
(g23
S'\x10\x00\x00\x00\x00\x00\x00\x00'
p3800
tp3801
Rp3802
sg11
(lp3803
g0
(g13
g2
Ntp3804
Rp3805
(dp3806
g17
I3
sg18
g19
(g23
S'\x0b\x00\x00\x00\x00\x00\x00\x00'
p3807
tp3808
Rp3809
sg11
(lp3810
g0
(g44
g2
Ntp3811
Rp3812
(dp3813
g48
g19
(g51
S'\x00\x00\x00\x00\x00\xb0~@'
p3814
tp3815
Rp3816
sbasg57
g58
sg59
g87
sbag0
(g13
g2
Ntp3817
Rp3818
(dp3819
g17
I3
sg18
g19
(g23
S'\x0c\x00\x00\x00\x00\x00\x00\x00'
p3820
tp3821
Rp3822
sg11
(lp3823
g0
(g44
g2
Ntp3824
Rp3825
(dp3826
g48
g19
(g51
S'\x00\x00\x00\x00\x00\xc8\x81@'
p3827
tp3828
Rp3829
sbasg57
g58
sg59
g87
sbag0
(g13
g2
Ntp3830
Rp3831
(dp3832
g17
I3
sg18
g19
(g23
S'\t\x00\x00\x00\x00\x00\x00\x00'
p3833
tp3834
Rp3835
sg11
(lp3836
g0
(g44
g2
Ntp3837
Rp3838
(dp3839
g48
g19
(g51
S'\x00\x00\x00\x00\x00\xa0\x97@'
p3840
tp3841
Rp3842
sbasg57
g58
sg59
g87
sbasg57
g58
sg59
g274
sbag0
(g13
g2
Ntp3843
Rp3844
(dp3845
g17
I2
sg18
g19
(g23
S'\x07\x00\x00\x00\x00\x00\x00\x00'
p3846
tp3847
Rp3848
sg11
(lp3849
g0
(g13
g2
Ntp3850
Rp3851
(dp3852
g17
I3
sg18
g19
(g23
S'\x08\x00\x00\x00\x00\x00\x00\x00'
p3853
tp3854
Rp3855
sg11
(lp3856
g0
(g13
g2
Ntp3857
Rp3858
(dp3859
g17
I4
sg18
g19
(g23
S'\x00\x00\x00\x00\x00\x00\x00\x00'
p3860
tp3861
Rp3862
sg11
(lp3863
g0
(g44
g2
Ntp3864
Rp3865
(dp3866
g48
g19
(g51
S'\x00\x00\x00\x00\x00\xb8\x8a@'
p3867
tp3868
Rp3869
sbasg57
g58
sg59
g60
sbag0
(g13
g2
Ntp3870
Rp3871
(dp3872
g17
I4
sg18
g19
(g23
S'\x03\x00\x00\x00\x00\x00\x00\x00'
p3873
tp3874
Rp3875
sg11
(lp3876
g0
(g44
g2
Ntp3877
Rp3878
(dp3879
g48
g19
(g51
S'\x00\x00\x00\x00\x00\xf0\x88@'
p3880
tp3881
Rp3882
sbasg57
g58
sg59
g60
sbasg57
g58
sg59
g87
sbag0
(g13
g2
Ntp3883
Rp3884
(dp3885
g17
I3
sg18
g19
(g23
S'\t\x00\x00\x00\x00\x00\x00\x00'
p3886
tp3887
Rp3888
sg11
(lp3889
g0
(g44
g2
Ntp3890
Rp3891
(dp3892
g48
g19
(g51
S'\x00\x00\x00\x00\x00\x88\x85@'
p3893
tp3894
Rp3895
sbasg57
g58
sg59
g87
sbag0
(g13
g2
Ntp3896
Rp3897
(dp3898
g17
I3
sg18
g19
(g23
S'\x03\x00\x00\x00\x00\x00\x00\x00'
p3899
tp3900
Rp3901
sg11
(lp3902
g0
(g44
g2
Ntp3903
Rp3904
(dp3905
g48
g19
(g51
S'\x00\x00\x00\x00\x00\xf0\x88@'
p3906
tp3907
Rp3908
sbasg57
g58
sg59
g87
sbag0
(g13
g2
Ntp3909
Rp3910
(dp3911
g17
I3
sg18
g19
(g23
S'\n\x00\x00\x00\x00\x00\x00\x00'
p3912
tp3913
Rp3914
sg11
(lp3915
g0
(g13
g2
Ntp3916
Rp3917
(dp3918
g17
I4
sg18
g19
(g23
S'\x02\x00\x00\x00\x00\x00\x00\x00'
p3919
tp3920
Rp3921
sg11
(lp3922
g0
(g44
g2
Ntp3923
Rp3924
(dp3925
g48
g19
(g51
S'\x00\x00\x00\x00\x00h\x85@'
p3926
tp3927
Rp3928
sbasg57
g58
sg59
g60
sbag0
(g13
g2
Ntp3929
Rp3930
(dp3931
g17
I4
sg18
g19
(g23
S'\x04\x00\x00\x00\x00\x00\x00\x00'
p3932
tp3933
Rp3934
sg11
(lp3935
g0
(g44
g2
Ntp3936
Rp3937
(dp3938
g48
g19
(g51
S'\x00\x00\x00\x00\x00<\x96@'
p3939
tp3940
Rp3941
sbasg57
g58
sg59
g60
sbasg57
g58
sg59
g87
sbag0
(g13
g2
Ntp3942
Rp3943
(dp3944
g17
I3
sg18
g19
(g23
S'\x07\x00\x00\x00\x00\x00\x00\x00'
p3945
tp3946
Rp3947
sg11
(lp3948
g0
(g44
g2
Ntp3949
Rp3950
(dp3951
g48
g19
(g51
S'\x00\x00\x00\x00\x00X\x81@'
p3952
tp3953
Rp3954
sbasg57
g58
sg59
g87
sbasg57
g58
sg59
g274
sbag0
(g13
g2
Ntp3955
Rp3956
(dp3957
g17
I2
sg18
g19
(g23
S'\x06\x00\x00\x00\x00\x00\x00\x00'
p3958
tp3959
Rp3960
sg11
(lp3961
g0
(g44
g2
Ntp3962
Rp3963
(dp3964
g48
g19
(g51
S'\x00\x00\x00\x00\x00\x10\x81@'
p3965
tp3966
Rp3967
sbasg57
g58
sg59
g274
sbag0
(g13
g2
Ntp3968
Rp3969
(dp3970
g17
I2
sg18
g19
(g23
S'\x0c\x00\x00\x00\x00\x00\x00\x00'
p3971
tp3972
Rp3973
sg11
(lp3974
g0
(g13
g2
Ntp3975
Rp3976
(dp3977
g17
I3
sg18
g19
(g23
S'\x03\x00\x00\x00\x00\x00\x00\x00'
p3978
tp3979
Rp3980
sg11
(lp3981
g0
(g44
g2
Ntp3982
Rp3983
(dp3984
g48
g19
(g51
S'\x00\x00\x00\x00\x00\xa0\x84@'
p3985
tp3986
Rp3987
sbasg57
g58
sg59
g60
sbag0
(g13
g2
Ntp3988
Rp3989
(dp3990
g17
I3
sg18
g19
(g23
S'\x04\x00\x00\x00\x00\x00\x00\x00'
p3991
tp3992
Rp3993
sg11
(lp3994
g0
(g44
g2
Ntp3995
Rp3996
(dp3997
g48
g19
(g51
S'\x00\x00\x00\x00\x00\xc0x@'
p3998
tp3999
Rp4000
sbasg57
g58
sg59
g60
sbasg57
g58
sg59
g274
sbag0
(g13
g2
Ntp4001
Rp4002
(dp4003
g17
I2
sg18
g19
(g23
S'\x11\x00\x00\x00\x00\x00\x00\x00'
p4004
tp4005
Rp4006
sg11
(lp4007
g0
(g13
g2
Ntp4008
Rp4009
(dp4010
g17
I3
sg18
g19
(g23
S'\x04\x00\x00\x00\x00\x00\x00\x00'
p4011
tp4012
Rp4013
sg11
(lp4014
g0
(g44
g2
Ntp4015
Rp4016
(dp4017
g48
g19
(g51
S'\x00\x00\x00\x00\x00\x98\x90@'
p4018
tp4019
Rp4020
sbasg57
g58
sg59
g60
sbag0
(g13
g2
Ntp4021
Rp4022
(dp4023
g17
I3
sg18
g19
(g23
S'\x00\x00\x00\x00\x00\x00\x00\x00'
p4024
tp4025
Rp4026
sg11
(lp4027
g0
(g44
g2
Ntp4028
Rp4029
(dp4030
g48
g19
(g51
S'\x00\x00\x00\x00\x00 \x7f@'
p4031
tp4032
Rp4033
sbasg57
g58
sg59
g60
sbasg57
g58
sg59
g274
sbag0
(g13
g2
Ntp4034
Rp4035
(dp4036
g17
I2
sg18
g19
(g23
S'\x12\x00\x00\x00\x00\x00\x00\x00'
p4037
tp4038
Rp4039
sg11
(lp4040
g0
(g13
g2
Ntp4041
Rp4042
(dp4043
g17
I3
sg18
g19
(g23
S'F\x00\x00\x00\x00\x00\x00\x00'
p4044
tp4045
Rp4046
sg11
(lp4047
g0
(g13
g2
Ntp4048
Rp4049
(dp4050
g17
I4
sg18
g19
(g23
S'\x01\x00\x00\x00\x00\x00\x00\x00'
p4051
tp4052
Rp4053
sg11
(lp4054
g0
(g13
g2
Ntp4055
Rp4056
(dp4057
g17
I5
sg18
g19
(g23
S'\x05\x00\x00\x00\x00\x00\x00\x00'
p4058
tp4059
Rp4060
sg11
(lp4061
g0
(g44
g2
Ntp4062
Rp4063
(dp4064
g48
g19
(g51
S'\x00\x00\x00\x00\x00h\x85@'
p4065
tp4066
Rp4067
sbasg57
g58
sg59
g87
sbag0
(g13
g2
Ntp4068
Rp4069
(dp4070
g17
I5
sg18
g19
(g23
S'\x01\x00\x00\x00\x00\x00\x00\x00'
p4071
tp4072
Rp4073
sg11
(lp4074
g0
(g44
g2
Ntp4075
Rp4076
(dp4077
g48
g19
(g51
S'\x00\x00\x00\x00\x00 y@'
p4078
tp4079
Rp4080
sbasg57
g58
sg59
g87
sbasg57
g58
sg59
g60
sbag0
(g13
g2
Ntp4081
Rp4082
(dp4083
g17
I4
sg18
g19
(g23
S'\x06\x00\x00\x00\x00\x00\x00\x00'
p4084
tp4085
Rp4086
sg11
(lp4087
g0
(g44
g2
Ntp4088
Rp4089
(dp4090
g48
g19
(g51
S'\x00\x00\x00\x00\x00\xb4\x91@'
p4091
tp4092
Rp4093
sbasg57
g58
sg59
g60
sbag0
(g13
g2
Ntp4094
Rp4095
(dp4096
g17
I4
sg18
g19
(g23
S'\x03\x00\x00\x00\x00\x00\x00\x00'
p4097
tp4098
Rp4099
sg11
(lp4100
g0
(g44
g2
Ntp4101
Rp4102
(dp4103
g48
g19
(g51
S'\x00\x00\x00\x00\x00\xa0\x90@'
p4104
tp4105
Rp4106
sbasg57
g58
sg59
g60
sbasg57
g58
sg59
g253
sbasg57
g58
sg59
g274
sbag0
(g13
g2
Ntp4107
Rp4108
(dp4109
g17
I2
sg18
g19
(g23
S'\n\x00\x00\x00\x00\x00\x00\x00'
p4110
tp4111
Rp4112
sg11
(lp4113
g0
(g13
g2
Ntp4114
Rp4115
(dp4116
g17
I3
sg18
g19
(g23
S'F\x00\x00\x00\x00\x00\x00\x00'
p4117
tp4118
Rp4119
sg11
(lp4120
g0
(g13
g2
Ntp4121
Rp4122
(dp4123
g17
I4
sg18
g19
(g23
S'\x01\x00\x00\x00\x00\x00\x00\x00'
p4124
tp4125
Rp4126
sg11
(lp4127
g0
(g44
g2
Ntp4128
Rp4129
(dp4130
g48
g19
(g51
S'\x00\x00\x00\x00\x00\xa0|@'
p4131
tp4132
Rp4133
sbasg57
g58
sg59
g87
sbag0
(g13
g2
Ntp4134
Rp4135
(dp4136
g17
I4
sg18
g19
(g23
S'\x0c\x00\x00\x00\x00\x00\x00\x00'
p4137
tp4138
Rp4139
sg11
(lp4140
g0
(g13
g2
Ntp4141
Rp4142
(dp4143
g17
I5
sg18
g19
(g23
S'\x01\x00\x00\x00\x00\x00\x00\x00'
p4144
tp4145
Rp4146
sg11
(lp4147
g0
(g44
g2
Ntp4148
Rp4149
(dp4150
g48
g19
(g51
S'\x00\x00\x00\x00\x00`o@'
p4151
tp4152
Rp4153
sbasg57
g58
sg59
g60
sbag0
(g13
g2
Ntp4154
Rp4155
(dp4156
g17
I5
sg18
g19
(g23
S'\x00\x00\x00\x00\x00\x00\x00\x00'
p4157
tp4158
Rp4159
sg11
(lp4160
g0
(g44
g2
Ntp4161
Rp4162
(dp4163
g48
g19
(g51
S'\x00\x00\x00\x00\x00p~@'
p4164
tp4165
Rp4166
sbasg57
g58
sg59
g60
sbasg57
g58
sg59
g87
sbag0
(g13
g2
Ntp4167
Rp4168
(dp4169
g17
I4
sg18
g19
(g23
S'\x06\x00\x00\x00\x00\x00\x00\x00'
p4170
tp4171
Rp4172
sg11
(lp4173
g0
(g44
g2
Ntp4174
Rp4175
(dp4176
g48
g19
(g51
S'\x00\x00\x00\x00\x00\xe0\x83@'
p4177
tp4178
Rp4179
sbasg57
g58
sg59
g87
sbasg57
g58
sg59
g253
sbasg57
g58
sg59
g274
sbag0
(g13
g2
Ntp4180
Rp4181
(dp4182
g17
I2
sg18
g19
(g23
S'\t\x00\x00\x00\x00\x00\x00\x00'
p4183
tp4184
Rp4185
sg11
(lp4186
g0
(g13
g2
Ntp4187
Rp4188
(dp4189
g17
I3
sg18
g19
(g23
S'\x05\x00\x00\x00\x00\x00\x00\x00'
p4190
tp4191
Rp4192
sg11
(lp4193
g0
(g44
g2
Ntp4194
Rp4195
(dp4196
g48
g19
(g51
S'\x00\x00\x00\x00\x00\xf0\x8d@'
p4197
tp4198
Rp4199
sbasg57
g58
sg59
g87
sbag0
(g13
g2
Ntp4200
Rp4201
(dp4202
g17
I3
sg18
g19
(g23
S'\x02\x00\x00\x00\x00\x00\x00\x00'
p4203
tp4204
Rp4205
sg11
(lp4206
g0
(g44
g2
Ntp4207
Rp4208
(dp4209
g48
g19
(g51
S'\x00\x00\x00\x00\x00 q@'
p4210
tp4211
Rp4212
sbasg57
g58
sg59
g87
sbag0
(g13
g2
Ntp4213
Rp4214
(dp4215
g17
I3
sg18
g19
(g23
S'\x04\x00\x00\x00\x00\x00\x00\x00'
p4216
tp4217
Rp4218
sg11
(lp4219
g0
(g44
g2
Ntp4220
Rp4221
(dp4222
g48
g19
(g51
S'\x00\x00\x00\x00\x00\x90\x7f@'
p4223
tp4224
Rp4225
sbasg57
g58
sg59
g87
sbasg57
g58
sg59
g274
sbag0
(g13
g2
Ntp4226
Rp4227
(dp4228
g17
I2
sg18
g19
(g23
S'\x0e\x00\x00\x00\x00\x00\x00\x00'
p4229
tp4230
Rp4231
sg11
(lp4232
g0
(g44
g2
Ntp4233
Rp4234
(dp4235
g48
g19
(g51
S'\x00\x00\x00\x00\x000\x91@'
p4236
tp4237
Rp4238
sbasg57
g58
sg59
g274
sbag0
(g13
g2
Ntp4239
Rp4240
(dp4241
g17
I2
sg18
g19
(g23
S'\x0f\x00\x00\x00\x00\x00\x00\x00'
p4242
tp4243
Rp4244
sg11
(lp4245
g0
(g44
g2
Ntp4246
Rp4247
(dp4248
g48
g19
(g51
S'\x00\x00\x00\x00\x00\x8e\xa3@'
p4249
tp4250
Rp4251
sbasg57
g58
sg59
g274
sbasg57
g58
sg59
g253
sbag0
(g13
g2
Ntp4252
Rp4253
(dp4254
g17
I1
sg18
g19
(g23
S'8\x00\x00\x00\x00\x00\x00\x00'
p4255
tp4256
Rp4257
sg11
(lp4258
g0
(g13
g2
Ntp4259
Rp4260
(dp4261
g17
I2
sg18
g19
(g23
S'\x07\x00\x00\x00\x00\x00\x00\x00'
p4262
tp4263
Rp4264
sg11
(lp4265
g0
(g44
g2
Ntp4266
Rp4267
(dp4268
g48
g19
(g51
S'\x00\x00\x00\x00\x00\x00\x87@'
p4269
tp4270
Rp4271
sbasg57
g58
sg59
g87
sbag0
(g13
g2
Ntp4272
Rp4273
(dp4274
g17
I2
sg18
g19
(g23
S'\x03\x00\x00\x00\x00\x00\x00\x00'
p4275
tp4276
Rp4277
sg11
(lp4278
g0
(g44
g2
Ntp4279
Rp4280
(dp4281
g48
g19
(g51
S'\x00\x00\x00\x00\x00\xf0\x80@'
p4282
tp4283
Rp4284
sbasg57
g58
sg59
g87
sbag0
(g13
g2
Ntp4285
Rp4286
(dp4287
g17
I2
sg18
g19
(g23
S'\x04\x00\x00\x00\x00\x00\x00\x00'
p4288
tp4289
Rp4290
sg11
(lp4291
g0
(g44
g2
Ntp4292
Rp4293
(dp4294
g48
g19
(g51
S'\x00\x00\x00\x00\x00x\x80@'
p4295
tp4296
Rp4297
sbasg57
g58
sg59
g87
sbag0
(g13
g2
Ntp4298
Rp4299
(dp4300
g17
I2
sg18
g19
(g23
S'\x01\x00\x00\x00\x00\x00\x00\x00'
p4301
tp4302
Rp4303
sg11
(lp4304
g0
(g13
g2
Ntp4305
Rp4306
(dp4307
g17
I3
sg18
g19
(g23
S'8\x00\x00\x00\x00\x00\x00\x00'
p4308
tp4309
Rp4310
sg11
(lp4311
g0
(g13
g2
Ntp4312
Rp4313
(dp4314
g17
I4
sg18
g19
(g23
S'\x03\x00\x00\x00\x00\x00\x00\x00'
p4315
tp4316
Rp4317
sg11
(lp4318
g0
(g44
g2
Ntp4319
Rp4320
(dp4321
g48
g19
(g51
S'\x00\x00\x00\x00\x00\xa0r@'
p4322
tp4323
Rp4324
sbasg57
g58
sg59
g60
sbag0
(g13
g2
Ntp4325
Rp4326
(dp4327
g17
I4
sg18
g19
(g23
S'\x04\x00\x00\x00\x00\x00\x00\x00'
p4328
tp4329
Rp4330
sg11
(lp4331
g0
(g44
g2
Ntp4332
Rp4333
(dp4334
g48
g19
(g51
S'\x00\x00\x00\x00\x00 i@'
p4335
tp4336
Rp4337
sbasg57
g58
sg59
g60
sbag0
(g13
g2
Ntp4338
Rp4339
(dp4340
g17
I4
sg18
g19
(g23
S'\x00\x00\x00\x00\x00\x00\x00\x00'
p4341
tp4342
Rp4343
sg11
(lp4344
g0
(g44
g2
Ntp4345
Rp4346
(dp4347
g48
g19
(g51
S'\x00\x00\x00\x00\x00ps@'
p4348
tp4349
Rp4350
sbasg57
g58
sg59
g60
sbasg57
g58
sg59
g253
sbasg57
g58
sg59
g87
sbag0
(g13
g2
Ntp4351
Rp4352
(dp4353
g17
I2
sg18
g19
(g23
S'\x05\x00\x00\x00\x00\x00\x00\x00'
p4354
tp4355
Rp4356
sg11
(lp4357
g0
(g44
g2
Ntp4358
Rp4359
(dp4360
g48
g19
(g51
S'\x00\x00\x00\x00\x00\x80n@'
p4361
tp4362
Rp4363
sbasg57
g58
sg59
g87
sbag0
(g13
g2
Ntp4364
Rp4365
(dp4366
g17
I2
sg18
g19
(g23
S'\n\x00\x00\x00\x00\x00\x00\x00'
p4367
tp4368
Rp4369
sg11
(lp4370
g0
(g13
g2
Ntp4371
Rp4372
(dp4373
g17
I3
sg18
g19
(g23
S'\x08\x00\x00\x00\x00\x00\x00\x00'
p4374
tp4375
Rp4376
sg11
(lp4377
g0
(g44
g2
Ntp4378
Rp4379
(dp4380
g48
g19
(g51
S'\x00\x00\x00\x00\x00\x80{@'
p4381
tp4382
Rp4383
sbasg57
g58
sg59
g274
sbag0
(g13
g2
Ntp4384
Rp4385
(dp4386
g17
I3
sg18
g19
(g23
S'\x11\x00\x00\x00\x00\x00\x00\x00'
p4387
tp4388
Rp4389
sg11
(lp4390
g0
(g44
g2
Ntp4391
Rp4392
(dp4393
g48
g19
(g51
S'\x00\x00\x00\x00\x00\xe0e@'
p4394
tp4395
Rp4396
sbasg57
g58
sg59
g274
sbag0
(g13
g2
Ntp4397
Rp4398
(dp4399
g17
I3
sg18
g19
(g23
S'\x0f\x00\x00\x00\x00\x00\x00\x00'
p4400
tp4401
Rp4402
sg11
(lp4403
g0
(g44
g2
Ntp4404
Rp4405
(dp4406
g48
g19
(g51
S'\x00\x00\x00\x00\x00`\x83@'
p4407
tp4408
Rp4409
sbasg57
g58
sg59
g274
sbag0
(g13
g2
Ntp4410
Rp4411
(dp4412
g17
I3
sg18
g19
(g23
S'\r\x00\x00\x00\x00\x00\x00\x00'
p4413
tp4414
Rp4415
sg11
(lp4416
g0
(g44
g2
Ntp4417
Rp4418
(dp4419
g48
g19
(g51
S'\x00\x00\x00\x00\x00\x80y@'
p4420
tp4421
Rp4422
sbasg57
g58
sg59
g274
sbasg57
g58
sg59
g87
sbag0
(g13
g2
Ntp4423
Rp4424
(dp4425
g17
I2
sg18
g19
(g23
S'\x02\x00\x00\x00\x00\x00\x00\x00'
p4426
tp4427
Rp4428
sg11
(lp4429
g0
(g13
g2
Ntp4430
Rp4431
(dp4432
g17
I3
sg18
g19
(g23
S'\x01\x00\x00\x00\x00\x00\x00\x00'
p4433
tp4434
Rp4435
sg11
(lp4436
g0
(g44
g2
Ntp4437
Rp4438
(dp4439
g48
g19
(g51
S'\x00\x00\x00\x00\x00\xb0s@'
p4440
tp4441
Rp4442
sbasg57
g58
sg59
g60
sbag0
(g13
g2
Ntp4443
Rp4444
(dp4445
g17
I3
sg18
g19
(g23
S'\x02\x00\x00\x00\x00\x00\x00\x00'
p4446
tp4447
Rp4448
sg11
(lp4449
g0
(g44
g2
Ntp4450
Rp4451
(dp4452
g48
g19
(g51
S'\x00\x00\x00\x00\x00 \x81@'
p4453
tp4454
Rp4455
sbasg57
g58
sg59
g60
sbasg57
g58
sg59
g87
sbasg57
g58
sg59
g253
sbag0
(g13
g2
Ntp4456
Rp4457
(dp4458
g17
I1
sg18
g19
(g23
S'.\x00\x00\x00\x00\x00\x00\x00'
p4459
tp4460
Rp4461
sg11
(lp4462
g0
(g13
g2
Ntp4463
Rp4464
(dp4465
g17
I2
sg18
g19
(g23
S'\x02\x00\x00\x00\x00\x00\x00\x00'
p4466
tp4467
Rp4468
sg11
(lp4469
g0
(g44
g2
Ntp4470
Rp4471
(dp4472
g48
g19
(g51
S'\x00\x00\x00\x00\x00B\xd1@'
p4473
tp4474
Rp4475
sbasg57
g58
sg59
g60
sbag0
(g13
g2
Ntp4476
Rp4477
(dp4478
g17
I2
sg18
g19
(g23
S'\x01\x00\x00\x00\x00\x00\x00\x00'
p4479
tp4480
Rp4481
sg11
(lp4482
g0
(g13
g2
Ntp4483
Rp4484
(dp4485
g17
I3
sg18
g19
(g23
S'\x01\x00\x00\x00\x00\x00\x00\x00'
p4486
tp4487
Rp4488
sg11
(lp4489
g0
(g44
g2
Ntp4490
Rp4491
(dp4492
g48
g19
(g51
S'\x00\x00\x00\x00\x00\xc0\x82@'
p4493
tp4494
Rp4495
sbasg57
g58
sg59
g87
sbag0
(g13
g2
Ntp4496
Rp4497
(dp4498
g17
I3
sg18
g19
(g23
S'\x0b\x00\x00\x00\x00\x00\x00\x00'
p4499
tp4500
Rp4501
sg11
(lp4502
g0
(g44
g2
Ntp4503
Rp4504
(dp4505
g48
g19
(g51
S'\x00\x00\x00\x00\x00\x10\x86@'
p4506
tp4507
Rp4508
sbasg57
g58
sg59
g87
sbasg57
g58
sg59
g60
sbag0
(g13
g2
Ntp4509
Rp4510
(dp4511
g17
I2
sg18
g19
(g23
S'\x03\x00\x00\x00\x00\x00\x00\x00'
p4512
tp4513
Rp4514
sg11
(lp4515
g0
(g44
g2
Ntp4516
Rp4517
(dp4518
g48
g19
(g51
S'\x00\x00\x00\x00\x00@p@'
p4519
tp4520
Rp4521
sbasg57
g58
sg59
g60
sbag0
(g13
g2
Ntp4522
Rp4523
(dp4524
g17
I2
sg18
g19
(g23
S'\x06\x00\x00\x00\x00\x00\x00\x00'
p4525
tp4526
Rp4527
sg11
(lp4528
g0
(g44
g2
Ntp4529
Rp4530
(dp4531
g48
g19
(g51
S'\x00\x00\x00\x00\x00\xa0o@'
p4532
tp4533
Rp4534
sbasg57
g58
sg59
g60
sbag0
(g13
g2
Ntp4535
Rp4536
(dp4537
g17
I2
sg18
g19
(g23
S'\x05\x00\x00\x00\x00\x00\x00\x00'
p4538
tp4539
Rp4540
sg11
(lp4541
g0
(g44
g2
Ntp4542
Rp4543
(dp4544
g48
g19
(g51
S'\x00\x00\x00\x00\x00\x88\x8b@'
p4545
tp4546
Rp4547
sbasg57
g58
sg59
g60
sbasg57
g58
sg59
g253
sbag0
(g13
g2
Ntp4548
Rp4549
(dp4550
g17
I1
sg18
g19
(g23
S'J\x00\x00\x00\x00\x00\x00\x00'
p4551
tp4552
Rp4553
sg11
(lp4554
g0
(g13
g2
Ntp4555
Rp4556
(dp4557
g17
I2
sg18
g19
(g23
S'\x08\x00\x00\x00\x00\x00\x00\x00'
p4558
tp4559
Rp4560
sg11
(lp4561
g0
(g13
g2
Ntp4562
Rp4563
(dp4564
g17
I3
sg18
g19
(g23
S'\x02\x00\x00\x00\x00\x00\x00\x00'
p4565
tp4566
Rp4567
sg11
(lp4568
g0
(g44
g2
Ntp4569
Rp4570
(dp4571
g48
g19
(g51
S'\x00\x00\x00\x00\x00\x10\x80@'
p4572
tp4573
Rp4574
sbasg57
g58
sg59
g87
sbag0
(g13
g2
Ntp4575
Rp4576
(dp4577
g17
I3
sg18
g19
(g23
S'\x0b\x00\x00\x00\x00\x00\x00\x00'
p4578
tp4579
Rp4580
sg11
(lp4581
g0
(g44
g2
Ntp4582
Rp4583
(dp4584
g48
g19
(g51
S'\x00\x00\x00\x00\x00P~@'
p4585
tp4586
Rp4587
sbasg57
g58
sg59
g87
sbag0
(g13
g2
Ntp4588
Rp4589
(dp4590
g17
I3
sg18
g19
(g23
S'\x07\x00\x00\x00\x00\x00\x00\x00'
p4591
tp4592
Rp4593
sg11
(lp4594
g0
(g13
g2
Ntp4595
Rp4596
(dp4597
g17
I4
sg18
g19
(g23
S'\x00\x00\x00\x00\x00\x00\x00\x00'
p4598
tp4599
Rp4600
sg11
(lp4601
g0
(g44
g2
Ntp4602
Rp4603
(dp4604
g48
g19
(g51
S'\x00\x00\x00\x00\x00\xe0\x8a@'
p4605
tp4606
Rp4607
sbasg57
g58
sg59
g60
sbag0
(g13
g2
Ntp4608
Rp4609
(dp4610
g17
I4
sg18
g19
(g23
S'\x01\x00\x00\x00\x00\x00\x00\x00'
p4611
tp4612
Rp4613
sg11
(lp4614
g0
(g44
g2
Ntp4615
Rp4616
(dp4617
g48
g19
(g51
S'\x00\x00\x00\x00\x00p~@'
p4618
tp4619
Rp4620
sbasg57
g58
sg59
g60
sbasg57
g58
sg59
g87
sbasg57
g58
sg59
g274
sbag0
(g13
g2
Ntp4621
Rp4622
(dp4623
g17
I2
sg18
g19
(g23
S'\x07\x00\x00\x00\x00\x00\x00\x00'
p4624
tp4625
Rp4626
sg11
(lp4627
g0
(g44
g2
Ntp4628
Rp4629
(dp4630
g48
g19
(g51
S'\x00\x00\x00\x00\x00`\x7f@'
p4631
tp4632
Rp4633
sbasg57
g58
sg59
g274
sbag0
(g13
g2
Ntp4634
Rp4635
(dp4636
g17
I2
sg18
g19
(g23
S'\x11\x00\x00\x00\x00\x00\x00\x00'
p4637
tp4638
Rp4639
sg11
(lp4640
g0
(g13
g2
Ntp4641
Rp4642
(dp4643
g17
I3
sg18
g19
(g23
S'\x02\x00\x00\x00\x00\x00\x00\x00'
p4644
tp4645
Rp4646
sg11
(lp4647
g0
(g44
g2
Ntp4648
Rp4649
(dp4650
g48
g19
(g51
S'\x00\x00\x00\x00\x00\x90\x81@'
p4651
tp4652
Rp4653
sbasg57
g58
sg59
g87
sbag0
(g13
g2
Ntp4654
Rp4655
(dp4656
g17
I3
sg18
g19
(g23
S'\x0b\x00\x00\x00\x00\x00\x00\x00'
p4657
tp4658
Rp4659
sg11
(lp4660
g0
(g44
g2
Ntp4661
Rp4662
(dp4663
g48
g19
(g51
S'\x00\x00\x00\x00\x00\xe0\x8a@'
p4664
tp4665
Rp4666
sbasg57
g58
sg59
g87
sbag0
(g13
g2
Ntp4667
Rp4668
(dp4669
g17
I3
sg18
g19
(g23
S'\t\x00\x00\x00\x00\x00\x00\x00'
p4670
tp4671
Rp4672
sg11
(lp4673
g0
(g13
g2
Ntp4674
Rp4675
(dp4676
g17
I4
sg18
g19
(g23
S'\x01\x00\x00\x00\x00\x00\x00\x00'
p4677
tp4678
Rp4679
sg11
(lp4680
g0
(g13
g2
Ntp4681
Rp4682
(dp4683
g17
I5
sg18
g19
(g23
S'J\x00\x00\x00\x00\x00\x00\x00'
p4684
tp4685
Rp4686
sg11
(lp4687
g0
(g13
g2
Ntp4688
Rp4689
(dp4690
g17
I6
sg18
g19
(g23
S'J\x00\x00\x00\x00\x00\x00\x00'
p4691
tp4692
Rp4693
sg11
(lp4694
g0
(g13
g2
Ntp4695
Rp4696
(dp4697
g17
I7
sg18
g19
(g23
S'J\x00\x00\x00\x00\x00\x00\x00'
p4698
tp4699
Rp4700
sg11
(lp4701
g0
(g13
g2
Ntp4702
Rp4703
(dp4704
g17
I8
sg18
g19
(g23
S'\x02\x00\x00\x00\x00\x00\x00\x00'
p4705
tp4706
Rp4707
sg11
(lp4708
g0
(g13
g2
Ntp4709
Rp4710
(dp4711
g17
I9
sg18
g19
(g23
S'J\x00\x00\x00\x00\x00\x00\x00'
p4712
tp4713
Rp4714
sg11
(lp4715
g0
(g13
g2
Ntp4716
Rp4717
(dp4718
g17
I10
sg18
g19
(g23
S'J\x00\x00\x00\x00\x00\x00\x00'
p4719
tp4720
Rp4721
sg11
(lp4722
g0
(g13
g2
Ntp4723
Rp4724
(dp4725
g17
I11
sg18
g19
(g23
S'\x01\x00\x00\x00\x00\x00\x00\x00'
p4726
tp4727
Rp4728
sg11
(lp4729
g0
(g13
g2
Ntp4730
Rp4731
(dp4732
g17
I12
sg18
g19
(g23
S'J\x00\x00\x00\x00\x00\x00\x00'
p4733
tp4734
Rp4735
sg11
(lp4736
g0
(g13
g2
Ntp4737
Rp4738
(dp4739
g17
I13
sg18
g19
(g23
S'J\x00\x00\x00\x00\x00\x00\x00'
p4740
tp4741
Rp4742
sg11
(lp4743
g0
(g13
g2
Ntp4744
Rp4745
(dp4746
g17
I14
sg18
g19
(g23
S'J\x00\x00\x00\x00\x00\x00\x00'
p4747
tp4748
Rp4749
sg11
(lp4750
g0
(g13
g2
Ntp4751
Rp4752
(dp4753
g17
I15
sg18
g19
(g23
S'J\x00\x00\x00\x00\x00\x00\x00'
p4754
tp4755
Rp4756
sg11
(lp4757
g0
(g13
g2
Ntp4758
Rp4759
(dp4760
g17
I16
sg18
g19
(g23
S'\x01\x00\x00\x00\x00\x00\x00\x00'
p4761
tp4762
Rp4763
sg11
(lp4764
g0
(g13
g2
Ntp4765
Rp4766
(dp4767
g17
I17
sg18
g19
(g23
S'\x01\x00\x00\x00\x00\x00\x00\x00'
p4768
tp4769
Rp4770
sg11
(lp4771
g0
(g13
g2
Ntp4772
Rp4773
(dp4774
g17
I18
sg18
g19
(g23
S'J\x00\x00\x00\x00\x00\x00\x00'
p4775
tp4776
Rp4777
sg11
(lp4778
g0
(g13
g2
Ntp4779
Rp4780
(dp4781
g17
I19
sg18
g19
(g23
S'J\x00\x00\x00\x00\x00\x00\x00'
p4782
tp4783
Rp4784
sg11
(lp4785
g0
(g13
g2
Ntp4786
Rp4787
(dp4788
g17
I20
sg18
g19
(g23
S'J\x00\x00\x00\x00\x00\x00\x00'
p4789
tp4790
Rp4791
sg11
(lp4792
g0
(g13
g2
Ntp4793
Rp4794
(dp4795
g17
I21
sg18
g19
(g23
S'\x01\x00\x00\x00\x00\x00\x00\x00'
p4796
tp4797
Rp4798
sg11
(lp4799
g0
(g13
g2
Ntp4800
Rp4801
(dp4802
g17
I22
sg18
g19
(g23
S'J\x00\x00\x00\x00\x00\x00\x00'
p4803
tp4804
Rp4805
sg11
(lp4806
g0
(g13
g2
Ntp4807
Rp4808
(dp4809
g17
I23
sg18
g19
(g23
S'\x01\x00\x00\x00\x00\x00\x00\x00'
p4810
tp4811
Rp4812
sg11
(lp4813
g0
(g13
g2
Ntp4814
Rp4815
(dp4816
g17
I24
sg18
g19
(g23
S'J\x00\x00\x00\x00\x00\x00\x00'
p4817
tp4818
Rp4819
sg11
(lp4820
g0
(g13
g2
Ntp4821
Rp4822
(dp4823
g17
I25
sg18
g19
(g23
S'J\x00\x00\x00\x00\x00\x00\x00'
p4824
tp4825
Rp4826
sg11
(lp4827
g0
(g44
g2
Ntp4828
Rp4829
(dp4830
g48
g19
(g51
S'\x00\x00\x00\x00\x00@\x83@'
p4831
tp4832
Rp4833
sbasg57
g58
sg59
g253
sbasg57
g58
sg59
g253
sbasg57
g58
sg59
g187
sbasg57
g58
sg59
g253
sbasg57
g58
sg59
g187
sbasg57
g58
sg59
g253
sbasg57
g58
sg59
g253
sbasg57
g58
sg59
g253
sbasg57
g58
sg59
g187
sbasg57
g58
sg59
g187
sbasg57
g58
sg59
g253
sbasg57
g58
sg59
g253
sbasg57
g58
sg59
g253
sbasg57
g58
sg59
g253
sbasg57
g58
sg59
g187
sbasg57
g58
sg59
g253
sbasg57
g58
sg59
g253
sbasg57
g58
sg59
g60
sbasg57
g58
sg59
g253
sbasg57
g58
sg59
g253
sbasg57
g58
sg59
g253
sbasg57
g58
sg59
g187
sbasg57
g58
sg59
g87
sbasg57
g58
sg59
g274
sbag0
(g13
g2
Ntp4834
Rp4835
(dp4836
g17
I2
sg18
g19
(g23
S'\r\x00\x00\x00\x00\x00\x00\x00'
p4837
tp4838
Rp4839
sg11
(lp4840
g0
(g13
g2
Ntp4841
Rp4842
(dp4843
g17
I3
sg18
g19
(g23
S'\x06\x00\x00\x00\x00\x00\x00\x00'
p4844
tp4845
Rp4846
sg11
(lp4847
g0
(g44
g2
Ntp4848
Rp4849
(dp4850
g48
g19
(g51
S'\x00\x00\x00\x00\x00\xb8\x80@'
p4851
tp4852
Rp4853
sbasg57
g58
sg59
g87
sbag0
(g13
g2
Ntp4854
Rp4855
(dp4856
g17
I3
sg18
g19
(g23
S'\x01\x00\x00\x00\x00\x00\x00\x00'
p4857
tp4858
Rp4859
sg11
(lp4860
g0
(g44
g2
Ntp4861
Rp4862
(dp4863
g48
g19
(g51
S'\x00\x00\x00\x00\x00\xe0y@'
p4864
tp4865
Rp4866
sbasg57
g58
sg59
g87
sbag0
(g13
g2
Ntp4867
Rp4868
(dp4869
g17
I3
sg18
g19
(g23
S'\x03\x00\x00\x00\x00\x00\x00\x00'
p4870
tp4871
Rp4872
sg11
(lp4873
g0
(g44
g2
Ntp4874
Rp4875
(dp4876
g48
g19
(g51
S'\x00\x00\x00\x00\x000\x82@'
p4877
tp4878
Rp4879
sbasg57
g58
sg59
g87
sbasg57
g58
sg59
g274
sbag0
(g13
g2
Ntp4880
Rp4881
(dp4882
g17
I2
sg18
g19
(g23
S'\x0e\x00\x00\x00\x00\x00\x00\x00'
p4883
tp4884
Rp4885
sg11
(lp4886
g0
(g44
g2
Ntp4887
Rp4888
(dp4889
g48
g19
(g51
S'\x00\x00\x00\x00\x00\xd0v@'
p4890
tp4891
Rp4892
sbasg57
g58
sg59
g274
sbag0
(g13
g2
Ntp4893
Rp4894
(dp4895
g17
I2
sg18
g19
(g23
S'\x12\x00\x00\x00\x00\x00\x00\x00'
p4896
tp4897
Rp4898
sg11
(lp4899
g0
(g13
g2
Ntp4900
Rp4901
(dp4902
g17
I3
sg18
g19
(g23
S'\x00\x00\x00\x00\x00\x00\x00\x00'
p4903
tp4904
Rp4905
sg11
(lp4906
g0
(g44
g2
Ntp4907
Rp4908
(dp4909
g48
g19
(g51
S'\x00\x00\x00\x00\x00@\x89@'
p4910
tp4911
Rp4912
sbasg57
g58
sg59
g60
sbag0
(g13
g2
Ntp4913
Rp4914
(dp4915
g17
I3
sg18
g19
(g23
S'\x01\x00\x00\x00\x00\x00\x00\x00'
p4916
tp4917
Rp4918
sg11
(lp4919
g0
(g44
g2
Ntp4920
Rp4921
(dp4922
g48
g19
(g51
S'\x00\x00\x00\x00\x00\xc0\x7f@'
p4923
tp4924
Rp4925
sbasg57
g58
sg59
g60
sbasg57
g58
sg59
g274
sbag0
(g13
g2
Ntp4926
Rp4927
(dp4928
g17
I2
sg18
g19
(g23
S'\t\x00\x00\x00\x00\x00\x00\x00'
p4929
tp4930
Rp4931
sg11
(lp4932
g0
(g44
g2
Ntp4933
Rp4934
(dp4935
g48
g19
(g51
S'\x00\x00\x00\x00\x00\xe0z@'
p4936
tp4937
Rp4938
sbasg57
g58
sg59
g274
sbag0
(g13
g2
Ntp4939
Rp4940
(dp4941
g17
I2
sg18
g19
(g23
S'\x10\x00\x00\x00\x00\x00\x00\x00'
p4942
tp4943
Rp4944
sg11
(lp4945
g0
(g13
g2
Ntp4946
Rp4947
(dp4948
g17
I3
sg18
g19
(g23
S'\x01\x00\x00\x00\x00\x00\x00\x00'
p4949
tp4950
Rp4951
sg11
(lp4952
g0
(g44
g2
Ntp4953
Rp4954
(dp4955
g48
g19
(g51
S'\x00\x00\x00\x00\x000q@'
p4956
tp4957
Rp4958
sbasg57
g58
sg59
g60
sbag0
(g13
g2
Ntp4959
Rp4960
(dp4961
g17
I3
sg18
g19
(g23
S'\x02\x00\x00\x00\x00\x00\x00\x00'
p4962
tp4963
Rp4964
sg11
(lp4965
g0
(g44
g2
Ntp4966
Rp4967
(dp4968
g48
g19
(g51
S'\x00\x00\x00\x00\x00\xb0|@'
p4969
tp4970
Rp4971
sbasg57
g58
sg59
g60
sbasg57
g58
sg59
g274
sbasg57
g58
sg59
g253
sbag0
(g13
g2
Ntp4972
Rp4973
(dp4974
g17
I1
sg18
g19
(g23
S'/\x00\x00\x00\x00\x00\x00\x00'
p4975
tp4976
Rp4977
sg11
(lp4978
g0
(g13
g2
Ntp4979
Rp4980
(dp4981
g17
I2
sg18
g19
(g23
S'\t\x00\x00\x00\x00\x00\x00\x00'
p4982
tp4983
Rp4984
sg11
(lp4985
g0
(g44
g2
Ntp4986
Rp4987
(dp4988
g48
g19
(g51
S'\x00\x00\x00\x00\x00\xc0y@'
p4989
tp4990
Rp4991
sbasg57
g58
sg59
g274
sbag0
(g13
g2
Ntp4992
Rp4993
(dp4994
g17
I2
sg18
g19
(g23
S'\r\x00\x00\x00\x00\x00\x00\x00'
p4995
tp4996
Rp4997
sg11
(lp4998
g0
(g44
g2
Ntp4999
Rp5000
(dp5001
g48
g19
(g51
S'\x00\x00\x00\x00\x00\x00u@'
p5002
tp5003
Rp5004
sbasg57
g58
sg59
g274
sbag0
(g13
g2
Ntp5005
Rp5006
(dp5007
g17
I2
sg18
g19
(g23
S'\x10\x00\x00\x00\x00\x00\x00\x00'
p5008
tp5009
Rp5010
sg11
(lp5011
g0
(g44
g2
Ntp5012
Rp5013
(dp5014
g48
g19
(g51
S'\x00\x00\x00\x00\x00@{@'
p5015
tp5016
Rp5017
sbasg57
g58
sg59
g274
sbag0
(g13
g2
Ntp5018
Rp5019
(dp5020
g17
I2
sg18
g19
(g23
S'\x11\x00\x00\x00\x00\x00\x00\x00'
p5021
tp5022
Rp5023
sg11
(lp5024
g0
(g13
g2
Ntp5025
Rp5026
(dp5027
g17
I3
sg18
g19
(g23
S'\x0c\x00\x00\x00\x00\x00\x00\x00'
p5028
tp5029
Rp5030
sg11
(lp5031
g0
(g44
g2
Ntp5032
Rp5033
(dp5034
g48
g19
(g51
S'\x00\x00\x00\x00\x00`h@'
p5035
tp5036
Rp5037
sbasg57
g58
sg59
g87
sbag0
(g13
g2
Ntp5038
Rp5039
(dp5040
g17
I3
sg18
g19
(g23
S'\x06\x00\x00\x00\x00\x00\x00\x00'
p5041
tp5042
Rp5043
sg11
(lp5044
g0
(g44
g2
Ntp5045
Rp5046
(dp5047
g48
g19
(g51
S'\x00\x00\x00\x00\x00\x10r@'
p5048
tp5049
Rp5050
sbasg57
g58
sg59
g87
sbasg57
g58
sg59
g274
sbag0
(g13
g2
Ntp5051
Rp5052
(dp5053
g17
I2
sg18
g19
(g23
S'\x08\x00\x00\x00\x00\x00\x00\x00'
p5054
tp5055
Rp5056
sg11
(lp5057
g0
(g44
g2
Ntp5058
Rp5059
(dp5060
g48
g19
(g51
S'\x00\x00\x00\x00\x00`k@'
p5061
tp5062
Rp5063
sbasg57
g58
sg59
g274
sbag0
(g13
g2
Ntp5064
Rp5065
(dp5066
g17
I2
sg18
g19
(g23
S'\n\x00\x00\x00\x00\x00\x00\x00'
p5067
tp5068
Rp5069
sg11
(lp5070
g0
(g44
g2
Ntp5071
Rp5072
(dp5073
g48
g19
(g51
S'\x00\x00\x00\x00\x00(\xa1@'
p5074
tp5075
Rp5076
sbasg57
g58
sg59
g274
sbag0
(g13
g2
Ntp5077
Rp5078
(dp5079
g17
I2
sg18
g19
(g23
S'\x0b\x00\x00\x00\x00\x00\x00\x00'
p5080
tp5081
Rp5082
sg11
(lp5083
g0
(g44
g2
Ntp5084
Rp5085
(dp5086
g48
g19
(g51
S'\x00\x00\x00\x00\x800\xcb@'
p5087
tp5088
Rp5089
sbasg57
g58
sg59
g274
sbasg57
g58
sg59
g253
sbag0
(g13
g2
Ntp5090
Rp5091
(dp5092
g17
I1
sg18
g19
(g23
S'G\x00\x00\x00\x00\x00\x00\x00'
p5093
tp5094
Rp5095
sg11
(lp5096
g0
(g13
g2
Ntp5097
Rp5098
(dp5099
g17
I2
sg18
g19
(g23
S'\x07\x00\x00\x00\x00\x00\x00\x00'
p5100
tp5101
Rp5102
sg11
(lp5103
g0
(g13
g2
Ntp5104
Rp5105
(dp5106
g17
I3
sg18
g19
(g23
S'\x02\x00\x00\x00\x00\x00\x00\x00'
p5107
tp5108
Rp5109
sg11
(lp5110
g0
(g44
g2
Ntp5111
Rp5112
(dp5113
g48
g19
(g51
S'\x00\x00\x00\x00\x00p\x89@'
p5114
tp5115
Rp5116
sbasg57
g58
sg59
g60
sbag0
(g13
g2
Ntp5117
Rp5118
(dp5119
g17
I3
sg18
g19
(g23
S'\x01\x00\x00\x00\x00\x00\x00\x00'
p5120
tp5121
Rp5122
sg11
(lp5123
g0
(g44
g2
Ntp5124
Rp5125
(dp5126
g48
g19
(g51
S'\x00\x00\x00\x00\x00H\x84@'
p5127
tp5128
Rp5129
sbasg57
g58
sg59
g60
sbag0
(g13
g2
Ntp5130
Rp5131
(dp5132
g17
I3
sg18
g19
(g23
S'\x04\x00\x00\x00\x00\x00\x00\x00'
p5133
tp5134
Rp5135
sg11
(lp5136
g0
(g44
g2
Ntp5137
Rp5138
(dp5139
g48
g19
(g51
S'\x00\x00\x00\x00\x00\x80u@'
p5140
tp5141
Rp5142
sbasg57
g58
sg59
g60
sbasg57
g58
sg59
g274
sbag0
(g13
g2
Ntp5143
Rp5144
(dp5145
g17
I2
sg18
g19
(g23
S'\x16\x00\x00\x00\x00\x00\x00\x00'
p5146
tp5147
Rp5148
sg11
(lp5149
g0
(g44
g2
Ntp5150
Rp5151
(dp5152
g48
g19
(g51
S'\x00\x00\x00\x00\x80j\xc1@'
p5153
tp5154
Rp5155
sbasg57
g58
sg59
g274
sbag0
(g13
g2
Ntp5156
Rp5157
(dp5158
g17
I2
sg18
g19
(g23
S'\x0e\x00\x00\x00\x00\x00\x00\x00'
p5159
tp5160
Rp5161
sg11
(lp5162
g0
(g13
g2
Ntp5163
Rp5164
(dp5165
g17
I3
sg18
g19
(g23
S'\x0c\x00\x00\x00\x00\x00\x00\x00'
p5166
tp5167
Rp5168
sg11
(lp5169
g0
(g44
g2
Ntp5170
Rp5171
(dp5172
g48
g19
(g51
S'\x00\x00\x00\x00\x00`t@'
p5173
tp5174
Rp5175
sbasg57
g58
sg59
g87
sbag0
(g13
g2
Ntp5176
Rp5177
(dp5178
g17
I3
sg18
g19
(g23
S'\x02\x00\x00\x00\x00\x00\x00\x00'
p5179
tp5180
Rp5181
sg11
(lp5182
g0
(g44
g2
Ntp5183
Rp5184
(dp5185
g48
g19
(g51
S'\x00\x00\x00\x00\x00p\x8b@'
p5186
tp5187
Rp5188
sbasg57
g58
sg59
g87
sbag0
(g13
g2
Ntp5189
Rp5190
(dp5191
g17
I3
sg18
g19
(g23
S'\x04\x00\x00\x00\x00\x00\x00\x00'
p5192
tp5193
Rp5194
sg11
(lp5195
g0
(g44
g2
Ntp5196
Rp5197
(dp5198
g48
g19
(g51
S'\x00\x00\x00\x00\x00\xb8\x88@'
p5199
tp5200
Rp5201
sbasg57
g58
sg59
g87
sbag0
(g13
g2
Ntp5202
Rp5203
(dp5204
g17
I3
sg18
g19
(g23
S'\x01\x00\x00\x00\x00\x00\x00\x00'
p5205
tp5206
Rp5207
sg11
(lp5208
g0
(g44
g2
Ntp5209
Rp5210
(dp5211
g48
g19
(g51
S'\x00\x00\x00\x00\x00`\x80@'
p5212
tp5213
Rp5214
sbasg57
g58
sg59
g87
sbasg57
g58
sg59
g274
sbag0
(g13
g2
Ntp5215
Rp5216
(dp5217
g17
I2
sg18
g19
(g23
S'\x15\x00\x00\x00\x00\x00\x00\x00'
p5218
tp5219
Rp5220
sg11
(lp5221
g0
(g44
g2
Ntp5222
Rp5223
(dp5224
g48
g19
(g51
S'\x00\x00\x00\x00\x00x\x82@'
p5225
tp5226
Rp5227
sbasg57
g58
sg59
g274
sbag0
(g13
g2
Ntp5228
Rp5229
(dp5230
g17
I2
sg18
g19
(g23
S'\x12\x00\x00\x00\x00\x00\x00\x00'
p5231
tp5232
Rp5233
sg11
(lp5234
g0
(g44
g2
Ntp5235
Rp5236
(dp5237
g48
g19
(g51
S'\x00\x00\x00\x00\x00\xe8\x82@'
p5238
tp5239
Rp5240
sbasg57
g58
sg59
g274
sbag0
(g13
g2
Ntp5241
Rp5242
(dp5243
g17
I2
sg18
g19
(g23
S'\r\x00\x00\x00\x00\x00\x00\x00'
p5244
tp5245
Rp5246
sg11
(lp5247
g0
(g44
g2
Ntp5248
Rp5249
(dp5250
g48
g19
(g51
S'\x00\x00\x00\x00\x00`m@'
p5251
tp5252
Rp5253
sbasg57
g58
sg59
g274
sbag0
(g13
g2
Ntp5254
Rp5255
(dp5256
g17
I2
sg18
g19
(g23
S'\x00\x00\x00\x00\x00\x00\x00\x00'
p5257
tp5258
Rp5259
sg11
(lp5260
g0
(g44
g2
Ntp5261
Rp5262
(dp5263
g48
g19
(g51
S'\x00\x00\x00\x00\x00P\x81@'
p5264
tp5265
Rp5266
sbasg57
g58
sg59
g274
sbag0
(g13
g2
Ntp5267
Rp5268
(dp5269
g17
I2
sg18
g19
(g23
S'\x08\x00\x00\x00\x00\x00\x00\x00'
p5270
tp5271
Rp5272
sg11
(lp5273
g0
(g44
g2
Ntp5274
Rp5275
(dp5276
g48
g19
(g51
S'\x00\x00\x00\x00\x00\x90v@'
p5277
tp5278
Rp5279
sbasg57
g58
sg59
g274
sbasg57
g58
sg59
g253
sbag0
(g13
g2
Ntp5280
Rp5281
(dp5282
g17
I1
sg18
g19
(g23
S'7\x00\x00\x00\x00\x00\x00\x00'
p5283
tp5284
Rp5285
sg11
(lp5286
g0
(g13
g2
Ntp5287
Rp5288
(dp5289
g17
I2
sg18
g19
(g23
S'\x0f\x00\x00\x00\x00\x00\x00\x00'
p5290
tp5291
Rp5292
sg11
(lp5293
g0
(g44
g2
Ntp5294
Rp5295
(dp5296
g48
g19
(g51
S'\x00\x00\x00\x00\x00\xd0\x82@'
p5297
tp5298
Rp5299
sbasg57
g58
sg59
g274
sbag0
(g13
g2
Ntp5300
Rp5301
(dp5302
g17
I2
sg18
g19
(g23
S'\x10\x00\x00\x00\x00\x00\x00\x00'
p5303
tp5304
Rp5305
sg11
(lp5306
g0
(g13
g2
Ntp5307
Rp5308
(dp5309
g17
I3
sg18
g19
(g23
S'\x02\x00\x00\x00\x00\x00\x00\x00'
p5310
tp5311
Rp5312
sg11
(lp5313
g0
(g44
g2
Ntp5314
Rp5315
(dp5316
g48
g19
(g51
S'\x00\x00\x00\x00\x00`\x8b@'
p5317
tp5318
Rp5319
sbasg57
g58
sg59
g60
sbag0
(g13
g2
Ntp5320
Rp5321
(dp5322
g17
I3
sg18
g19
(g23
S'\x00\x00\x00\x00\x00\x00\x00\x00'
p5323
tp5324
Rp5325
sg11
(lp5326
g0
(g44
g2
Ntp5327
Rp5328
(dp5329
g48
g19
(g51
S'\x00\x00\x00\x00\x008\x81@'
p5330
tp5331
Rp5332
sbasg57
g58
sg59
g60
sbag0
(g13
g2
Ntp5333
Rp5334
(dp5335
g17
I3
sg18
g19
(g23
S'\x03\x00\x00\x00\x00\x00\x00\x00'
p5336
tp5337
Rp5338
sg11
(lp5339
g0
(g44
g2
Ntp5340
Rp5341
(dp5342
g48
g19
(g51
S'\x00\x00\x00\x00\x00`r@'
p5343
tp5344
Rp5345
sbasg57
g58
sg59
g60
sbasg57
g58
sg59
g274
sbag0
(g13
g2
Ntp5346
Rp5347
(dp5348
g17
I2
sg18
g19
(g23
S'\x16\x00\x00\x00\x00\x00\x00\x00'
p5349
tp5350
Rp5351
sg11
(lp5352
g0
(g44
g2
Ntp5353
Rp5354
(dp5355
g48
g19
(g51
S'\x00\x00\x00\x00\x00\x98\x90@'
p5356
tp5357
Rp5358
sbasg57
g58
sg59
g274
sbag0
(g13
g2
Ntp5359
Rp5360
(dp5361
g17
I2
sg18
g19
(g23
S'\r\x00\x00\x00\x00\x00\x00\x00'
p5362
tp5363
Rp5364
sg11
(lp5365
g0
(g44
g2
Ntp5366
Rp5367
(dp5368
g48
g19
(g51
S'\x00\x00\x00\x00\x00\xf0q@'
p5369
tp5370
Rp5371
sbasg57
g58
sg59
g274
sbag0
(g13
g2
Ntp5372
Rp5373
(dp5374
g17
I2
sg18
g19
(g23
S'\x11\x00\x00\x00\x00\x00\x00\x00'
p5375
tp5376
Rp5377
sg11
(lp5378
g0
(g13
g2
Ntp5379
Rp5380
(dp5381
g17
I3
sg18
g19
(g23
S'\x03\x00\x00\x00\x00\x00\x00\x00'
p5382
tp5383
Rp5384
sg11
(lp5385
g0
(g44
g2
Ntp5386
Rp5387
(dp5388
g48
g19
(g51
S'\x00\x00\x00\x00\x00\xfc\x93@'
p5389
tp5390
Rp5391
sbasg57
g58
sg59
g60
sbag0
(g13
g2
Ntp5392
Rp5393
(dp5394
g17
I3
sg18
g19
(g23
S'\x04\x00\x00\x00\x00\x00\x00\x00'
p5395
tp5396
Rp5397
sg11
(lp5398
g0
(g13
g2
Ntp5399
Rp5400
(dp5401
g17
I4
sg18
g19
(g23
S'\n\x00\x00\x00\x00\x00\x00\x00'
p5402
tp5403
Rp5404
sg11
(lp5405
g0
(g44
g2
Ntp5406
Rp5407
(dp5408
g48
g19
(g51
S'\x00\x00\x00\x00\x00 |@'
p5409
tp5410
Rp5411
sbasg57
g58
sg59
g87
sbag0
(g13
g2
Ntp5412
Rp5413
(dp5414
g17
I4
sg18
g19
(g23
S'\x08\x00\x00\x00\x00\x00\x00\x00'
p5415
tp5416
Rp5417
sg11
(lp5418
g0
(g44
g2
Ntp5419
Rp5420
(dp5421
g48
g19
(g51
S'\x00\x00\x00\x00\x00\xe8\x84@'
p5422
tp5423
Rp5424
sbasg57
g58
sg59
g87
sbasg57
g58
sg59
g60
sbasg57
g58
sg59
g274
sbag0
(g13
g2
Ntp5425
Rp5426
(dp5427
g17
I2
sg18
g19
(g23
S'\t\x00\x00\x00\x00\x00\x00\x00'
p5428
tp5429
Rp5430
sg11
(lp5431
g0
(g44
g2
Ntp5432
Rp5433
(dp5434
g48
g19
(g51
S'\x00\x00\x00\x00\x00\x88\x86@'
p5435
tp5436
Rp5437
sbasg57
g58
sg59
g274
sbag0
(g13
g2
Ntp5438
Rp5439
(dp5440
g17
I2
sg18
g19
(g23
S'\x14\x00\x00\x00\x00\x00\x00\x00'
p5441
tp5442
Rp5443
sg11
(lp5444
g0
(g44
g2
Ntp5445
Rp5446
(dp5447
g48
g19
(g51
S'\x00\x00\x00\x00\x00\xcc\x91@'
p5448
tp5449
Rp5450
sbasg57
g58
sg59
g274
sbag0
(g13
g2
Ntp5451
Rp5452
(dp5453
g17
I2
sg18
g19
(g23
S'\x07\x00\x00\x00\x00\x00\x00\x00'
p5454
tp5455
Rp5456
sg11
(lp5457
g0
(g13
g2
Ntp5458
Rp5459
(dp5460
g17
I3
sg18
g19
(g23
S'\x03\x00\x00\x00\x00\x00\x00\x00'
p5461
tp5462
Rp5463
sg11
(lp5464
g0
(g44
g2
Ntp5465
Rp5466
(dp5467
g48
g19
(g51
S'\x00\x00\x00\x00\x00x\x80@'
p5468
tp5469
Rp5470
sbasg57
g58
sg59
g60
sbag0
(g13
g2
Ntp5471
Rp5472
(dp5473
g17
I3
sg18
g19
(g23
S'\x01\x00\x00\x00\x00\x00\x00\x00'
p5474
tp5475
Rp5476
sg11
(lp5477
g0
(g44
g2
Ntp5478
Rp5479
(dp5480
g48
g19
(g51
S'\x00\x00\x00\x00\x00x\x8d@'
p5481
tp5482
Rp5483
sbasg57
g58
sg59
g60
sbasg57
g58
sg59
g274
sbag0
(g13
g2
Ntp5484
Rp5485
(dp5486
g17
I2
sg18
g19
(g23
S'\x0e\x00\x00\x00\x00\x00\x00\x00'
p5487
tp5488
Rp5489
sg11
(lp5490
g0
(g44
g2
Ntp5491
Rp5492
(dp5493
g48
g19
(g51
S'\x00\x00\x00\x00\x00\x08\x86@'
p5494
tp5495
Rp5496
sbasg57
g58
sg59
g274
sbag0
(g13
g2
Ntp5497
Rp5498
(dp5499
g17
I2
sg18
g19
(g23
S'\x0c\x00\x00\x00\x00\x00\x00\x00'
p5500
tp5501
Rp5502
sg11
(lp5503
g0
(g44
g2
Ntp5504
Rp5505
(dp5506
g48
g19
(g51
S'\x00\x00\x00\x00\x00\xa0`@'
p5507
tp5508
Rp5509
sbasg57
g58
sg59
g274
sbag0
(g13
g2
Ntp5510
Rp5511
(dp5512
g17
I2
sg18
g19
(g23
S'\x08\x00\x00\x00\x00\x00\x00\x00'
p5513
tp5514
Rp5515
sg11
(lp5516
g0
(g13
g2
Ntp5517
Rp5518
(dp5519
g17
I3
sg18
g19
(g23
S'\x03\x00\x00\x00\x00\x00\x00\x00'
p5520
tp5521
Rp5522
sg11
(lp5523
g0
(g44
g2
Ntp5524
Rp5525
(dp5526
g48
g19
(g51
S'\x00\x00\x00\x00\x00\x00w@'
p5527
tp5528
Rp5529
sbasg57
g58
sg59
g87
sbag0
(g13
g2
Ntp5530
Rp5531
(dp5532
g17
I3
sg18
g19
(g23
S'\x02\x00\x00\x00\x00\x00\x00\x00'
p5533
tp5534
Rp5535
sg11
(lp5536
g0
(g44
g2
Ntp5537
Rp5538
(dp5539
g48
g19
(g51
S'\x00\x00\x00\x00\x00\xb0t@'
p5540
tp5541
Rp5542
sbasg57
g58
sg59
g87
sbasg57
g58
sg59
g274
sbasg57
g58
sg59
g253
sbag0
(g13
g2
Ntp5543
Rp5544
(dp5545
g17
I1
sg18
g19
(g23
S';\x00\x00\x00\x00\x00\x00\x00'
p5546
tp5547
Rp5548
sg11
(lp5549
g0
(g13
g2
Ntp5550
Rp5551
(dp5552
g17
I2
sg18
g19
(g23
S'\x05\x00\x00\x00\x00\x00\x00\x00'
p5553
tp5554
Rp5555
sg11
(lp5556
g0
(g44
g2
Ntp5557
Rp5558
(dp5559
g48
g19
(g51
S'\x00\x00\x00\x00\x00\xd0\x82@'
p5560
tp5561
Rp5562
sbasg57
g58
sg59
g87
sbag0
(g13
g2
Ntp5563
Rp5564
(dp5565
g17
I2
sg18
g19
(g23
S'\x03\x00\x00\x00\x00\x00\x00\x00'
p5566
tp5567
Rp5568
sg11
(lp5569
g0
(g13
g2
Ntp5570
Rp5571
(dp5572
g17
I3
sg18
g19
(g23
S'\x02\x00\x00\x00\x00\x00\x00\x00'
p5573
tp5574
Rp5575
sg11
(lp5576
g0
(g44
g2
Ntp5577
Rp5578
(dp5579
g48
g19
(g51
S'\x00\x00\x00\x00\x00\x08\x85@'
p5580
tp5581
Rp5582
sbasg57
g58
sg59
g60
sbag0
(g13
g2
Ntp5583
Rp5584
(dp5585
g17
I3
sg18
g19
(g23
S'\x04\x00\x00\x00\x00\x00\x00\x00'
p5586
tp5587
Rp5588
sg11
(lp5589
g0
(g44
g2
Ntp5590
Rp5591
(dp5592
g48
g19
(g51
S'\x00\x00\x00\x00\x00\x88\x8c@'
p5593
tp5594
Rp5595
sbasg57
g58
sg59
g60
sbag0
(g13
g2
Ntp5596
Rp5597
(dp5598
g17
I3
sg18
g19
(g23
S'\x01\x00\x00\x00\x00\x00\x00\x00'
p5599
tp5600
Rp5601
sg11
(lp5602
g0
(g44
g2
Ntp5603
Rp5604
(dp5605
g48
g19
(g51
S'\x00\x00\x00\x00\x00X\x82@'
p5606
tp5607
Rp5608
sbasg57
g58
sg59
g60
sbasg57
g58
sg59
g87
sbag0
(g13
g2
Ntp5609
Rp5610
(dp5611
g17
I2
sg18
g19
(g23
S'\t\x00\x00\x00\x00\x00\x00\x00'
p5612
tp5613
Rp5614
sg11
(lp5615
g0
(g13
g2
Ntp5616
Rp5617
(dp5618
g17
I3
sg18
g19
(g23
S'\x00\x00\x00\x00\x00\x00\x00\x00'
p5619
tp5620
Rp5621
sg11
(lp5622
g0
(g44
g2
Ntp5623
Rp5624
(dp5625
g48
g19
(g51
S'\x00\x00\x00\x00\x00Pv@'
p5626
tp5627
Rp5628
sbasg57
g58
sg59
g60
sbag0
(g13
g2
Ntp5629
Rp5630
(dp5631
g17
I3
sg18
g19
(g23
S'\x01\x00\x00\x00\x00\x00\x00\x00'
p5632
tp5633
Rp5634
sg11
(lp5635
g0
(g44
g2
Ntp5636
Rp5637
(dp5638
g48
g19
(g51
S'\x00\x00\x00\x00\x00h\x8c@'
p5639
tp5640
Rp5641
sbasg57
g58
sg59
g60
sbasg57
g58
sg59
g87
sbag0
(g13
g2
Ntp5642
Rp5643
(dp5644
g17
I2
sg18
g19
(g23
S'\x06\x00\x00\x00\x00\x00\x00\x00'
p5645
tp5646
Rp5647
sg11
(lp5648
g0
(g44
g2
Ntp5649
Rp5650
(dp5651
g48
g19
(g51
S'\x00\x00\x00\x00\x00@w@'
p5652
tp5653
Rp5654
sbasg57
g58
sg59
g87
sbag0
(g13
g2
Ntp5655
Rp5656
(dp5657
g17
I2
sg18
g19
(g23
S'\x07\x00\x00\x00\x00\x00\x00\x00'
p5658
tp5659
Rp5660
sg11
(lp5661
g0
(g13
g2
Ntp5662
Rp5663
(dp5664
g17
I3
sg18
g19
(g23
S'\x02\x00\x00\x00\x00\x00\x00\x00'
p5665
tp5666
Rp5667
sg11
(lp5668
g0
(g44
g2
Ntp5669
Rp5670
(dp5671
g48
g19
(g51
S'\x00\x00\x00\x00\x00 \x9d@'
p5672
tp5673
Rp5674
sbasg57
g58
sg59
g187
sbag0
(g13
g2
Ntp5675
Rp5676
(dp5677
g17
I3
sg18
g19
(g23
S'\x01\x00\x00\x00\x00\x00\x00\x00'
p5678
tp5679
Rp5680
sg11
(lp5681
g0
(g44
g2
Ntp5682
Rp5683
(dp5684
g48
g19
(g51
S'\x00\x00\x00\x00\x00`\x83@'
p5685
tp5686
Rp5687
sbasg57
g58
sg59
g187
sbasg57
g58
sg59
g87
sbag0
(g13
g2
Ntp5688
Rp5689
(dp5690
g17
I2
sg18
g19
(g23
S'\x08\x00\x00\x00\x00\x00\x00\x00'
p5691
tp5692
Rp5693
sg11
(lp5694
g0
(g44
g2
Ntp5695
Rp5696
(dp5697
g48
g19
(g51
S'\x00\x00\x00\x00\x00@\x81@'
p5698
tp5699
Rp5700
sbasg57
g58
sg59
g87
sbasg57
g58
sg59
g253
sbag0
(g13
g2
Ntp5701
Rp5702
(dp5703
g17
I1
sg18
g19
(g23
S'6\x00\x00\x00\x00\x00\x00\x00'
p5704
tp5705
Rp5706
sg11
(lp5707
g0
(g13
g2
Ntp5708
Rp5709
(dp5710
g17
I2
sg18
g19
(g23
S'\x0c\x00\x00\x00\x00\x00\x00\x00'
p5711
tp5712
Rp5713
sg11
(lp5714
g0
(g13
g2
Ntp5715
Rp5716
(dp5717
g17
I3
sg18
g19
(g23
S'6\x00\x00\x00\x00\x00\x00\x00'
p5718
tp5719
Rp5720
sg11
(lp5721
g0
(g13
g2
Ntp5722
Rp5723
(dp5724
g17
I4
sg18
g19
(g23
S'\x03\x00\x00\x00\x00\x00\x00\x00'
p5725
tp5726
Rp5727
sg11
(lp5728
g0
(g44
g2
Ntp5729
Rp5730
(dp5731
g48
g19
(g51
S'\x00\x00\x00\x00\x00\xc0s@'
p5732
tp5733
Rp5734
sbasg57
g58
sg59
g60
sbag0
(g13
g2
Ntp5735
Rp5736
(dp5737
g17
I4
sg18
g19
(g23
S'\x00\x00\x00\x00\x00\x00\x00\x00'
p5738
tp5739
Rp5740
sg11
(lp5741
g0
(g44
g2
Ntp5742
Rp5743
(dp5744
g48
g19
(g51
S'\x00\x00\x00\x00\x00 }@'
p5745
tp5746
Rp5747
sbasg57
g58
sg59
g60
sbasg57
g58
sg59
g253
sbasg57
g58
sg59
g87
sbag0
(g13
g2
Ntp5748
Rp5749
(dp5750
g17
I2
sg18
g19
(g23
S'\x04\x00\x00\x00\x00\x00\x00\x00'
p5751
tp5752
Rp5753
sg11
(lp5754
g0
(g44
g2
Ntp5755
Rp5756
(dp5757
g48
g19
(g51
S'\x00\x00\x00\x00\x00\x90z@'
p5758
tp5759
Rp5760
sbasg57
g58
sg59
g87
sbag0
(g13
g2
Ntp5761
Rp5762
(dp5763
g17
I2
sg18
g19
(g23
S'\n\x00\x00\x00\x00\x00\x00\x00'
p5764
tp5765
Rp5766
sg11
(lp5767
g0
(g13
g2
Ntp5768
Rp5769
(dp5770
g17
I3
sg18
g19
(g23
S'\x00\x00\x00\x00\x00\x00\x00\x00'
p5771
tp5772
Rp5773
sg11
(lp5774
g0
(g44
g2
Ntp5775
Rp5776
(dp5777
g48
g19
(g51
S'\x00\x00\x00\x00\x00\x18\x86@'
p5778
tp5779
Rp5780
sbasg57
g58
sg59
g60
sbag0
(g13
g2
Ntp5781
Rp5782
(dp5783
g17
I3
sg18
g19
(g23
S'\x03\x00\x00\x00\x00\x00\x00\x00'
p5784
tp5785
Rp5786
sg11
(lp5787
g0
(g44
g2
Ntp5788
Rp5789
(dp5790
g48
g19
(g51
S'\x00\x00\x00\x00\x00\x18\x82@'
p5791
tp5792
Rp5793
sbasg57
g58
sg59
g60
sbasg57
g58
sg59
g87
sbag0
(g13
g2
Ntp5794
Rp5795
(dp5796
g17
I2
sg18
g19
(g23
S'\x02\x00\x00\x00\x00\x00\x00\x00'
p5797
tp5798
Rp5799
sg11
(lp5800
g0
(g13
g2
Ntp5801
Rp5802
(dp5803
g17
I3
sg18
g19
(g23
S'\x01\x00\x00\x00\x00\x00\x00\x00'
p5804
tp5805
Rp5806
sg11
(lp5807
g0
(g44
g2
Ntp5808
Rp5809
(dp5810
g48
g19
(g51
S'\x00\x00\x00\x00\x000x@'
p5811
tp5812
Rp5813
sbasg57
g58
sg59
g187
sbag0
(g13
g2
Ntp5814
Rp5815
(dp5816
g17
I3
sg18
g19
(g23
S'\x02\x00\x00\x00\x00\x00\x00\x00'
p5817
tp5818
Rp5819
sg11
(lp5820
g0
(g44
g2
Ntp5821
Rp5822
(dp5823
g48
g19
(g51
S'\x00\x00\x00\x00\x00\xe0w@'
p5824
tp5825
Rp5826
sbasg57
g58
sg59
g187
sbasg57
g58
sg59
g87
sbag0
(g13
g2
Ntp5827
Rp5828
(dp5829
g17
I2
sg18
g19
(g23
S'\t\x00\x00\x00\x00\x00\x00\x00'
p5830
tp5831
Rp5832
sg11
(lp5833
g0
(g13
g2
Ntp5834
Rp5835
(dp5836
g17
I3
sg18
g19
(g23
S'6\x00\x00\x00\x00\x00\x00\x00'
p5837
tp5838
Rp5839
sg11
(lp5840
g0
(g13
g2
Ntp5841
Rp5842
(dp5843
g17
I4
sg18
g19
(g23
S'\x0f\x00\x00\x00\x00\x00\x00\x00'
p5844
tp5845
Rp5846
sg11
(lp5847
g0
(g44
g2
Ntp5848
Rp5849
(dp5850
g48
g19
(g51
S'\x00\x00\x00\x00\x00\x9c\x97@'
p5851
tp5852
Rp5853
sbasg57
g58
sg59
g274
sbag0
(g13
g2
Ntp5854
Rp5855
(dp5856
g17
I4
sg18
g19
(g23
S'\x0e\x00\x00\x00\x00\x00\x00\x00'
p5857
tp5858
Rp5859
sg11
(lp5860
g0
(g44
g2
Ntp5861
Rp5862
(dp5863
g48
g19
(g51
S'\x00\x00\x00\x00\x00\x00\x8a@'
p5864
tp5865
Rp5866
sbasg57
g58
sg59
g274
sbasg57
g58
sg59
g253
sbasg57
g58
sg59
g87
sbag0
(g13
g2
Ntp5867
Rp5868
(dp5869
g17
I2
sg18
g19
(g23
S'\x03\x00\x00\x00\x00\x00\x00\x00'
p5870
tp5871
Rp5872
sg11
(lp5873
g0
(g44
g2
Ntp5874
Rp5875
(dp5876
g48
g19
(g51
S'\x00\x00\x00\x00\x00\xe0d@'
p5877
tp5878
Rp5879
sbasg57
g58
sg59
g87
sbag0
(g13
g2
Ntp5880
Rp5881
(dp5882
g17
I2
sg18
g19
(g23
S'\x01\x00\x00\x00\x00\x00\x00\x00'
p5883
tp5884
Rp5885
sg11
(lp5886
g0
(g44
g2
Ntp5887
Rp5888
(dp5889
g48
g19
(g51
S'\x00\x00\x00\x00\x00`}@'
p5890
tp5891
Rp5892
sbasg57
g58
sg59
g87
sbasg57
g58
sg59
g253
sbag0
(g13
g2
Ntp5893
Rp5894
(dp5895
g17
I1
sg18
g19
(g23
S'C\x00\x00\x00\x00\x00\x00\x00'
p5896
tp5897
Rp5898
sg11
(lp5899
g0
(g13
g2
Ntp5900
Rp5901
(dp5902
g17
I2
sg18
g19
(g23
S'\x06\x00\x00\x00\x00\x00\x00\x00'
p5903
tp5904
Rp5905
sg11
(lp5906
g0
(g44
g2
Ntp5907
Rp5908
(dp5909
g48
g19
(g51
S'\x00\x00\x00\x00\x00\x80p@'
p5910
tp5911
Rp5912
sbasg57
g58
sg59
g87
sbag0
(g13
g2
Ntp5913
Rp5914
(dp5915
g17
I2
sg18
g19
(g23
S'\x04\x00\x00\x00\x00\x00\x00\x00'
p5916
tp5917
Rp5918
sg11
(lp5919
g0
(g13
g2
Ntp5920
Rp5921
(dp5922
g17
I3
sg18
g19
(g23
S'\x03\x00\x00\x00\x00\x00\x00\x00'
p5923
tp5924
Rp5925
sg11
(lp5926
g0
(g44
g2
Ntp5927
Rp5928
(dp5929
g48
g19
(g51
S'\x00\x00\x00\x00\x00\xe8\x84@'
p5930
tp5931
Rp5932
sbasg57
g58
sg59
g60
sbag0
(g13
g2
Ntp5933
Rp5934
(dp5935
g17
I3
sg18
g19
(g23
S'\x01\x00\x00\x00\x00\x00\x00\x00'
p5936
tp5937
Rp5938
sg11
(lp5939
g0
(g44
g2
Ntp5940
Rp5941
(dp5942
g48
g19
(g51
S'\x00\x00\x00\x00\x00(\x89@'
p5943
tp5944
Rp5945
sbasg57
g58
sg59
g60
sbag0
(g13
g2
Ntp5946
Rp5947
(dp5948
g17
I3
sg18
g19
(g23
S'\x06\x00\x00\x00\x00\x00\x00\x00'
p5949
tp5950
Rp5951
sg11
(lp5952
g0
(g44
g2
Ntp5953
Rp5954
(dp5955
g48
g19
(g51
S'\x00\x00\x00\x00\x00\x00\x8f@'
p5956
tp5957
Rp5958
sbasg57
g58
sg59
g60
sbasg57
g58
sg59
g87
sbag0
(g13
g2
Ntp5959
Rp5960
(dp5961
g17
I2
sg18
g19
(g23
S'\n\x00\x00\x00\x00\x00\x00\x00'
p5962
tp5963
Rp5964
sg11
(lp5965
g0
(g44
g2
Ntp5966
Rp5967
(dp5968
g48
g19
(g51
S'\x00\x00\x00\x00\x00`x@'
p5969
tp5970
Rp5971
sbasg57
g58
sg59
g87
sbag0
(g13
g2
Ntp5972
Rp5973
(dp5974
g17
I2
sg18
g19
(g23
S'\x08\x00\x00\x00\x00\x00\x00\x00'
p5975
tp5976
Rp5977
sg11
(lp5978
g0
(g13
g2
Ntp5979
Rp5980
(dp5981
g17
I3
sg18
g19
(g23
S'\x11\x00\x00\x00\x00\x00\x00\x00'
p5982
tp5983
Rp5984
sg11
(lp5985
g0
(g44
g2
Ntp5986
Rp5987
(dp5988
g48
g19
(g51
S'\x00\x00\x00\x00\x00\xcc\x90@'
p5989
tp5990
Rp5991
sbasg57
g58
sg59
g274
sbag0
(g13
g2
Ntp5992
Rp5993
(dp5994
g17
I3
sg18
g19
(g23
S'\x0f\x00\x00\x00\x00\x00\x00\x00'
p5995
tp5996
Rp5997
sg11
(lp5998
g0
(g44
g2
Ntp5999
Rp6000
(dp6001
g48
g19
(g51
S'\x00\x00\x00\x00\x00\xe0|@'
p6002
tp6003
Rp6004
sbasg57
g58
sg59
g274
sbasg57
g58
sg59
g87
sbag0
(g13
g2
Ntp6005
Rp6006
(dp6007
g17
I2
sg18
g19
(g23
S'\x07\x00\x00\x00\x00\x00\x00\x00'
p6008
tp6009
Rp6010
sg11
(lp6011
g0
(g44
g2
Ntp6012
Rp6013
(dp6014
g48
g19
(g51
S'\x00\x00\x00\x00\x00\xa0j@'
p6015
tp6016
Rp6017
sbasg57
g58
sg59
g87
sbag0
(g13
g2
Ntp6018
Rp6019
(dp6020
g17
I2
sg18
g19
(g23
S'\x0b\x00\x00\x00\x00\x00\x00\x00'
p6021
tp6022
Rp6023
sg11
(lp6024
g0
(g44
g2
Ntp6025
Rp6026
(dp6027
g48
g19
(g51
S'\x00\x00\x00\x00\x00py@'
p6028
tp6029
Rp6030
sbasg57
g58
sg59
g87
sbag0
(g13
g2
Ntp6031
Rp6032
(dp6033
g17
I2
sg18
g19
(g23
S'\x02\x00\x00\x00\x00\x00\x00\x00'
p6034
tp6035
Rp6036
sg11
(lp6037
g0
(g13
g2
Ntp6038
Rp6039
(dp6040
g17
I3
sg18
g19
(g23
S'\x05\x00\x00\x00\x00\x00\x00\x00'
p6041
tp6042
Rp6043
sg11
(lp6044
g0
(g44
g2
Ntp6045
Rp6046
(dp6047
g48
g19
(g51
S'\x00\x00\x00\x00\x00\xc0v@'
p6048
tp6049
Rp6050
sbasg57
g58
sg59
g60
sbag0
(g13
g2
Ntp6051
Rp6052
(dp6053
g17
I3
sg18
g19
(g23
S'\x02\x00\x00\x00\x00\x00\x00\x00'
p6054
tp6055
Rp6056
sg11
(lp6057
g0
(g44
g2
Ntp6058
Rp6059
(dp6060
g48
g19
(g51
S'\x00\x00\x00\x00\x00\xa0x@'
p6061
tp6062
Rp6063
sbasg57
g58
sg59
g60
sbasg57
g58
sg59
g87
sbag0
(g13
g2
Ntp6064
Rp6065
(dp6066
g17
I2
sg18
g19
(g23
S'\x0c\x00\x00\x00\x00\x00\x00\x00'
p6067
tp6068
Rp6069
sg11
(lp6070
g0
(g44
g2
Ntp6071
Rp6072
(dp6073
g48
g19
(g51
S'\x00\x00\x00\x00\x00\xb0p@'
p6074
tp6075
Rp6076
sbasg57
g58
sg59
g87
sbag0
(g13
g2
Ntp6077
Rp6078
(dp6079
g17
I2
sg18
g19
(g23
S'\x05\x00\x00\x00\x00\x00\x00\x00'
p6080
tp6081
Rp6082
sg11
(lp6083
g0
(g13
g2
Ntp6084
Rp6085
(dp6086
g17
I3
sg18
g19
(g23
S'\x03\x00\x00\x00\x00\x00\x00\x00'
p6087
tp6088
Rp6089
sg11
(lp6090
g0
(g44
g2
Ntp6091
Rp6092
(dp6093
g48
g19
(g51
S'\x00\x00\x00\x00\x00pz@'
p6094
tp6095
Rp6096
sbasg57
g58
sg59
g60
sbag0
(g13
g2
Ntp6097
Rp6098
(dp6099
g17
I3
sg18
g19
(g23
S'\x01\x00\x00\x00\x00\x00\x00\x00'
p6100
tp6101
Rp6102
sg11
(lp6103
g0
(g44
g2
Ntp6104
Rp6105
(dp6106
g48
g19
(g51
S'\x00\x00\x00\x00\x00\x10\x86@'
p6107
tp6108
Rp6109
sbasg57
g58
sg59
g60
sbag0
(g13
g2
Ntp6110
Rp6111
(dp6112
g17
I3
sg18
g19
(g23
S'\x00\x00\x00\x00\x00\x00\x00\x00'
p6113
tp6114
Rp6115
sg11
(lp6116
g0
(g44
g2
Ntp6117
Rp6118
(dp6119
g48
g19
(g51
S'\x00\x00\x00\x00\x00\x80\x8a@'
p6120
tp6121
Rp6122
sbasg57
g58
sg59
g60
sbasg57
g58
sg59
g87
sbag0
(g13
g2
Ntp6123
Rp6124
(dp6125
g17
I2
sg18
g19
(g23
S'\x01\x00\x00\x00\x00\x00\x00\x00'
p6126
tp6127
Rp6128
sg11
(lp6129
g0
(g13
g2
Ntp6130
Rp6131
(dp6132
g17
I3
sg18
g19
(g23
S'\x11\x00\x00\x00\x00\x00\x00\x00'
p6133
tp6134
Rp6135
sg11
(lp6136
g0
(g44
g2
Ntp6137
Rp6138
(dp6139
g48
g19
(g51
S'\x00\x00\x00\x00\x00\xf8\x8a@'
p6140
tp6141
Rp6142
sbasg57
g58
sg59
g274
sbag0
(g13
g2
Ntp6143
Rp6144
(dp6145
g17
I3
sg18
g19
(g23
S'\x12\x00\x00\x00\x00\x00\x00\x00'
p6146
tp6147
Rp6148
sg11
(lp6149
g0
(g44
g2
Ntp6150
Rp6151
(dp6152
g48
g19
(g51
S'\x00\x00\x00\x00\x00@\x88@'
p6153
tp6154
Rp6155
sbasg57
g58
sg59
g274
sbasg57
g58
sg59
g87
sbasg57
g58
sg59
g253
sbag0
(g13
g2
Ntp6156
Rp6157
(dp6158
g17
I1
sg18
g19
(g23
S'A\x00\x00\x00\x00\x00\x00\x00'
p6159
tp6160
Rp6161
sg11
(lp6162
g0
(g13
g2
Ntp6163
Rp6164
(dp6165
g17
I2
sg18
g19
(g23
S'\x01\x00\x00\x00\x00\x00\x00\x00'
p6166
tp6167
Rp6168
sg11
(lp6169
g0
(g13
g2
Ntp6170
Rp6171
(dp6172
g17
I3
sg18
g19
(g23
S'\x01\x00\x00\x00\x00\x00\x00\x00'
p6173
tp6174
Rp6175
sg11
(lp6176
g0
(g13
g2
Ntp6177
Rp6178
(dp6179
g17
I4
sg18
g19
(g23
S'\x11\x00\x00\x00\x00\x00\x00\x00'
p6180
tp6181
Rp6182
sg11
(lp6183
g0
(g44
g2
Ntp6184
Rp6185
(dp6186
g48
g19
(g51
S'\x00\x00\x00\x00\x00\x80h@'
p6187
tp6188
Rp6189
sbasg57
g58
sg59
g274
sbag0
(g13
g2
Ntp6190
Rp6191
(dp6192
g17
I4
sg18
g19
(g23
S'\x07\x00\x00\x00\x00\x00\x00\x00'
p6193
tp6194
Rp6195
sg11
(lp6196
g0
(g44
g2
Ntp6197
Rp6198
(dp6199
g48
g19
(g51
S'\x00\x00\x00\x00\x00`k@'
p6200
tp6201
Rp6202
sbasg57
g58
sg59
g274
sbasg57
g58
sg59
g60
sbag0
(g13
g2
Ntp6203
Rp6204
(dp6205
g17
I3
sg18
g19
(g23
S'\x02\x00\x00\x00\x00\x00\x00\x00'
p6206
tp6207
Rp6208
sg11
(lp6209
g0
(g44
g2
Ntp6210
Rp6211
(dp6212
g48
g19
(g51
S'\x00\x00\x00\x00\x00\xa0e@'
p6213
tp6214
Rp6215
sbasg57
g58
sg59
g60
sbasg57
g58
sg59
g87
sbag0
(g13
g2
Ntp6216
Rp6217
(dp6218
g17
I2
sg18
g19
(g23
S'\x05\x00\x00\x00\x00\x00\x00\x00'
p6219
tp6220
Rp6221
sg11
(lp6222
g0
(g13
g2
Ntp6223
Rp6224
(dp6225
g17
I3
sg18
g19
(g23
S'\x01\x00\x00\x00\x00\x00\x00\x00'
p6226
tp6227
Rp6228
sg11
(lp6229
g0
(g44
g2
Ntp6230
Rp6231
(dp6232
g48
g19
(g51
S'\x00\x00\x00\x00\x00\xf0\x8f@'
p6233
tp6234
Rp6235
sbasg57
g58
sg59
g60
sbag0
(g13
g2
Ntp6236
Rp6237
(dp6238
g17
I3
sg18
g19
(g23
S'\x00\x00\x00\x00\x00\x00\x00\x00'
p6239
tp6240
Rp6241
sg11
(lp6242
g0
(g44
g2
Ntp6243
Rp6244
(dp6245
g48
g19
(g51
S'\x00\x00\x00\x00\x008\x8d@'
p6246
tp6247
Rp6248
sbasg57
g58
sg59
g60
sbag0
(g13
g2
Ntp6249
Rp6250
(dp6251
g17
I3
sg18
g19
(g23
S'\x02\x00\x00\x00\x00\x00\x00\x00'
p6252
tp6253
Rp6254
sg11
(lp6255
g0
(g44
g2
Ntp6256
Rp6257
(dp6258
g48
g19
(g51
S'\x00\x00\x00\x00\x00\xa8\x84@'
p6259
tp6260
Rp6261
sbasg57
g58
sg59
g60
sbag0
(g13
g2
Ntp6262
Rp6263
(dp6264
g17
I3
sg18
g19
(g23
S'\x04\x00\x00\x00\x00\x00\x00\x00'
p6265
tp6266
Rp6267
sg11
(lp6268
g0
(g44
g2
Ntp6269
Rp6270
(dp6271
g48
g19
(g51
S'\x00\x00\x00\x00\x00\x10p@'
p6272
tp6273
Rp6274
sbasg57
g58
sg59
g60
sbag0
(g13
g2
Ntp6275
Rp6276
(dp6277
g17
I3
sg18
g19
(g23
S'\x06\x00\x00\x00\x00\x00\x00\x00'
p6278
tp6279
Rp6280
sg11
(lp6281
g0
(g44
g2
Ntp6282
Rp6283
(dp6284
g48
g19
(g51
S'\x00\x00\x00\x00\x00\xc0\x8d@'
p6285
tp6286
Rp6287
sbasg57
g58
sg59
g60
sbasg57
g58
sg59
g87
sbag0
(g13
g2
Ntp6288
Rp6289
(dp6290
g17
I2
sg18
g19
(g23
S'\x0c\x00\x00\x00\x00\x00\x00\x00'
p6291
tp6292
Rp6293
sg11
(lp6294
g0
(g13
g2
Ntp6295
Rp6296
(dp6297
g17
I3
sg18
g19
(g23
S'\x06\x00\x00\x00\x00\x00\x00\x00'
p6298
tp6299
Rp6300
sg11
(lp6301
g0
(g13
g2
Ntp6302
Rp6303
(dp6304
g17
I4
sg18
g19
(g23
S'\x01\x00\x00\x00\x00\x00\x00\x00'
p6305
tp6306
Rp6307
sg11
(lp6308
g0
(g13
g2
Ntp6309
Rp6310
(dp6311
g17
I5
sg18
g19
(g23
S'A\x00\x00\x00\x00\x00\x00\x00'
p6312
tp6313
Rp6314
sg11
(lp6315
g0
(g13
g2
Ntp6316
Rp6317
(dp6318
g17
I6
sg18
g19
(g23
S'A\x00\x00\x00\x00\x00\x00\x00'
p6319
tp6320
Rp6321
sg11
(lp6322
g0
(g13
g2
Ntp6323
Rp6324
(dp6325
g17
I7
sg18
g19
(g23
S'A\x00\x00\x00\x00\x00\x00\x00'
p6326
tp6327
Rp6328
sg11
(lp6329
g0
(g13
g2
Ntp6330
Rp6331
(dp6332
g17
I8
sg18
g19
(g23
S'A\x00\x00\x00\x00\x00\x00\x00'
p6333
tp6334
Rp6335
sg11
(lp6336
g0
(g13
g2
Ntp6337
Rp6338
(dp6339
g17
I9
sg18
g19
(g23
S'A\x00\x00\x00\x00\x00\x00\x00'
p6340
tp6341
Rp6342
sg11
(lp6343
g0
(g13
g2
Ntp6344
Rp6345
(dp6346
g17
I10
sg18
g19
(g23
S'\x01\x00\x00\x00\x00\x00\x00\x00'
p6347
tp6348
Rp6349
sg11
(lp6350
g0
(g13
g2
Ntp6351
Rp6352
(dp6353
g17
I11
sg18
g19
(g23
S'A\x00\x00\x00\x00\x00\x00\x00'
p6354
tp6355
Rp6356
sg11
(lp6357
g0
(g13
g2
Ntp6358
Rp6359
(dp6360
g17
I12
sg18
g19
(g23
S'\x01\x00\x00\x00\x00\x00\x00\x00'
p6361
tp6362
Rp6363
sg11
(lp6364
g0
(g13
g2
Ntp6365
Rp6366
(dp6367
g17
I13
sg18
g19
(g23
S'A\x00\x00\x00\x00\x00\x00\x00'
p6368
tp6369
Rp6370
sg11
(lp6371
g0
(g13
g2
Ntp6372
Rp6373
(dp6374
g17
I14
sg18
g19
(g23
S'A\x00\x00\x00\x00\x00\x00\x00'
p6375
tp6376
Rp6377
sg11
(lp6378
g0
(g13
g2
Ntp6379
Rp6380
(dp6381
g17
I15
sg18
g19
(g23
S'A\x00\x00\x00\x00\x00\x00\x00'
p6382
tp6383
Rp6384
sg11
(lp6385
g0
(g13
g2
Ntp6386
Rp6387
(dp6388
g17
I16
sg18
g19
(g23
S'A\x00\x00\x00\x00\x00\x00\x00'
p6389
tp6390
Rp6391
sg11
(lp6392
g0
(g13
g2
Ntp6393
Rp6394
(dp6395
g17
I17
sg18
g19
(g23
S'A\x00\x00\x00\x00\x00\x00\x00'
p6396
tp6397
Rp6398
sg11
(lp6399
g0
(g13
g2
Ntp6400
Rp6401
(dp6402
g17
I18
sg18
g19
(g23
S'A\x00\x00\x00\x00\x00\x00\x00'
p6403
tp6404
Rp6405
sg11
(lp6406
g0
(g13
g2
Ntp6407
Rp6408
(dp6409
g17
I19
sg18
g19
(g23
S'A\x00\x00\x00\x00\x00\x00\x00'
p6410
tp6411
Rp6412
sg11
(lp6413
g0
(g13
g2
Ntp6414
Rp6415
(dp6416
g17
I20
sg18
g19
(g23
S'\x01\x00\x00\x00\x00\x00\x00\x00'
p6417
tp6418
Rp6419
sg11
(lp6420
g0
(g13
g2
Ntp6421
Rp6422
(dp6423
g17
I21
sg18
g19
(g23
S'\x06\x00\x00\x00\x00\x00\x00\x00'
p6424
tp6425
Rp6426
sg11
(lp6427
g0
(g13
g2
Ntp6428
Rp6429
(dp6430
g17
I22
sg18
g19
(g23
S'\x01\x00\x00\x00\x00\x00\x00\x00'
p6431
tp6432
Rp6433
sg11
(lp6434
g0
(g13
g2
Ntp6435
Rp6436
(dp6437
g17
I23
sg18
g19
(g23
S'A\x00\x00\x00\x00\x00\x00\x00'
p6438
tp6439
Rp6440
sg11
(lp6441
g0
(g13
g2
Ntp6442
Rp6443
(dp6444
g17
I24
sg18
g19
(g23
S'A\x00\x00\x00\x00\x00\x00\x00'
p6445
tp6446
Rp6447
sg11
(lp6448
g0
(g13
g2
Ntp6449
Rp6450
(dp6451
g17
I25
sg18
g19
(g23
S'A\x00\x00\x00\x00\x00\x00\x00'
p6452
tp6453
Rp6454
sg11
(lp6455
g0
(g44
g2
Ntp6456
Rp6457
(dp6458
g48
g19
(g51
S'\x00\x00\x00\x00\x00D\x85@'
p6459
tp6460
Rp6461
sbasg57
g58
sg59
g253
sbasg57
g58
sg59
g253
sbasg57
g58
sg59
g253
sbasg57
g58
sg59
g187
sbasg57
g58
sg59
g60
sbasg57
g58
sg59
g187
sbasg57
g58
sg59
g253
sbasg57
g58
sg59
g253
sbasg57
g58
sg59
g253
sbasg57
g58
sg59
g253
sbasg57
g58
sg59
g253
sbasg57
g58
sg59
g253
sbasg57
g58
sg59
g253
sbasg57
g58
sg59
g187
sbasg57
g58
sg59
g253
sbasg57
g58
sg59
g187
sbasg57
g58
sg59
g253
sbasg57
g58
sg59
g253
sbasg57
g58
sg59
g253
sbasg57
g58
sg59
g253
sbasg57
g58
sg59
g253
sbasg57
g58
sg59
g187
sbasg57
g58
sg59
g60
sbag0
(g13
g2
Ntp6462
Rp6463
(dp6464
g17
I3
sg18
g19
(g23
S'\x01\x00\x00\x00\x00\x00\x00\x00'
p6465
tp6466
Rp6467
sg11
(lp6468
g0
(g44
g2
Ntp6469
Rp6470
(dp6471
g48
g19
(g51
S'\x00\x00\x00\x00\x00x\x86@'
p6472
tp6473
Rp6474
sbasg57
g58
sg59
g60
sbasg57
g58
sg59
g87
sbag0
(g13
g2
Ntp6475
Rp6476
(dp6477
g17
I2
sg18
g19
(g23
S'\x06\x00\x00\x00\x00\x00\x00\x00'
p6478
tp6479
Rp6480
sg11
(lp6481
g0
(g44
g2
Ntp6482
Rp6483
(dp6484
g48
g19
(g51
S'\x00\x00\x00\x00\x00\xe8\x87@'
p6485
tp6486
Rp6487
sbasg57
g58
sg59
g87
sbag0
(g13
g2
Ntp6488
Rp6489
(dp6490
g17
I2
sg18
g19
(g23
S'\x04\x00\x00\x00\x00\x00\x00\x00'
p6491
tp6492
Rp6493
sg11
(lp6494
g0
(g13
g2
Ntp6495
Rp6496
(dp6497
g17
I3
sg18
g19
(g23
S'\x06\x00\x00\x00\x00\x00\x00\x00'
p6498
tp6499
Rp6500
sg11
(lp6501
g0
(g44
g2
Ntp6502
Rp6503
(dp6504
g48
g19
(g51
S'\x00\x00\x00\x00\x00 q@'
p6505
tp6506
Rp6507
sbasg57
g58
sg59
g60
sbag0
(g13
g2
Ntp6508
Rp6509
(dp6510
g17
I3
sg18
g19
(g23
S'\x03\x00\x00\x00\x00\x00\x00\x00'
p6511
tp6512
Rp6513
sg11
(lp6514
g0
(g44
g2
Ntp6515
Rp6516
(dp6517
g48
g19
(g51
S'\x00\x00\x00\x00\x00\x90\x8a@'
p6518
tp6519
Rp6520
sbasg57
g58
sg59
g60
sbasg57
g58
sg59
g87
sbag0
(g13
g2
Ntp6521
Rp6522
(dp6523
g17
I2
sg18
g19
(g23
S'\x08\x00\x00\x00\x00\x00\x00\x00'
p6524
tp6525
Rp6526
sg11
(lp6527
g0
(g13
g2
Ntp6528
Rp6529
(dp6530
g17
I3
sg18
g19
(g23
S'\x0f\x00\x00\x00\x00\x00\x00\x00'
p6531
tp6532
Rp6533
sg11
(lp6534
g0
(g44
g2
Ntp6535
Rp6536
(dp6537
g48
g19
(g51
S'\x00\x00\x00\x00\x00\x00m@'
p6538
tp6539
Rp6540
sbasg57
g58
sg59
g274
sbag0
(g13
g2
Ntp6541
Rp6542
(dp6543
g17
I3
sg18
g19
(g23
S'\x10\x00\x00\x00\x00\x00\x00\x00'
p6544
tp6545
Rp6546
sg11
(lp6547
g0
(g44
g2
Ntp6548
Rp6549
(dp6550
g48
g19
(g51
S'\x00\x00\x00\x00\x00\x10v@'
p6551
tp6552
Rp6553
sbasg57
g58
sg59
g274
sbag0
(g13
g2
Ntp6554
Rp6555
(dp6556
g17
I3
sg18
g19
(g23
S'\x08\x00\x00\x00\x00\x00\x00\x00'
p6557
tp6558
Rp6559
sg11
(lp6560
g0
(g44
g2
Ntp6561
Rp6562
(dp6563
g48
g19
(g51
S'\x00\x00\x00\x00\x00@k@'
p6564
tp6565
Rp6566
sbasg57
g58
sg59
g274
sbasg57
g58
sg59
g87
sbag0
(g13
g2
Ntp6567
Rp6568
(dp6569
g17
I2
sg18
g19
(g23
S'\t\x00\x00\x00\x00\x00\x00\x00'
p6570
tp6571
Rp6572
sg11
(lp6573
g0
(g44
g2
Ntp6574
Rp6575
(dp6576
g48
g19
(g51
S'\x00\x00\x00\x00\x00\xc4\x90@'
p6577
tp6578
Rp6579
sbasg57
g58
sg59
g87
sbag0
(g13
g2
Ntp6580
Rp6581
(dp6582
g17
I2
sg18
g19
(g23
S'\x03\x00\x00\x00\x00\x00\x00\x00'
p6583
tp6584
Rp6585
sg11
(lp6586
g0
(g13
g2
Ntp6587
Rp6588
(dp6589
g17
I3
sg18
g19
(g23
S'A\x00\x00\x00\x00\x00\x00\x00'
p6590
tp6591
Rp6592
sg11
(lp6593
g0
(g13
g2
Ntp6594
Rp6595
(dp6596
g17
I4
sg18
g19
(g23
S'\x11\x00\x00\x00\x00\x00\x00\x00'
p6597
tp6598
Rp6599
sg11
(lp6600
g0
(g44
g2
Ntp6601
Rp6602
(dp6603
g48
g19
(g51
S'\x00\x00\x00\x00\x00 \x86@'
p6604
tp6605
Rp6606
sbasg57
g58
sg59
g274
sbag0
(g13
g2
Ntp6607
Rp6608
(dp6609
g17
I4
sg18
g19
(g23
S'\x12\x00\x00\x00\x00\x00\x00\x00'
p6610
tp6611
Rp6612
sg11
(lp6613
g0
(g44
g2
Ntp6614
Rp6615
(dp6616
g48
g19
(g51
S'\x00\x00\x00\x00\x00\x84\x93@'
p6617
tp6618
Rp6619
sbasg57
g58
sg59
g274
sbasg57
g58
sg59
g253
sbasg57
g58
sg59
g87
sbag0
(g13
g2
Ntp6620
Rp6621
(dp6622
g17
I2
sg18
g19
(g23
S'\x0b\x00\x00\x00\x00\x00\x00\x00'
p6623
tp6624
Rp6625
sg11
(lp6626
g0
(g44
g2
Ntp6627
Rp6628
(dp6629
g48
g19
(g51
S'\x00\x00\x00\x00\x00\xe0\x87@'
p6630
tp6631
Rp6632
sbasg57
g58
sg59
g87
sbag0
(g13
g2
Ntp6633
Rp6634
(dp6635
g17
I2
sg18
g19
(g23
S'\x02\x00\x00\x00\x00\x00\x00\x00'
p6636
tp6637
Rp6638
sg11
(lp6639
g0
(g13
g2
Ntp6640
Rp6641
(dp6642
g17
I3
sg18
g19
(g23
S'A\x00\x00\x00\x00\x00\x00\x00'
p6643
tp6644
Rp6645
sg11
(lp6646
g0
(g13
g2
Ntp6647
Rp6648
(dp6649
g17
I4
sg18
g19
(g23
S'A\x00\x00\x00\x00\x00\x00\x00'
p6650
tp6651
Rp6652
sg11
(lp6653
g0
(g13
g2
Ntp6654
Rp6655
(dp6656
g17
I5
sg18
g19
(g23
S'\x01\x00\x00\x00\x00\x00\x00\x00'
p6657
tp6658
Rp6659
sg11
(lp6660
g0
(g13
g2
Ntp6661
Rp6662
(dp6663
g17
I6
sg18
g19
(g23
S'A\x00\x00\x00\x00\x00\x00\x00'
p6664
tp6665
Rp6666
sg11
(lp6667
g0
(g13
g2
Ntp6668
Rp6669
(dp6670
g17
I7
sg18
g19
(g23
S'A\x00\x00\x00\x00\x00\x00\x00'
p6671
tp6672
Rp6673
sg11
(lp6674
g0
(g13
g2
Ntp6675
Rp6676
(dp6677
g17
I8
sg18
g19
(g23
S'A\x00\x00\x00\x00\x00\x00\x00'
p6678
tp6679
Rp6680
sg11
(lp6681
g0
(g13
g2
Ntp6682
Rp6683
(dp6684
g17
I9
sg18
g19
(g23
S'\x10\x00\x00\x00\x00\x00\x00\x00'
p6685
tp6686
Rp6687
sg11
(lp6688
g0
(g44
g2
Ntp6689
Rp6690
(dp6691
g48
g19
(g51
S'\x00\x00\x00\x00\x00\x90~@'
p6692
tp6693
Rp6694
sbasg57
g58
sg59
g274
sbag0
(g13
g2
Ntp6695
Rp6696
(dp6697
g17
I9
sg18
g19
(g23
S'\t\x00\x00\x00\x00\x00\x00\x00'
p6698
tp6699
Rp6700
sg11
(lp6701
g0
(g44
g2
Ntp6702
Rp6703
(dp6704
g48
g19
(g51
S'\x00\x00\x00\x00\x00\x88\x86@'
p6705
tp6706
Rp6707
sbasg57
g58
sg59
g274
sbasg57
g58
sg59
g253
sbasg57
g58
sg59
g253
sbasg57
g58
sg59
g253
sbasg57
g58
sg59
g187
sbasg57
g58
sg59
g253
sbasg57
g58
sg59
g253
sbasg57
g58
sg59
g87
sbag0
(g13
g2
Ntp6708
Rp6709
(dp6710
g17
I2
sg18
g19
(g23
S'\n\x00\x00\x00\x00\x00\x00\x00'
p6711
tp6712
Rp6713
sg11
(lp6714
g0
(g44
g2
Ntp6715
Rp6716
(dp6717
g48
g19
(g51
S'\x00\x00\x00\x00\x00@w@'
p6718
tp6719
Rp6720
sbasg57
g58
sg59
g87
sbag0
(g13
g2
Ntp6721
Rp6722
(dp6723
g17
I2
sg18
g19
(g23
S'\x07\x00\x00\x00\x00\x00\x00\x00'
p6724
tp6725
Rp6726
sg11
(lp6727
g0
(g44
g2
Ntp6728
Rp6729
(dp6730
g48
g19
(g51
S'\x00\x00\x00\x00\x00\xf0~@'
p6731
tp6732
Rp6733
sbasg57
g58
sg59
g87
sbasg57
g58
sg59
g253
sbag0
(g13
g2
Ntp6734
Rp6735
(dp6736
g17
I1
sg18
g19
(g23
S'\x1b\x00\x00\x00\x00\x00\x00\x00'
p6737
tp6738
Rp6739
sg11
(lp6740
g0
(g13
g2
Ntp6741
Rp6742
(dp6743
g17
I2
sg18
g19
(g23
S'\x02\x00\x00\x00\x00\x00\x00\x00'
p6744
tp6745
Rp6746
sg11
(lp6747
g0
(g44
g2
Ntp6748
Rp6749
(dp6750
g48
g19
(g51
S'\x00\x00\x00\x00\x00@\x8f@'
p6751
tp6752
Rp6753
sbasg57
g58
sg59
g187
sbag0
(g13
g2
Ntp6754
Rp6755
(dp6756
g17
I2
sg18
g19
(g23
S'\x01\x00\x00\x00\x00\x00\x00\x00'
p6757
tp6758
Rp6759
sg11
(lp6760
g0
(g44
g2
Ntp6761
Rp6762
(dp6763
g48
g19
(g51
S'\x00\x00\x00\x00\x00`c@'
p6764
tp6765
Rp6766
sbasg57
g58
sg59
g187
sbasg57
g58
sg59
g253
sbag0
(g13
g2
Ntp6767
Rp6768
(dp6769
g17
I1
sg18
g19
(g23
S'T\x00\x00\x00\x00\x00\x00\x00'
p6770
tp6771
Rp6772
sg11
(lp6773
g0
(g13
g2
Ntp6774
Rp6775
(dp6776
g17
I2
sg18
g19
(g23
S'\x03\x00\x00\x00\x00\x00\x00\x00'
p6777
tp6778
Rp6779
sg11
(lp6780
g0
(g44
g2
Ntp6781
Rp6782
(dp6783
g48
g19
(g51
S'\x00\x00\x00\x00\x00h\x81@'
p6784
tp6785
Rp6786
sbasg57
g58
sg59
g60
sbag0
(g13
g2
Ntp6787
Rp6788
(dp6789
g17
I2
sg18
g19
(g23
S'\x02\x00\x00\x00\x00\x00\x00\x00'
p6790
tp6791
Rp6792
sg11
(lp6793
g0
(g44
g2
Ntp6794
Rp6795
(dp6796
g48
g19
(g51
S'\x00\x00\x00\x00\x000|@'
p6797
tp6798
Rp6799
sbasg57
g58
sg59
g60
sbasg57
g58
sg59
g253
sbag0
(g13
g2
Ntp6800
Rp6801
(dp6802
g17
I1
sg18
g19
(g23
S'\x08\x00\x00\x00\x00\x00\x00\x00'
p6803
tp6804
Rp6805
sg11
(lp6806
g0
(g13
g2
Ntp6807
Rp6808
(dp6809
g17
I2
sg18
g19
(g23
S'\x04\x00\x00\x00\x00\x00\x00\x00'
p6810
tp6811
Rp6812
sg11
(lp6813
g0
(g44
g2
Ntp6814
Rp6815
(dp6816
g48
g19
(g51
S'\x00\x00\x00\x00\x00\x80r@'
p6817
tp6818
Rp6819
sbasg57
g58
sg59
g87
sbag0
(g13
g2
Ntp6820
Rp6821
(dp6822
g17
I2
sg18
g19
(g23
S'\x03\x00\x00\x00\x00\x00\x00\x00'
p6823
tp6824
Rp6825
sg11
(lp6826
g0
(g44
g2
Ntp6827
Rp6828
(dp6829
g48
g19
(g51
S'\x00\x00\x00\x00\x00\xe0o@'
p6830
tp6831
Rp6832
sbasg57
g58
sg59
g87
sbasg57
g58
sg59
g253
sbag0
(g13
g2
Ntp6833
Rp6834
(dp6835
g17
I1
sg18
g19
(g23
S'\x16\x00\x00\x00\x00\x00\x00\x00'
p6836
tp6837
Rp6838
sg11
(lp6839
g0
(g13
g2
Ntp6840
Rp6841
(dp6842
g17
I2
sg18
g19
(g23
S'\x00\x00\x00\x00\x00\x00\x00\x00'
p6843
tp6844
Rp6845
sg11
(lp6846
g0
(g44
g2
Ntp6847
Rp6848
(dp6849
g48
g19
(g51
S'\x00\x00\x00\x00\x00\x00t@'
p6850
tp6851
Rp6852
sbasg57
g58
sg59
g60
sbag0
(g13
g2
Ntp6853
Rp6854
(dp6855
g17
I2
sg18
g19
(g23
S'\x04\x00\x00\x00\x00\x00\x00\x00'
p6856
tp6857
Rp6858
sg11
(lp6859
g0
(g44
g2
Ntp6860
Rp6861
(dp6862
g48
g19
(g51
S'\x00\x00\x00\x00\x00h\x86@'
p6863
tp6864
Rp6865
sbasg57
g58
sg59
g60
sbasg57
g58
sg59
g253
sbag0
(g13
g2
Ntp6866
Rp6867
(dp6868
g17
I1
sg18
g19
(g23
S'E\x00\x00\x00\x00\x00\x00\x00'
p6869
tp6870
Rp6871
sg11
(lp6872
g0
(g13
g2
Ntp6873
Rp6874
(dp6875
g17
I2
sg18
g19
(g23
S'\x06\x00\x00\x00\x00\x00\x00\x00'
p6876
tp6877
Rp6878
sg11
(lp6879
g0
(g13
g2
Ntp6880
Rp6881
(dp6882
g17
I3
sg18
g19
(g23
S'\x13\x00\x00\x00\x00\x00\x00\x00'
p6883
tp6884
Rp6885
sg11
(lp6886
g0
(g44
g2
Ntp6887
Rp6888
(dp6889
g48
g19
(g51
S'\x00\x00\x00\x00\x00X\x84@'
p6890
tp6891
Rp6892
sbasg57
g58
sg59
g274
sbag0
(g13
g2
Ntp6893
Rp6894
(dp6895
g17
I3
sg18
g19
(g23
S'\x0f\x00\x00\x00\x00\x00\x00\x00'
p6896
tp6897
Rp6898
sg11
(lp6899
g0
(g44
g2
Ntp6900
Rp6901
(dp6902
g48
g19
(g51
S'\x00\x00\x00\x00\x00p\x83@'
p6903
tp6904
Rp6905
sbasg57
g58
sg59
g274
sbag0
(g13
g2
Ntp6906
Rp6907
(dp6908
g17
I3
sg18
g19
(g23
S'\x10\x00\x00\x00\x00\x00\x00\x00'
p6909
tp6910
Rp6911
sg11
(lp6912
g0
(g13
g2
Ntp6913
Rp6914
(dp6915
g17
I4
sg18
g19
(g23
S'E\x00\x00\x00\x00\x00\x00\x00'
p6916
tp6917
Rp6918
sg11
(lp6919
g0
(g13
g2
Ntp6920
Rp6921
(dp6922
g17
I5
sg18
g19
(g23
S'\x04\x00\x00\x00\x00\x00\x00\x00'
p6923
tp6924
Rp6925
sg11
(lp6926
g0
(g44
g2
Ntp6927
Rp6928
(dp6929
g48
g19
(g51
S'\x00\x00\x00\x00\x00\xc0~@'
p6930
tp6931
Rp6932
sbasg57
g58
sg59
g60
sbag0
(g13
g2
Ntp6933
Rp6934
(dp6935
g17
I5
sg18
g19
(g23
S'\x02\x00\x00\x00\x00\x00\x00\x00'
p6936
tp6937
Rp6938
sg11
(lp6939
g0
(g44
g2
Ntp6940
Rp6941
(dp6942
g48
g19
(g51
S'\x00\x00\x00\x00\x00\xa8\x80@'
p6943
tp6944
Rp6945
sbasg57
g58
sg59
g60
sbasg57
g58
sg59
g253
sbasg57
g58
sg59
g274
sbasg57
g58
sg59
g87
sbag0
(g13
g2
Ntp6946
Rp6947
(dp6948
g17
I2
sg18
g19
(g23
S'\x08\x00\x00\x00\x00\x00\x00\x00'
p6949
tp6950
Rp6951
sg11
(lp6952
g0
(g13
g2
Ntp6953
Rp6954
(dp6955
g17
I3
sg18
g19
(g23
S'\x01\x00\x00\x00\x00\x00\x00\x00'
p6956
tp6957
Rp6958
sg11
(lp6959
g0
(g44
g2
Ntp6960
Rp6961
(dp6962
g48
g19
(g51
S'\x00\x00\x00\x00\x00\xc0\x87@'
p6963
tp6964
Rp6965
sbasg57
g58
sg59
g60
sbag0
(g13
g2
Ntp6966
Rp6967
(dp6968
g17
I3
sg18
g19
(g23
S'\x02\x00\x00\x00\x00\x00\x00\x00'
p6969
tp6970
Rp6971
sg11
(lp6972
g0
(g44
g2
Ntp6973
Rp6974
(dp6975
g48
g19
(g51
S'\x00\x00\x00\x00\x00\xa0h@'
p6976
tp6977
Rp6978
sbasg57
g58
sg59
g60
sbasg57
g58
sg59
g87
sbag0
(g13
g2
Ntp6979
Rp6980
(dp6981
g17
I2
sg18
g19
(g23
S'\x01\x00\x00\x00\x00\x00\x00\x00'
p6982
tp6983
Rp6984
sg11
(lp6985
g0
(g13
g2
Ntp6986
Rp6987
(dp6988
g17
I3
sg18
g19
(g23
S'\x04\x00\x00\x00\x00\x00\x00\x00'
p6989
tp6990
Rp6991
sg11
(lp6992
g0
(g44
g2
Ntp6993
Rp6994
(dp6995
g48
g19
(g51
S'\x00\x00\x00\x00\x00(\x95@'
p6996
tp6997
Rp6998
sbasg57
g58
sg59
g60
sbag0
(g13
g2
Ntp6999
Rp7000
(dp7001
g17
I3
sg18
g19
(g23
S'\x00\x00\x00\x00\x00\x00\x00\x00'
p7002
tp7003
Rp7004
sg11
(lp7005
g0
(g44
g2
Ntp7006
Rp7007
(dp7008
g48
g19
(g51
S'\x00\x00\x00\x00\x00`y@'
p7009
tp7010
Rp7011
sbasg57
g58
sg59
g60
sbasg57
g58
sg59
g87
sbag0
(g13
g2
Ntp7012
Rp7013
(dp7014
g17
I2
sg18
g19
(g23
S'\x0c\x00\x00\x00\x00\x00\x00\x00'
p7015
tp7016
Rp7017
sg11
(lp7018
g0
(g13
g2
Ntp7019
Rp7020
(dp7021
g17
I3
sg18
g19
(g23
S'\x00\x00\x00\x00\x00\x00\x00\x00'
p7022
tp7023
Rp7024
sg11
(lp7025
g0
(g44
g2
Ntp7026
Rp7027
(dp7028
g48
g19
(g51
S'\x00\x00\x00\x00\x00\xe0~@'
p7029
tp7030
Rp7031
sbasg57
g58
sg59
g60
sbag0
(g13
g2
Ntp7032
Rp7033
(dp7034
g17
I3
sg18
g19
(g23
S'\x01\x00\x00\x00\x00\x00\x00\x00'
p7035
tp7036
Rp7037
sg11
(lp7038
g0
(g13
g2
Ntp7039
Rp7040
(dp7041
g17
I4
sg18
g19
(g23
S'\x0b\x00\x00\x00\x00\x00\x00\x00'
p7042
tp7043
Rp7044
sg11
(lp7045
g0
(g44
g2
Ntp7046
Rp7047
(dp7048
g48
g19
(g51
S'\x00\x00\x00\x00\x00\x90r@'
p7049
tp7050
Rp7051
sbasg57
g58
sg59
g274
sbag0
(g13
g2
Ntp7052
Rp7053
(dp7054
g17
I4
sg18
g19
(g23
S'\x08\x00\x00\x00\x00\x00\x00\x00'
p7055
tp7056
Rp7057
sg11
(lp7058
g0
(g44
g2
Ntp7059
Rp7060
(dp7061
g48
g19
(g51
S'\x00\x00\x00\x00\x00\xb0r@'
p7062
tp7063
Rp7064
sbasg57
g58
sg59
g274
sbasg57
g58
sg59
g60
sbag0
(g13
g2
Ntp7065
Rp7066
(dp7067
g17
I3
sg18
g19
(g23
S'\x03\x00\x00\x00\x00\x00\x00\x00'
p7068
tp7069
Rp7070
sg11
(lp7071
g0
(g44
g2
Ntp7072
Rp7073
(dp7074
g48
g19
(g51
S'\x00\x00\x00\x00\x00px@'
p7075
tp7076
Rp7077
sbasg57
g58
sg59
g60
sbag0
(g13
g2
Ntp7078
Rp7079
(dp7080
g17
I3
sg18
g19
(g23
S'\x04\x00\x00\x00\x00\x00\x00\x00'
p7081
tp7082
Rp7083
sg11
(lp7084
g0
(g44
g2
Ntp7085
Rp7086
(dp7087
g48
g19
(g51
S'\x00\x00\x00\x00\x00@}@'
p7088
tp7089
Rp7090
sbasg57
g58
sg59
g60
sbasg57
g58
sg59
g87
sbag0
(g13
g2
Ntp7091
Rp7092
(dp7093
g17
I2
sg18
g19
(g23
S'\t\x00\x00\x00\x00\x00\x00\x00'
p7094
tp7095
Rp7096
sg11
(lp7097
g0
(g13
g2
Ntp7098
Rp7099
(dp7100
g17
I3
sg18
g19
(g23
S'\x01\x00\x00\x00\x00\x00\x00\x00'
p7101
tp7102
Rp7103
sg11
(lp7104
g0
(g44
g2
Ntp7105
Rp7106
(dp7107
g48
g19
(g51
S'\x00\x00\x00\x00\x00\xd0y@'
p7108
tp7109
Rp7110
sbasg57
g58
sg59
g187
sbag0
(g13
g2
Ntp7111
Rp7112
(dp7113
g17
I3
sg18
g19
(g23
S'\x02\x00\x00\x00\x00\x00\x00\x00'
p7114
tp7115
Rp7116
sg11
(lp7117
g0
(g44
g2
Ntp7118
Rp7119
(dp7120
g48
g19
(g51
S'\x00\x00\x00\x00\x00\x10\x87@'
p7121
tp7122
Rp7123
sbasg57
g58
sg59
g187
sbasg57
g58
sg59
g87
sbag0
(g13
g2
Ntp7124
Rp7125
(dp7126
g17
I2
sg18
g19
(g23
S'\x02\x00\x00\x00\x00\x00\x00\x00'
p7127
tp7128
Rp7129
sg11
(lp7130
g0
(g44
g2
Ntp7131
Rp7132
(dp7133
g48
g19
(g51
S'\x00\x00\x00\x00\x00\xf0\x80@'
p7134
tp7135
Rp7136
sbasg57
g58
sg59
g87
sbag0
(g13
g2
Ntp7137
Rp7138
(dp7139
g17
I2
sg18
g19
(g23
S'\x04\x00\x00\x00\x00\x00\x00\x00'
p7140
tp7141
Rp7142
sg11
(lp7143
g0
(g13
g2
Ntp7144
Rp7145
(dp7146
g17
I3
sg18
g19
(g23
S'\x02\x00\x00\x00\x00\x00\x00\x00'
p7147
tp7148
Rp7149
sg11
(lp7150
g0
(g44
g2
Ntp7151
Rp7152
(dp7153
g48
g19
(g51
S'\x00\x00\x00\x00\x00\xb0\x84@'
p7154
tp7155
Rp7156
sbasg57
g58
sg59
g60
sbag0
(g13
g2
Ntp7157
Rp7158
(dp7159
g17
I3
sg18
g19
(g23
S'\x00\x00\x00\x00\x00\x00\x00\x00'
p7160
tp7161
Rp7162
sg11
(lp7163
g0
(g44
g2
Ntp7164
Rp7165
(dp7166
g48
g19
(g51
S'\x00\x00\x00\x00\x00p~@'
p7167
tp7168
Rp7169
sbasg57
g58
sg59
g60
sbag0
(g13
g2
Ntp7170
Rp7171
(dp7172
g17
I3
sg18
g19
(g23
S'\x04\x00\x00\x00\x00\x00\x00\x00'
p7173
tp7174
Rp7175
sg11
(lp7176
g0
(g44
g2
Ntp7177
Rp7178
(dp7179
g48
g19
(g51
S'\x00\x00\x00\x00\x00\xc0h@'
p7180
tp7181
Rp7182
sbasg57
g58
sg59
g60
sbasg57
g58
sg59
g87
sbag0
(g13
g2
Ntp7183
Rp7184
(dp7185
g17
I2
sg18
g19
(g23
S'\x0b\x00\x00\x00\x00\x00\x00\x00'
p7186
tp7187
Rp7188
sg11
(lp7189
g0
(g13
g2
Ntp7190
Rp7191
(dp7192
g17
I3
sg18
g19
(g23
S'\x01\x00\x00\x00\x00\x00\x00\x00'
p7193
tp7194
Rp7195
sg11
(lp7196
g0
(g44
g2
Ntp7197
Rp7198
(dp7199
g48
g19
(g51
S'\x00\x00\x00\x00\x00\xe0h@'
p7200
tp7201
Rp7202
sbasg57
g58
sg59
g60
sbag0
(g13
g2
Ntp7203
Rp7204
(dp7205
g17
I3
sg18
g19
(g23
S'\x03\x00\x00\x00\x00\x00\x00\x00'
p7206
tp7207
Rp7208
sg11
(lp7209
g0
(g44
g2
Ntp7210
Rp7211
(dp7212
g48
g19
(g51
S'\x00\x00\x00\x00\x00@e@'
p7213
tp7214
Rp7215
sbasg57
g58
sg59
g60
sbasg57
g58
sg59
g87
sbag0
(g13
g2
Ntp7216
Rp7217
(dp7218
g17
I2
sg18
g19
(g23
S'\x05\x00\x00\x00\x00\x00\x00\x00'
p7219
tp7220
Rp7221
sg11
(lp7222
g0
(g44
g2
Ntp7223
Rp7224
(dp7225
g48
g19
(g51
S'\x00\x00\x00\x00\x00\xc0o@'
p7226
tp7227
Rp7228
sbasg57
g58
sg59
g87
sbag0
(g13
g2
Ntp7229
Rp7230
(dp7231
g17
I2
sg18
g19
(g23
S'\x07\x00\x00\x00\x00\x00\x00\x00'
p7232
tp7233
Rp7234
sg11
(lp7235
g0
(g44
g2
Ntp7236
Rp7237
(dp7238
g48
g19
(g51
S'\x00\x00\x00\x00\x00\xc8\x8a@'
p7239
tp7240
Rp7241
sbasg57
g58
sg59
g87
sbasg57
g58
sg59
g253
sbag0
(g13
g2
Ntp7242
Rp7243
(dp7244
g17
I1
sg18
g19
(g23
S'L\x00\x00\x00\x00\x00\x00\x00'
p7245
tp7246
Rp7247
sg11
(lp7248
g0
(g13
g2
Ntp7249
Rp7250
(dp7251
g17
I2
sg18
g19
(g23
S'\x01\x00\x00\x00\x00\x00\x00\x00'
p7252
tp7253
Rp7254
sg11
(lp7255
g0
(g13
g2
Ntp7256
Rp7257
(dp7258
g17
I3
sg18
g19
(g23
S'\x03\x00\x00\x00\x00\x00\x00\x00'
p7259
tp7260
Rp7261
sg11
(lp7262
g0
(g44
g2
Ntp7263
Rp7264
(dp7265
g48
g19
(g51
S'\x00\x00\x00\x00\x00h\x80@'
p7266
tp7267
Rp7268
sbasg57
g58
sg59
g60
sbag0
(g13
g2
Ntp7269
Rp7270
(dp7271
g17
I3
sg18
g19
(g23
S'\x05\x00\x00\x00\x00\x00\x00\x00'
p7272
tp7273
Rp7274
sg11
(lp7275
g0
(g44
g2
Ntp7276
Rp7277
(dp7278
g48
g19
(g51
S'\x00\x00\x00\x00\x00\xb0\x8d@'
p7279
tp7280
Rp7281
sbasg57
g58
sg59
g60
sbasg57
g58
sg59
g87
sbag0
(g13
g2
Ntp7282
Rp7283
(dp7284
g17
I2
sg18
g19
(g23
S'\x08\x00\x00\x00\x00\x00\x00\x00'
p7285
tp7286
Rp7287
sg11
(lp7288
g0
(g13
g2
Ntp7289
Rp7290
(dp7291
g17
I3
sg18
g19
(g23
S'\x03\x00\x00\x00\x00\x00\x00\x00'
p7292
tp7293
Rp7294
sg11
(lp7295
g0
(g44
g2
Ntp7296
Rp7297
(dp7298
g48
g19
(g51
S'\x00\x00\x00\x00\x00\xe0}@'
p7299
tp7300
Rp7301
sbasg57
g58
sg59
g60
sbag0
(g13
g2
Ntp7302
Rp7303
(dp7304
g17
I3
sg18
g19
(g23
S'\x02\x00\x00\x00\x00\x00\x00\x00'
p7305
tp7306
Rp7307
sg11
(lp7308
g0
(g44
g2
Ntp7309
Rp7310
(dp7311
g48
g19
(g51
S'\x00\x00\x00\x00\x00\xe0s@'
p7312
tp7313
Rp7314
sbasg57
g58
sg59
g60
sbasg57
g58
sg59
g87
sbag0
(g13
g2
Ntp7315
Rp7316
(dp7317
g17
I2
sg18
g19
(g23
S'\n\x00\x00\x00\x00\x00\x00\x00'
p7318
tp7319
Rp7320
sg11
(lp7321
g0
(g44
g2
Ntp7322
Rp7323
(dp7324
g48
g19
(g51
S'\x00\x00\x00\x00@\x03\xe3@'
p7325
tp7326
Rp7327
sbasg57
g58
sg59
g87
sbag0
(g13
g2
Ntp7328
Rp7329
(dp7330
g17
I2
sg18
g19
(g23
S'\x0c\x00\x00\x00\x00\x00\x00\x00'
p7331
tp7332
Rp7333
sg11
(lp7334
g0
(g13
g2
Ntp7335
Rp7336
(dp7337
g17
I3
sg18
g19
(g23
S'\x06\x00\x00\x00\x00\x00\x00\x00'
p7338
tp7339
Rp7340
sg11
(lp7341
g0
(g44
g2
Ntp7342
Rp7343
(dp7344
g48
g19
(g51
S'\x00\x00\x00\x00\x00\x90z@'
p7345
tp7346
Rp7347
sbasg57
g58
sg59
g274
sbag0
(g13
g2
Ntp7348
Rp7349
(dp7350
g17
I3
sg18
g19
(g23
S'\x16\x00\x00\x00\x00\x00\x00\x00'
p7351
tp7352
Rp7353
sg11
(lp7354
g0
(g44
g2
Ntp7355
Rp7356
(dp7357
g48
g19
(g51
S'\x00\x00\x00\x00\x00P\x89@'
p7358
tp7359
Rp7360
sbasg57
g58
sg59
g274
sbasg57
g58
sg59
g87
sbag0
(g13
g2
Ntp7361
Rp7362
(dp7363
g17
I2
sg18
g19
(g23
S'\x05\x00\x00\x00\x00\x00\x00\x00'
p7364
tp7365
Rp7366
sg11
(lp7367
g0
(g13
g2
Ntp7368
Rp7369
(dp7370
g17
I3
sg18
g19
(g23
S'\x05\x00\x00\x00\x00\x00\x00\x00'
p7371
tp7372
Rp7373
sg11
(lp7374
g0
(g44
g2
Ntp7375
Rp7376
(dp7377
g48
g19
(g51
S'\x00\x00\x00\x00\x00\xb8\x9a@'
p7378
tp7379
Rp7380
sbasg57
g58
sg59
g60
sbag0
(g13
g2
Ntp7381
Rp7382
(dp7383
g17
I3
sg18
g19
(g23
S'\x02\x00\x00\x00\x00\x00\x00\x00'
p7384
tp7385
Rp7386
sg11
(lp7387
g0
(g44
g2
Ntp7388
Rp7389
(dp7390
g48
g19
(g51
S'\x00\x00\x00\x00\x00\xe0u@'
p7391
tp7392
Rp7393
sbasg57
g58
sg59
g60
sbasg57
g58
sg59
g87
sbag0
(g13
g2
Ntp7394
Rp7395
(dp7396
g17
I2
sg18
g19
(g23
S'\x0b\x00\x00\x00\x00\x00\x00\x00'
p7397
tp7398
Rp7399
sg11
(lp7400
g0
(g44
g2
Ntp7401
Rp7402
(dp7403
g48
g19
(g51
S'\x00\x00\x00\x00\x00`y@'
p7404
tp7405
Rp7406
sbasg57
g58
sg59
g87
sbag0
(g13
g2
Ntp7407
Rp7408
(dp7409
g17
I2
sg18
g19
(g23
S'\x04\x00\x00\x00\x00\x00\x00\x00'
p7410
tp7411
Rp7412
sg11
(lp7413
g0
(g44
g2
Ntp7414
Rp7415
(dp7416
g48
g19
(g51
S'\x00\x00\x00\x00\x00\x00\x82@'
p7417
tp7418
Rp7419
sbasg57
g58
sg59
g87
sbasg57
g58
sg59
g253
sbag0
(g13
g2
Ntp7420
Rp7421
(dp7422
g17
I1
sg18
g19
(g23
S'3\x00\x00\x00\x00\x00\x00\x00'
p7423
tp7424
Rp7425
sg11
(lp7426
g0
(g13
g2
Ntp7427
Rp7428
(dp7429
g17
I2
sg18
g19
(g23
S'\t\x00\x00\x00\x00\x00\x00\x00'
p7430
tp7431
Rp7432
sg11
(lp7433
g0
(g44
g2
Ntp7434
Rp7435
(dp7436
g48
g19
(g51
S'\x00\x00\x00\x00\x00\x98\x83@'
p7437
tp7438
Rp7439
sbasg57
g58
sg59
g87
sbag0
(g13
g2
Ntp7440
Rp7441
(dp7442
g17
I2
sg18
g19
(g23
S'\x04\x00\x00\x00\x00\x00\x00\x00'
p7443
tp7444
Rp7445
sg11
(lp7446
g0
(g44
g2
Ntp7447
Rp7448
(dp7449
g48
g19
(g51
S'\x00\x00\x00\x00\x00\x00\x84@'
p7450
tp7451
Rp7452
sbasg57
g58
sg59
g87
sbag0
(g13
g2
Ntp7453
Rp7454
(dp7455
g17
I2
sg18
g19
(g23
S'\x03\x00\x00\x00\x00\x00\x00\x00'
p7456
tp7457
Rp7458
sg11
(lp7459
g0
(g44
g2
Ntp7460
Rp7461
(dp7462
g48
g19
(g51
S'\x00\x00\x00\x00\x00 \x86@'
p7463
tp7464
Rp7465
sbasg57
g58
sg59
g87
sbag0
(g13
g2
Ntp7466
Rp7467
(dp7468
g17
I2
sg18
g19
(g23
S'\x02\x00\x00\x00\x00\x00\x00\x00'
p7469
tp7470
Rp7471
sg11
(lp7472
g0
(g44
g2
Ntp7473
Rp7474
(dp7475
g48
g19
(g51
S'\x00\x00\x00\x00\x00H\x80@'
p7476
tp7477
Rp7478
sbasg57
g58
sg59
g87
sbasg57
g58
sg59
g253
sbag0
(g13
g2
Ntp7479
Rp7480
(dp7481
g17
I1
sg18
g19
(g23
S'>\x00\x00\x00\x00\x00\x00\x00'
p7482
tp7483
Rp7484
sg11
(lp7485
g0
(g13
g2
Ntp7486
Rp7487
(dp7488
g17
I2
sg18
g19
(g23
S'\x11\x00\x00\x00\x00\x00\x00\x00'
p7489
tp7490
Rp7491
sg11
(lp7492
g0
(g13
g2
Ntp7493
Rp7494
(dp7495
g17
I3
sg18
g19
(g23
S'\n\x00\x00\x00\x00\x00\x00\x00'
p7496
tp7497
Rp7498
sg11
(lp7499
g0
(g44
g2
Ntp7500
Rp7501
(dp7502
g48
g19
(g51
S'\x00\x00\x00\x00\x00(\x83@'
p7503
tp7504
Rp7505
sbasg57
g58
sg59
g87
sbag0
(g13
g2
Ntp7506
Rp7507
(dp7508
g17
I3
sg18
g19
(g23
S'\x0b\x00\x00\x00\x00\x00\x00\x00'
p7509
tp7510
Rp7511
sg11
(lp7512
g0
(g44
g2
Ntp7513
Rp7514
(dp7515
g48
g19
(g51
S'\x00\x00\x00\x00\x00\xd0\x7f@'
p7516
tp7517
Rp7518
sbasg57
g58
sg59
g87
sbag0
(g13
g2
Ntp7519
Rp7520
(dp7521
g17
I3
sg18
g19
(g23
S'\x01\x00\x00\x00\x00\x00\x00\x00'
p7522
tp7523
Rp7524
sg11
(lp7525
g0
(g44
g2
Ntp7526
Rp7527
(dp7528
g48
g19
(g51
S'\x00\x00\x00\x00\x00\x90v@'
p7529
tp7530
Rp7531
sbasg57
g58
sg59
g87
sbasg57
g58
sg59
g274
sbag0
(g13
g2
Ntp7532
Rp7533
(dp7534
g17
I2
sg18
g19
(g23
S'\r\x00\x00\x00\x00\x00\x00\x00'
p7535
tp7536
Rp7537
sg11
(lp7538
g0
(g44
g2
Ntp7539
Rp7540
(dp7541
g48
g19
(g51
S'\x00\x00\x00\x00\x00\xe0m@'
p7542
tp7543
Rp7544
sbasg57
g58
sg59
g274
sbag0
(g13
g2
Ntp7545
Rp7546
(dp7547
g17
I2
sg18
g19
(g23
S'\x05\x00\x00\x00\x00\x00\x00\x00'
p7548
tp7549
Rp7550
sg11
(lp7551
g0
(g44
g2
Ntp7552
Rp7553
(dp7554
g48
g19
(g51
S'\x00\x00\x00\x00\x00\xc0j@'
p7555
tp7556
Rp7557
sbasg57
g58
sg59
g274
sbag0
(g13
g2
Ntp7558
Rp7559
(dp7560
g17
I2
sg18
g19
(g23
S'\x12\x00\x00\x00\x00\x00\x00\x00'
p7561
tp7562
Rp7563
sg11
(lp7564
g0
(g44
g2
Ntp7565
Rp7566
(dp7567
g48
g19
(g51
S'\x00\x00\x00\x00\x00@S@'
p7568
tp7569
Rp7570
sbasg57
g58
sg59
g274
sbag0
(g13
g2
Ntp7571
Rp7572
(dp7573
g17
I2
sg18
g19
(g23
S'\x08\x00\x00\x00\x00\x00\x00\x00'
p7574
tp7575
Rp7576
sg11
(lp7577
g0
(g44
g2
Ntp7578
Rp7579
(dp7580
g48
g19
(g51
S'\x00\x00\x00\x00\x00\x00x@'
p7581
tp7582
Rp7583
sbasg57
g58
sg59
g274
sbag0
(g13
g2
Ntp7584
Rp7585
(dp7586
g17
I2
sg18
g19
(g23
S'\x13\x00\x00\x00\x00\x00\x00\x00'
p7587
tp7588
Rp7589
sg11
(lp7590
g0
(g13
g2
Ntp7591
Rp7592
(dp7593
g17
I3
sg18
g19
(g23
S'\x01\x00\x00\x00\x00\x00\x00\x00'
p7594
tp7595
Rp7596
sg11
(lp7597
g0
(g44
g2
Ntp7598
Rp7599
(dp7600
g48
g19
(g51
S'\x00\x00\x00\x00\x00pv@'
p7601
tp7602
Rp7603
sbasg57
g58
sg59
g60
sbag0
(g13
g2
Ntp7604
Rp7605
(dp7606
g17
I3
sg18
g19
(g23
S'\x00\x00\x00\x00\x00\x00\x00\x00'
p7607
tp7608
Rp7609
sg11
(lp7610
g0
(g44
g2
Ntp7611
Rp7612
(dp7613
g48
g19
(g51
S'\x00\x00\x00\x00\x00\\\x94@'
p7614
tp7615
Rp7616
sbasg57
g58
sg59
g60
sbasg57
g58
sg59
g274
sbag0
(g13
g2
Ntp7617
Rp7618
(dp7619
g17
I2
sg18
g19
(g23
S'\x10\x00\x00\x00\x00\x00\x00\x00'
p7620
tp7621
Rp7622
sg11
(lp7623
g0
(g13
g2
Ntp7624
Rp7625
(dp7626
g17
I3
sg18
g19
(g23
S'\x06\x00\x00\x00\x00\x00\x00\x00'
p7627
tp7628
Rp7629
sg11
(lp7630
g0
(g44
g2
Ntp7631
Rp7632
(dp7633
g48
g19
(g51
S'\x00\x00\x00\x00\x00(\x80@'
p7634
tp7635
Rp7636
sbasg57
g58
sg59
g60
sbag0
(g13
g2
Ntp7637
Rp7638
(dp7639
g17
I3
sg18
g19
(g23
S'\x00\x00\x00\x00\x00\x00\x00\x00'
p7640
tp7641
Rp7642
sg11
(lp7643
g0
(g44
g2
Ntp7644
Rp7645
(dp7646
g48
g19
(g51
S'\x00\x00\x00\x00\x00\xa0v@'
p7647
tp7648
Rp7649
sbasg57
g58
sg59
g60
sbasg57
g58
sg59
g274
sbag0
(g13
g2
Ntp7650
Rp7651
(dp7652
g17
I2
sg18
g19
(g23
S'\x0b\x00\x00\x00\x00\x00\x00\x00'
p7653
tp7654
Rp7655
sg11
(lp7656
g0
(g44
g2
Ntp7657
Rp7658
(dp7659
g48
g19
(g51
S'\x00\x00\x00\x00\x00\xb0\x7f@'
p7660
tp7661
Rp7662
sbasg57
g58
sg59
g274
sbag0
(g13
g2
Ntp7663
Rp7664
(dp7665
g17
I2
sg18
g19
(g23
S'\t\x00\x00\x00\x00\x00\x00\x00'
p7666
tp7667
Rp7668
sg11
(lp7669
g0
(g44
g2
Ntp7670
Rp7671
(dp7672
g48
g19
(g51
S'\x00\x00\x00\x00\x00\xe0c@'
p7673
tp7674
Rp7675
sbasg57
g58
sg59
g274
sbag0
(g13
g2
Ntp7676
Rp7677
(dp7678
g17
I2
sg18
g19
(g23
S'\x07\x00\x00\x00\x00\x00\x00\x00'
p7679
tp7680
Rp7681
sg11
(lp7682
g0
(g44
g2
Ntp7683
Rp7684
(dp7685
g48
g19
(g51
S'\x00\x00\x00\x00\x00\xf0p@'
p7686
tp7687
Rp7688
sbasg57
g58
sg59
g274
sbag0
(g13
g2
Ntp7689
Rp7690
(dp7691
g17
I2
sg18
g19
(g23
S'\x0c\x00\x00\x00\x00\x00\x00\x00'
p7692
tp7693
Rp7694
sg11
(lp7695
g0
(g44
g2
Ntp7696
Rp7697
(dp7698
g48
g19
(g51
S'\x00\x00\x00\x00\x000\x7f@'
p7699
tp7700
Rp7701
sbasg57
g58
sg59
g274
sbasg57
g58
sg59
g253
sbag0
(g13
g2
Ntp7702
Rp7703
(dp7704
g17
I1
sg18
g19
(g23
S'\t\x00\x00\x00\x00\x00\x00\x00'
p7705
tp7706
Rp7707
sg11
(lp7708
g0
(g13
g2
Ntp7709
Rp7710
(dp7711
g17
I2
sg18
g19
(g23
S'\t\x00\x00\x00\x00\x00\x00\x00'
p7712
tp7713
Rp7714
sg11
(lp7715
g0
(g44
g2
Ntp7716
Rp7717
(dp7718
g48
g19
(g51
S'\x00\x00\x00\x00\x00\xa8\x80@'
p7719
tp7720
Rp7721
sbasg57
g58
sg59
g87
sbag0
(g13
g2
Ntp7722
Rp7723
(dp7724
g17
I2
sg18
g19
(g23
S'\x05\x00\x00\x00\x00\x00\x00\x00'
p7725
tp7726
Rp7727
sg11
(lp7728
g0
(g44
g2
Ntp7729
Rp7730
(dp7731
g48
g19
(g51
S'\x00\x00\x00\x00\x00\xf0~@'
p7732
tp7733
Rp7734
sbasg57
g58
sg59
g87
sbasg57
g58
sg59
g253
sbag0
(g13
g2
Ntp7735
Rp7736
(dp7737
g17
I1
sg18
g19
(g23
S'*\x00\x00\x00\x00\x00\x00\x00'
p7738
tp7739
Rp7740
sg11
(lp7741
g0
(g13
g2
Ntp7742
Rp7743
(dp7744
g17
I2
sg18
g19
(g23
S'\x07\x00\x00\x00\x00\x00\x00\x00'
p7745
tp7746
Rp7747
sg11
(lp7748
g0
(g44
g2
Ntp7749
Rp7750
(dp7751
g48
g19
(g51
S'\x00\x00\x00\x00\x00pt@'
p7752
tp7753
Rp7754
sbasg57
g58
sg59
g87
sbag0
(g13
g2
Ntp7755
Rp7756
(dp7757
g17
I2
sg18
g19
(g23
S'\x0b\x00\x00\x00\x00\x00\x00\x00'
p7758
tp7759
Rp7760
sg11
(lp7761
g0
(g44
g2
Ntp7762
Rp7763
(dp7764
g48
g19
(g51
S'\x00\x00\x00\x00\x00\x00^@'
p7765
tp7766
Rp7767
sbasg57
g58
sg59
g87
sbag0
(g13
g2
Ntp7768
Rp7769
(dp7770
g17
I2
sg18
g19
(g23
S'\x01\x00\x00\x00\x00\x00\x00\x00'
p7771
tp7772
Rp7773
sg11
(lp7774
g0
(g44
g2
Ntp7775
Rp7776
(dp7777
g48
g19
(g51
S'\x00\x00\x00\x00\x00\xd0\x84@'
p7778
tp7779
Rp7780
sbasg57
g58
sg59
g87
sbag0
(g13
g2
Ntp7781
Rp7782
(dp7783
g17
I2
sg18
g19
(g23
S'\x05\x00\x00\x00\x00\x00\x00\x00'
p7784
tp7785
Rp7786
sg11
(lp7787
g0
(g13
g2
Ntp7788
Rp7789
(dp7790
g17
I3
sg18
g19
(g23
S'*\x00\x00\x00\x00\x00\x00\x00'
p7791
tp7792
Rp7793
sg11
(lp7794
g0
(g13
g2
Ntp7795
Rp7796
(dp7797
g17
I4
sg18
g19
(g23
S'*\x00\x00\x00\x00\x00\x00\x00'
p7798
tp7799
Rp7800
sg11
(lp7801
g0
(g13
g2
Ntp7802
Rp7803
(dp7804
g17
I5
sg18
g19
(g23
S'*\x00\x00\x00\x00\x00\x00\x00'
p7805
tp7806
Rp7807
sg11
(lp7808
g0
(g13
g2
Ntp7809
Rp7810
(dp7811
g17
I6
sg18
g19
(g23
S'\x01\x00\x00\x00\x00\x00\x00\x00'
p7812
tp7813
Rp7814
sg11
(lp7815
g0
(g13
g2
Ntp7816
Rp7817
(dp7818
g17
I7
sg18
g19
(g23
S'*\x00\x00\x00\x00\x00\x00\x00'
p7819
tp7820
Rp7821
sg11
(lp7822
g0
(g13
g2
Ntp7823
Rp7824
(dp7825
g17
I8
sg18
g19
(g23
S'*\x00\x00\x00\x00\x00\x00\x00'
p7826
tp7827
Rp7828
sg11
(lp7829
g0
(g13
g2
Ntp7830
Rp7831
(dp7832
g17
I9
sg18
g19
(g23
S'*\x00\x00\x00\x00\x00\x00\x00'
p7833
tp7834
Rp7835
sg11
(lp7836
g0
(g13
g2
Ntp7837
Rp7838
(dp7839
g17
I10
sg18
g19
(g23
S'*\x00\x00\x00\x00\x00\x00\x00'
p7840
tp7841
Rp7842
sg11
(lp7843
g0
(g13
g2
Ntp7844
Rp7845
(dp7846
g17
I11
sg18
g19
(g23
S'*\x00\x00\x00\x00\x00\x00\x00'
p7847
tp7848
Rp7849
sg11
(lp7850
g0
(g13
g2
Ntp7851
Rp7852
(dp7853
g17
I12
sg18
g19
(g23
S'*\x00\x00\x00\x00\x00\x00\x00'
p7854
tp7855
Rp7856
sg11
(lp7857
g0
(g13
g2
Ntp7858
Rp7859
(dp7860
g17
I13
sg18
g19
(g23
S'*\x00\x00\x00\x00\x00\x00\x00'
p7861
tp7862
Rp7863
sg11
(lp7864
g0
(g13
g2
Ntp7865
Rp7866
(dp7867
g17
I14
sg18
g19
(g23
S'*\x00\x00\x00\x00\x00\x00\x00'
p7868
tp7869
Rp7870
sg11
(lp7871
g0
(g13
g2
Ntp7872
Rp7873
(dp7874
g17
I15
sg18
g19
(g23
S'*\x00\x00\x00\x00\x00\x00\x00'
p7875
tp7876
Rp7877
sg11
(lp7878
g0
(g13
g2
Ntp7879
Rp7880
(dp7881
g17
I16
sg18
g19
(g23
S'\x01\x00\x00\x00\x00\x00\x00\x00'
p7882
tp7883
Rp7884
sg11
(lp7885
g0
(g13
g2
Ntp7886
Rp7887
(dp7888
g17
I17
sg18
g19
(g23
S'*\x00\x00\x00\x00\x00\x00\x00'
p7889
tp7890
Rp7891
sg11
(lp7892
g0
(g13
g2
Ntp7893
Rp7894
(dp7895
g17
I18
sg18
g19
(g23
S'*\x00\x00\x00\x00\x00\x00\x00'
p7896
tp7897
Rp7898
sg11
(lp7899
g0
(g13
g2
Ntp7900
Rp7901
(dp7902
g17
I19
sg18
g19
(g23
S'\x01\x00\x00\x00\x00\x00\x00\x00'
p7903
tp7904
Rp7905
sg11
(lp7906
g0
(g13
g2
Ntp7907
Rp7908
(dp7909
g17
I20
sg18
g19
(g23
S'*\x00\x00\x00\x00\x00\x00\x00'
p7910
tp7911
Rp7912
sg11
(lp7913
g0
(g13
g2
Ntp7914
Rp7915
(dp7916
g17
I21
sg18
g19
(g23
S'*\x00\x00\x00\x00\x00\x00\x00'
p7917
tp7918
Rp7919
sg11
(lp7920
g0
(g13
g2
Ntp7921
Rp7922
(dp7923
g17
I22
sg18
g19
(g23
S'*\x00\x00\x00\x00\x00\x00\x00'
p7924
tp7925
Rp7926
sg11
(lp7927
g0
(g13
g2
Ntp7928
Rp7929
(dp7930
g17
I23
sg18
g19
(g23
S'*\x00\x00\x00\x00\x00\x00\x00'
p7931
tp7932
Rp7933
sg11
(lp7934
g0
(g13
g2
Ntp7935
Rp7936
(dp7937
g17
I24
sg18
g19
(g23
S'*\x00\x00\x00\x00\x00\x00\x00'
p7938
tp7939
Rp7940
sg11
(lp7941
g0
(g13
g2
Ntp7942
Rp7943
(dp7944
g17
I25
sg18
g19
(g23
S'*\x00\x00\x00\x00\x00\x00\x00'
p7945
tp7946
Rp7947
sg11
(lp7948
g0
(g44
g2
Ntp7949
Rp7950
(dp7951
g48
g19
(g51
S'\x00\x00\x00\x00\x00\x00v@'
p7952
tp7953
Rp7954
sbasg57
g58
sg59
g253
sbasg57
g58
sg59
g253
sbasg57
g58
sg59
g253
sbasg57
g58
sg59
g253
sbasg57
g58
sg59
g253
sbasg57
g58
sg59
g253
sbasg57
g58
sg59
g187
sbasg57
g58
sg59
g253
sbasg57
g58
sg59
g253
sbasg57
g58
sg59
g187
sbasg57
g58
sg59
g253
sbasg57
g58
sg59
g253
sbasg57
g58
sg59
g253
sbasg57
g58
sg59
g253
sbasg57
g58
sg59
g253
sbasg57
g58
sg59
g253
sbasg57
g58
sg59
g253
sbasg57
g58
sg59
g253
sbasg57
g58
sg59
g253
sbasg57
g58
sg59
g187
sbasg57
g58
sg59
g253
sbasg57
g58
sg59
g253
sbasg57
g58
sg59
g253
sbasg57
g58
sg59
g87
sbag0
(g13
g2
Ntp7955
Rp7956
(dp7957
g17
I2
sg18
g19
(g23
S'\x0c\x00\x00\x00\x00\x00\x00\x00'
p7958
tp7959
Rp7960
sg11
(lp7961
g0
(g44
g2
Ntp7962
Rp7963
(dp7964
g48
g19
(g51
S'\x00\x00\x00\x00\x00P\x7f@'
p7965
tp7966
Rp7967
sbasg57
g58
sg59
g87
sbag0
(g13
g2
Ntp7968
Rp7969
(dp7970
g17
I2
sg18
g19
(g23
S'\t\x00\x00\x00\x00\x00\x00\x00'
p7971
tp7972
Rp7973
sg11
(lp7974
g0
(g44
g2
Ntp7975
Rp7976
(dp7977
g48
g19
(g51
S'\x00\x00\x00\x00\x00\xf0~@'
p7978
tp7979
Rp7980
sbasg57
g58
sg59
g87
sbag0
(g13
g2
Ntp7981
Rp7982
(dp7983
g17
I2
sg18
g19
(g23
S'\n\x00\x00\x00\x00\x00\x00\x00'
p7984
tp7985
Rp7986
sg11
(lp7987
g0
(g44
g2
Ntp7988
Rp7989
(dp7990
g48
g19
(g51
S'\x00\x00\x00\x00\x00@q@'
p7991
tp7992
Rp7993
sbasg57
g58
sg59
g87
sbasg57
g58
sg59
g253
sbag0
(g13
g2
Ntp7994
Rp7995
(dp7996
g17
I1
sg18
g19
(g23
S'K\x00\x00\x00\x00\x00\x00\x00'
p7997
tp7998
Rp7999
sg11
(lp8000
g0
(g13
g2
Ntp8001
Rp8002
(dp8003
g17
I2
sg18
g19
(g23
S'\x03\x00\x00\x00\x00\x00\x00\x00'
p8004
tp8005
Rp8006
sg11
(lp8007
g0
(g13
g2
Ntp8008
Rp8009
(dp8010
g17
I3
sg18
g19
(g23
S'\x14\x00\x00\x00\x00\x00\x00\x00'
p8011
tp8012
Rp8013
sg11
(lp8014
g0
(g44
g2
Ntp8015
Rp8016
(dp8017
g48
g19
(g51
S'\x00\x00\x00\x00\x00@e@'
p8018
tp8019
Rp8020
sbasg57
g58
sg59
g274
sbag0
(g13
g2
Ntp8021
Rp8022
(dp8023
g17
I3
sg18
g19
(g23
S'\r\x00\x00\x00\x00\x00\x00\x00'
p8024
tp8025
Rp8026
sg11
(lp8027
g0
(g44
g2
Ntp8028
Rp8029
(dp8030
g48
g19
(g51
S'\x00\x00\x00\x00\x00P\x7f@'
p8031
tp8032
Rp8033
sbasg57
g58
sg59
g274
sbasg57
g58
sg59
g60
sbag0
(g13
g2
Ntp8034
Rp8035
(dp8036
g17
I2
sg18
g19
(g23
S'\x06\x00\x00\x00\x00\x00\x00\x00'
p8037
tp8038
Rp8039
sg11
(lp8040
g0
(g13
g2
Ntp8041
Rp8042
(dp8043
g17
I3
sg18
g19
(g23
S'\x03\x00\x00\x00\x00\x00\x00\x00'
p8044
tp8045
Rp8046
sg11
(lp8047
g0
(g44
g2
Ntp8048
Rp8049
(dp8050
g48
g19
(g51
S'\x00\x00\x00\x00\x00\xd0\x80@'
p8051
tp8052
Rp8053
sbasg57
g58
sg59
g87
sbag0
(g13
g2
Ntp8054
Rp8055
(dp8056
g17
I3
sg18
g19
(g23
S'\x0c\x00\x00\x00\x00\x00\x00\x00'
p8057
tp8058
Rp8059
sg11
(lp8060
g0
(g44
g2
Ntp8061
Rp8062
(dp8063
g48
g19
(g51
S'\x00\x00\x00\x00\x00\x00y@'
p8064
tp8065
Rp8066
sbasg57
g58
sg59
g87
sbag0
(g13
g2
Ntp8067
Rp8068
(dp8069
g17
I3
sg18
g19
(g23
S'\t\x00\x00\x00\x00\x00\x00\x00'
p8070
tp8071
Rp8072
sg11
(lp8073
g0
(g44
g2
Ntp8074
Rp8075
(dp8076
g48
g19
(g51
S'\x00\x00\x00\x00\x00\xf0\x86@'
p8077
tp8078
Rp8079
sbasg57
g58
sg59
g87
sbasg57
g58
sg59
g60
sbag0
(g13
g2
Ntp8080
Rp8081
(dp8082
g17
I2
sg18
g19
(g23
S'\x00\x00\x00\x00\x00\x00\x00\x00'
p8083
tp8084
Rp8085
sg11
(lp8086
g0
(g13
g2
Ntp8087
Rp8088
(dp8089
g17
I3
sg18
g19
(g23
S'\x08\x00\x00\x00\x00\x00\x00\x00'
p8090
tp8091
Rp8092
sg11
(lp8093
g0
(g44
g2
Ntp8094
Rp8095
(dp8096
g48
g19
(g51
S'\x00\x00\x00\x00\x00@W@'
p8097
tp8098
Rp8099
sbasg57
g58
sg59
g274
sbag0
(g13
g2
Ntp8100
Rp8101
(dp8102
g17
I3
sg18
g19
(g23
S'\x10\x00\x00\x00\x00\x00\x00\x00'
p8103
tp8104
Rp8105
sg11
(lp8106
g0
(g44
g2
Ntp8107
Rp8108
(dp8109
g48
g19
(g51
S'\x00\x00\x00\x00\x008\x8b@'
p8110
tp8111
Rp8112
sbasg57
g58
sg59
g274
sbasg57
g58
sg59
g60
sbag0
(g13
g2
Ntp8113
Rp8114
(dp8115
g17
I2
sg18
g19
(g23
S'\x05\x00\x00\x00\x00\x00\x00\x00'
p8116
tp8117
Rp8118
sg11
(lp8119
g0
(g44
g2
Ntp8120
Rp8121
(dp8122
g48
g19
(g51
S'\x00\x00\x00\x00\x00\xc8\x81@'
p8123
tp8124
Rp8125
sbasg57
g58
sg59
g60
sbasg57
g58
sg59
g253
sbag0
(g44
g2
Ntp8126
Rp8127
(dp8128
g48
g19
(g51
S'\xecQ\xb8\x1e\x85\x11\x92@'
p8129
tp8130
Rp8131
sbag0
(g13
g2
Ntp8132
Rp8133
(dp8134
g17
I1
sg18
g19
(g23
S"'\x00\x00\x00\x00\x00\x00\x00"
p8135
tp8136
Rp8137
sg11
(lp8138
g0
(g13
g2
Ntp8139
Rp8140
(dp8141
g17
I2
sg18
g19
(g23
S'\x0b\x00\x00\x00\x00\x00\x00\x00'
p8142
tp8143
Rp8144
sg11
(lp8145
g0
(g13
g2
Ntp8146
Rp8147
(dp8148
g17
I3
sg18
g19
(g23
S"'\x00\x00\x00\x00\x00\x00\x00"
p8149
tp8150
Rp8151
sg11
(lp8152
g0
(g13
g2
Ntp8153
Rp8154
(dp8155
g17
I4
sg18
g19
(g23
S'\x12\x00\x00\x00\x00\x00\x00\x00'
p8156
tp8157
Rp8158
sg11
(lp8159
g0
(g44
g2
Ntp8160
Rp8161
(dp8162
g48
g19
(g51
S'\x00\x00\x00\x00\x00\x10~@'
p8163
tp8164
Rp8165
sbasg57
g58
sg59
g274
sbag0
(g13
g2
Ntp8166
Rp8167
(dp8168
g17
I4
sg18
g19
(g23
S'\x0e\x00\x00\x00\x00\x00\x00\x00'
p8169
tp8170
Rp8171
sg11
(lp8172
g0
(g44
g2
Ntp8173
Rp8174
(dp8175
g48
g19
(g51
S'\x00\x00\x00\x00\x00\x10\x7f@'
p8176
tp8177
Rp8178
sbasg57
g58
sg59
g274
sbasg57
g58
sg59
g253
sbasg57
g58
sg59
g87
sbag0
(g13
g2
Ntp8179
Rp8180
(dp8181
g17
I2
sg18
g19
(g23
S'\t\x00\x00\x00\x00\x00\x00\x00'
p8182
tp8183
Rp8184
sg11
(lp8185
g0
(g13
g2
Ntp8186
Rp8187
(dp8188
g17
I3
sg18
g19
(g23
S'\x05\x00\x00\x00\x00\x00\x00\x00'
p8189
tp8190
Rp8191
sg11
(lp8192
g0
(g44
g2
Ntp8193
Rp8194
(dp8195
g48
g19
(g51
S'\x00\x00\x00\x00\x00\x90z@'
p8196
tp8197
Rp8198
sbasg57
g58
sg59
g60
sbag0
(g13
g2
Ntp8199
Rp8200
(dp8201
g17
I3
sg18
g19
(g23
S'\x02\x00\x00\x00\x00\x00\x00\x00'
p8202
tp8203
Rp8204
sg11
(lp8205
g0
(g44
g2
Ntp8206
Rp8207
(dp8208
g48
g19
(g51
S'\x00\x00\x00\x00\x00\x90u@'
p8209
tp8210
Rp8211
sbasg57
g58
sg59
g60
sbag0
(g13
g2
Ntp8212
Rp8213
(dp8214
g17
I3
sg18
g19
(g23
S'\x01\x00\x00\x00\x00\x00\x00\x00'
p8215
tp8216
Rp8217
sg11
(lp8218
g0
(g44
g2
Ntp8219
Rp8220
(dp8221
g48
g19
(g51
S'\x00\x00\x00\x00\x000x@'
p8222
tp8223
Rp8224
sbasg57
g58
sg59
g60
sbasg57
g58
sg59
g87
sbag0
(g13
g2
Ntp8225
Rp8226
(dp8227
g17
I2
sg18
g19
(g23
S'\x06\x00\x00\x00\x00\x00\x00\x00'
p8228
tp8229
Rp8230
sg11
(lp8231
g0
(g44
g2
Ntp8232
Rp8233
(dp8234
g48
g19
(g51
S'\x00\x00\x00\x00\x00\x10\x8d@'
p8235
tp8236
Rp8237
sbasg57
g58
sg59
g87
sbag0
(g13
g2
Ntp8238
Rp8239
(dp8240
g17
I2
sg18
g19
(g23
S'\x03\x00\x00\x00\x00\x00\x00\x00'
p8241
tp8242
Rp8243
sg11
(lp8244
g0
(g13
g2
Ntp8245
Rp8246
(dp8247
g17
I3
sg18
g19
(g23
S'\x04\x00\x00\x00\x00\x00\x00\x00'
p8248
tp8249
Rp8250
sg11
(lp8251
g0
(g44
g2
Ntp8252
Rp8253
(dp8254
g48
g19
(g51
S'\x00\x00\x00\x00\x00\x00{@'
p8255
tp8256
Rp8257
sbasg57
g58
sg59
g60
sbag0
(g13
g2
Ntp8258
Rp8259
(dp8260
g17
I3
sg18
g19
(g23
S'\x02\x00\x00\x00\x00\x00\x00\x00'
p8261
tp8262
Rp8263
sg11
(lp8264
g0
(g44
g2
Ntp8265
Rp8266
(dp8267
g48
g19
(g51
S'\x00\x00\x00\x00\x00\x10\x8e@'
p8268
tp8269
Rp8270
sbasg57
g58
sg59
g60
sbag0
(g13
g2
Ntp8271
Rp8272
(dp8273
g17
I3
sg18
g19
(g23
S'\x03\x00\x00\x00\x00\x00\x00\x00'
p8274
tp8275
Rp8276
sg11
(lp8277
g0
(g44
g2
Ntp8278
Rp8279
(dp8280
g48
g19
(g51
S'\x00\x00\x00\x00\x00\x80l@'
p8281
tp8282
Rp8283
sbasg57
g58
sg59
g60
sbasg57
g58
sg59
g87
sbag0
(g13
g2
Ntp8284
Rp8285
(dp8286
g17
I2
sg18
g19
(g23
S'\x07\x00\x00\x00\x00\x00\x00\x00'
p8287
tp8288
Rp8289
sg11
(lp8290
g0
(g44
g2
Ntp8291
Rp8292
(dp8293
g48
g19
(g51
S'\x00\x00\x00\x00\x003\xb8@'
p8294
tp8295
Rp8296
sbasg57
g58
sg59
g87
sbag0
(g13
g2
Ntp8297
Rp8298
(dp8299
g17
I2
sg18
g19
(g23
S'\x02\x00\x00\x00\x00\x00\x00\x00'
p8300
tp8301
Rp8302
sg11
(lp8303
g0
(g44
g2
Ntp8304
Rp8305
(dp8306
g48
g19
(g51
S'\x00\x00\x00\x00\x00\xa8\x81@'
p8307
tp8308
Rp8309
sbasg57
g58
sg59
g87
sbag0
(g13
g2
Ntp8310
Rp8311
(dp8312
g17
I2
sg18
g19
(g23
S'\n\x00\x00\x00\x00\x00\x00\x00'
p8313
tp8314
Rp8315
sg11
(lp8316
g0
(g44
g2
Ntp8317
Rp8318
(dp8319
g48
g19
(g51
S'\x00\x00\x00\x00\x00\x08\x89@'
p8320
tp8321
Rp8322
sbasg57
g58
sg59
g87
sbag0
(g13
g2
Ntp8323
Rp8324
(dp8325
g17
I2
sg18
g19
(g23
S'\x08\x00\x00\x00\x00\x00\x00\x00'
p8326
tp8327
Rp8328
sg11
(lp8329
g0
(g44
g2
Ntp8330
Rp8331
(dp8332
g48
g19
(g51
S'\x00\x00\x00\x00\x00\x90u@'
p8333
tp8334
Rp8335
sbasg57
g58
sg59
g87
sbasg57
g58
sg59
g253
sbag0
(g13
g2
Ntp8336
Rp8337
(dp8338
g17
I1
sg18
g19
(g23
S'\x1f\x00\x00\x00\x00\x00\x00\x00'
p8339
tp8340
Rp8341
sg11
(lp8342
g0
(g13
g2
Ntp8343
Rp8344
(dp8345
g17
I2
sg18
g19
(g23
S'\x0b\x00\x00\x00\x00\x00\x00\x00'
p8346
tp8347
Rp8348
sg11
(lp8349
g0
(g13
g2
Ntp8350
Rp8351
(dp8352
g17
I3
sg18
g19
(g23
S'\x03\x00\x00\x00\x00\x00\x00\x00'
p8353
tp8354
Rp8355
sg11
(lp8356
g0
(g44
g2
Ntp8357
Rp8358
(dp8359
g48
g19
(g51
S'\x00\x00\x00\x00\x00\xb8\x8f@'
p8360
tp8361
Rp8362
sbasg57
g58
sg59
g60
sbag0
(g13
g2
Ntp8363
Rp8364
(dp8365
g17
I3
sg18
g19
(g23
S'\x05\x00\x00\x00\x00\x00\x00\x00'
p8366
tp8367
Rp8368
sg11
(lp8369
g0
(g44
g2
Ntp8370
Rp8371
(dp8372
g48
g19
(g51
S'\x00\x00\x00\x00\x00\xf0\x8c@'
p8373
tp8374
Rp8375
sbasg57
g58
sg59
g60
sbasg57
g58
sg59
g274
sbag0
(g13
g2
Ntp8376
Rp8377
(dp8378
g17
I2
sg18
g19
(g23
S'\r\x00\x00\x00\x00\x00\x00\x00'
p8379
tp8380
Rp8381
sg11
(lp8382
g0
(g44
g2
Ntp8383
Rp8384
(dp8385
g48
g19
(g51
S'\x00\x00\x00\x00\x00\x8e\xa0@'
p8386
tp8387
Rp8388
sbasg57
g58
sg59
g274
sbag0
(g13
g2
Ntp8389
Rp8390
(dp8391
g17
I2
sg18
g19
(g23
S'\x11\x00\x00\x00\x00\x00\x00\x00'
p8392
tp8393
Rp8394
sg11
(lp8395
g0
(g44
g2
Ntp8396
Rp8397
(dp8398
g48
g19
(g51
S'\x00\x00\x00\x00\x000v@'
p8399
tp8400
Rp8401
sbasg57
g58
sg59
g274
sbasg57
g58
sg59
g253
sbag0
(g13
g2
Ntp8402
Rp8403
(dp8404
g17
I1
sg18
g19
(g23
S'1\x00\x00\x00\x00\x00\x00\x00'
p8405
tp8406
Rp8407
sg11
(lp8408
g0
(g13
g2
Ntp8409
Rp8410
(dp8411
g17
I2
sg18
g19
(g23
S'\x05\x00\x00\x00\x00\x00\x00\x00'
p8412
tp8413
Rp8414
sg11
(lp8415
g0
(g44
g2
Ntp8416
Rp8417
(dp8418
g48
g19
(g51
S'\x00\x00\x00\x00\x00\x80a@'
p8419
tp8420
Rp8421
sbasg57
g58
sg59
g87
sbag0
(g13
g2
Ntp8422
Rp8423
(dp8424
g17
I2
sg18
g19
(g23
S'\x0b\x00\x00\x00\x00\x00\x00\x00'
p8425
tp8426
Rp8427
sg11
(lp8428
g0
(g44
g2
Ntp8429
Rp8430
(dp8431
g48
g19
(g51
S'\x00\x00\x00\x00\x00 \x82@'
p8432
tp8433
Rp8434
sbasg57
g58
sg59
g87
sbag0
(g13
g2
Ntp8435
Rp8436
(dp8437
g17
I2
sg18
g19
(g23
S'\n\x00\x00\x00\x00\x00\x00\x00'
p8438
tp8439
Rp8440
sg11
(lp8441
g0
(g13
g2
Ntp8442
Rp8443
(dp8444
g17
I3
sg18
g19
(g23
S'\x06\x00\x00\x00\x00\x00\x00\x00'
p8445
tp8446
Rp8447
sg11
(lp8448
g0
(g44
g2
Ntp8449
Rp8450
(dp8451
g48
g19
(g51
S'\x00\x00\x00\x00\x00 \x8c@'
p8452
tp8453
Rp8454
sbasg57
g58
sg59
g60
sbag0
(g13
g2
Ntp8455
Rp8456
(dp8457
g17
I3
sg18
g19
(g23
S'\x02\x00\x00\x00\x00\x00\x00\x00'
p8458
tp8459
Rp8460
sg11
(lp8461
g0
(g44
g2
Ntp8462
Rp8463
(dp8464
g48
g19
(g51
S'\x00\x00\x00\x00\x00\xb0\x7f@'
p8465
tp8466
Rp8467
sbasg57
g58
sg59
g60
sbasg57
g58
sg59
g87
sbag0
(g13
g2
Ntp8468
Rp8469
(dp8470
g17
I2
sg18
g19
(g23
S'\t\x00\x00\x00\x00\x00\x00\x00'
p8471
tp8472
Rp8473
sg11
(lp8474
g0
(g44
g2
Ntp8475
Rp8476
(dp8477
g48
g19
(g51
S'\x00\x00\x00\x00\x00\xa0t@'
p8478
tp8479
Rp8480
sbasg57
g58
sg59
g87
sbag0
(g13
g2
Ntp8481
Rp8482
(dp8483
g17
I2
sg18
g19
(g23
S'\x01\x00\x00\x00\x00\x00\x00\x00'
p8484
tp8485
Rp8486
sg11
(lp8487
g0
(g44
g2
Ntp8488
Rp8489
(dp8490
g48
g19
(g51
S'\x00\x00\x00\x00\x008\x82@'
p8491
tp8492
Rp8493
sbasg57
g58
sg59
g87
sbag0
(g13
g2
Ntp8494
Rp8495
(dp8496
g17
I2
sg18
g19
(g23
S'\x04\x00\x00\x00\x00\x00\x00\x00'
p8497
tp8498
Rp8499
sg11
(lp8500
g0
(g44
g2
Ntp8501
Rp8502
(dp8503
g48
g19
(g51
S'\x00\x00\x00\x00\x00\xe0~@'
p8504
tp8505
Rp8506
sbasg57
g58
sg59
g87
sbag0
(g13
g2
Ntp8507
Rp8508
(dp8509
g17
I2
sg18
g19
(g23
S'\x02\x00\x00\x00\x00\x00\x00\x00'
p8510
tp8511
Rp8512
sg11
(lp8513
g0
(g44
g2
Ntp8514
Rp8515
(dp8516
g48
g19
(g51
S'\x00\x00\x00\x00\x00\x94\xa0@'
p8517
tp8518
Rp8519
sbasg57
g58
sg59
g87
sbasg57
g58
sg59
g253
sbag0
(g13
g2
Ntp8520
Rp8521
(dp8522
g17
I1
sg18
g19
(g23
S'\x04\x00\x00\x00\x00\x00\x00\x00'
p8523
tp8524
Rp8525
sg11
(lp8526
g0
(g13
g2
Ntp8527
Rp8528
(dp8529
g17
I2
sg18
g19
(g23
S'\x03\x00\x00\x00\x00\x00\x00\x00'
p8530
tp8531
Rp8532
sg11
(lp8533
g0
(g44
g2
Ntp8534
Rp8535
(dp8536
g48
g19
(g51
S'\x00\x00\x00\x00\x00\xa0m@'
p8537
tp8538
Rp8539
sbasg57
g58
sg59
g87
sbag0
(g13
g2
Ntp8540
Rp8541
(dp8542
g17
I2
sg18
g19
(g23
S'\x06\x00\x00\x00\x00\x00\x00\x00'
p8543
tp8544
Rp8545
sg11
(lp8546
g0
(g44
g2
Ntp8547
Rp8548
(dp8549
g48
g19
(g51
S'\x00\x00\x00\x00\x00\x00o@'
p8550
tp8551
Rp8552
sbasg57
g58
sg59
g87
sbag0
(g13
g2
Ntp8553
Rp8554
(dp8555
g17
I2
sg18
g19
(g23
S'\x05\x00\x00\x00\x00\x00\x00\x00'
p8556
tp8557
Rp8558
sg11
(lp8559
g0
(g44
g2
Ntp8560
Rp8561
(dp8562
g48
g19
(g51
S'\x00\x00\x00\x00\x00\xc0b@'
p8563
tp8564
Rp8565
sbasg57
g58
sg59
g87
sbag0
(g13
g2
Ntp8566
Rp8567
(dp8568
g17
I2
sg18
g19
(g23
S'\x0c\x00\x00\x00\x00\x00\x00\x00'
p8569
tp8570
Rp8571
sg11
(lp8572
g0
(g44
g2
Ntp8573
Rp8574
(dp8575
g48
g19
(g51
S'\x00\x00\x00\x00\x00\xb0v@'
p8576
tp8577
Rp8578
sbasg57
g58
sg59
g87
sbag0
(g13
g2
Ntp8579
Rp8580
(dp8581
g17
I2
sg18
g19
(g23
S'\x01\x00\x00\x00\x00\x00\x00\x00'
p8582
tp8583
Rp8584
sg11
(lp8585
g0
(g44
g2
Ntp8586
Rp8587
(dp8588
g48
g19
(g51
S'\x00\x00\x00\x00\x00``@'
p8589
tp8590
Rp8591
sbasg57
g58
sg59
g87
sbasg57
g58
sg59
g253
sbag0
(g13
g2
Ntp8592
Rp8593
(dp8594
g17
I1
sg18
g19
(g23
S'9\x00\x00\x00\x00\x00\x00\x00'
p8595
tp8596
Rp8597
sg11
(lp8598
g0
(g13
g2
Ntp8599
Rp8600
(dp8601
g17
I2
sg18
g19
(g23
S'\x08\x00\x00\x00\x00\x00\x00\x00'
p8602
tp8603
Rp8604
sg11
(lp8605
g0
(g44
g2
Ntp8606
Rp8607
(dp8608
g48
g19
(g51
S'\x00\x00\x00\x00\x000\x81@'
p8609
tp8610
Rp8611
sbasg57
g58
sg59
g87
sbag0
(g13
g2
Ntp8612
Rp8613
(dp8614
g17
I2
sg18
g19
(g23
S'\x03\x00\x00\x00\x00\x00\x00\x00'
p8615
tp8616
Rp8617
sg11
(lp8618
g0
(g44
g2
Ntp8619
Rp8620
(dp8621
g48
g19
(g51
S'\x00\x00\x00\x00\x00Pw@'
p8622
tp8623
Rp8624
sbasg57
g58
sg59
g87
sbag0
(g13
g2
Ntp8625
Rp8626
(dp8627
g17
I2
sg18
g19
(g23
S'\x07\x00\x00\x00\x00\x00\x00\x00'
p8628
tp8629
Rp8630
sg11
(lp8631
g0
(g44
g2
Ntp8632
Rp8633
(dp8634
g48
g19
(g51
S'\x00\x00\x00\x00\x000\x83@'
p8635
tp8636
Rp8637
sbasg57
g58
sg59
g87
sbag0
(g13
g2
Ntp8638
Rp8639
(dp8640
g17
I2
sg18
g19
(g23
S'\x02\x00\x00\x00\x00\x00\x00\x00'
p8641
tp8642
Rp8643
sg11
(lp8644
g0
(g44
g2
Ntp8645
Rp8646
(dp8647
g48
g19
(g51
S'\x00\x00\x00\x00\x00D\x96@'
p8648
tp8649
Rp8650
sbasg57
g58
sg59
g87
sbasg57
g58
sg59
g253
sbag0
(g13
g2
Ntp8651
Rp8652
(dp8653
g17
I1
sg18
g19
(g23
S'\x07\x00\x00\x00\x00\x00\x00\x00'
p8654
tp8655
Rp8656
sg11
(lp8657
g0
(g13
g2
Ntp8658
Rp8659
(dp8660
g17
I2
sg18
g19
(g23
S'\x06\x00\x00\x00\x00\x00\x00\x00'
p8661
tp8662
Rp8663
sg11
(lp8664
g0
(g44
g2
Ntp8665
Rp8666
(dp8667
g48
g19
(g51
S'\x00\x00\x00\x00\x00`z@'
p8668
tp8669
Rp8670
sbasg57
g58
sg59
g60
sbag0
(g13
g2
Ntp8671
Rp8672
(dp8673
g17
I2
sg18
g19
(g23
S'\x01\x00\x00\x00\x00\x00\x00\x00'
p8674
tp8675
Rp8676
sg11
(lp8677
g0
(g44
g2
Ntp8678
Rp8679
(dp8680
g48
g19
(g51
S'\x00\x00\x00\x00\x00\xb0\x8b@'
p8681
tp8682
Rp8683
sbasg57
g58
sg59
g60
sbasg57
g58
sg59
g253
sbag0
(g13
g2
Ntp8684
Rp8685
(dp8686
g17
I1
sg18
g19
(g23
S'\x1d\x00\x00\x00\x00\x00\x00\x00'
p8687
tp8688
Rp8689
sg11
(lp8690
g0
(g13
g2
Ntp8691
Rp8692
(dp8693
g17
I2
sg18
g19
(g23
S'\x02\x00\x00\x00\x00\x00\x00\x00'
p8694
tp8695
Rp8696
sg11
(lp8697
g0
(g44
g2
Ntp8698
Rp8699
(dp8700
g48
g19
(g51
S'\x00\x00\x00\x00\x00`m@'
p8701
tp8702
Rp8703
sbasg57
g58
sg59
g60
sbag0
(g13
g2
Ntp8704
Rp8705
(dp8706
g17
I2
sg18
g19
(g23
S'\x05\x00\x00\x00\x00\x00\x00\x00'
p8707
tp8708
Rp8709
sg11
(lp8710
g0
(g44
g2
Ntp8711
Rp8712
(dp8713
g48
g19
(g51
S'\x00\x00\x00\x00\x00\xc8\x87@'
p8714
tp8715
Rp8716
sbasg57
g58
sg59
g60
sbasg57
g58
sg59
g253
sbag0
(g13
g2
Ntp8717
Rp8718
(dp8719
g17
I1
sg18
g19
(g23
S'\x02\x00\x00\x00\x00\x00\x00\x00'
p8720
tp8721
Rp8722
sg11
(lp8723
g0
(g13
g2
Ntp8724
Rp8725
(dp8726
g17
I2
sg18
g19
(g23
S'\x01\x00\x00\x00\x00\x00\x00\x00'
p8727
tp8728
Rp8729
sg11
(lp8730
g0
(g13
g2
Ntp8731
Rp8732
(dp8733
g17
I3
sg18
g19
(g23
S'\x03\x00\x00\x00\x00\x00\x00\x00'
p8734
tp8735
Rp8736
sg11
(lp8737
g0
(g13
g2
Ntp8738
Rp8739
(dp8740
g17
I4
sg18
g19
(g23
S'\x02\x00\x00\x00\x00\x00\x00\x00'
p8741
tp8742
Rp8743
sg11
(lp8744
g0
(g13
g2
Ntp8745
Rp8746
(dp8747
g17
I5
sg18
g19
(g23
S'\x03\x00\x00\x00\x00\x00\x00\x00'
p8748
tp8749
Rp8750
sg11
(lp8751
g0
(g44
g2
Ntp8752
Rp8753
(dp8754
g48
g19
(g51
S'\x00\x00\x00\x00\x00\xe0j@'
p8755
tp8756
Rp8757
sbasg57
g58
sg59
g87
sbag0
(g13
g2
Ntp8758
Rp8759
(dp8760
g17
I5
sg18
g19
(g23
S'\x08\x00\x00\x00\x00\x00\x00\x00'
p8761
tp8762
Rp8763
sg11
(lp8764
g0
(g44
g2
Ntp8765
Rp8766
(dp8767
g48
g19
(g51
S'\x00\x00\x00\x00\x00 v@'
p8768
tp8769
Rp8770
sbasg57
g58
sg59
g87
sbasg57
g58
sg59
g253
sbasg57
g58
sg59
g60
sbag0
(g13
g2
Ntp8771
Rp8772
(dp8773
g17
I3
sg18
g19
(g23
S'\x06\x00\x00\x00\x00\x00\x00\x00'
p8774
tp8775
Rp8776
sg11
(lp8777
g0
(g44
g2
Ntp8778
Rp8779
(dp8780
g48
g19
(g51
S'\x00\x00\x00\x00\x00\x80g@'
p8781
tp8782
Rp8783
sbasg57
g58
sg59
g60
sbag0
(g13
g2
Ntp8784
Rp8785
(dp8786
g17
I3
sg18
g19
(g23
S'\x02\x00\x00\x00\x00\x00\x00\x00'
p8787
tp8788
Rp8789
sg11
(lp8790
g0
(g44
g2
Ntp8791
Rp8792
(dp8793
g48
g19
(g51
S'\x00\x00\x00\x00\x00 n@'
p8794
tp8795
Rp8796
sbasg57
g58
sg59
g60
sbag0
(g13
g2
Ntp8797
Rp8798
(dp8799
g17
I3
sg18
g19
(g23
S'\x04\x00\x00\x00\x00\x00\x00\x00'
p8800
tp8801
Rp8802
sg11
(lp8803
g0
(g44
g2
Ntp8804
Rp8805
(dp8806
g48
g19
(g51
S'\x00\x00\x00\x00\x00`{@'
p8807
tp8808
Rp8809
sbasg57
g58
sg59
g60
sbasg57
g58
sg59
g187
sbag0
(g13
g2
Ntp8810
Rp8811
(dp8812
g17
I2
sg18
g19
(g23
S'\x02\x00\x00\x00\x00\x00\x00\x00'
p8813
tp8814
Rp8815
sg11
(lp8816
g0
(g44
g2
Ntp8817
Rp8818
(dp8819
g48
g19
(g51
S'\x00\x00\x00\x00\x00X\x8b@'
p8820
tp8821
Rp8822
sbasg57
g58
sg59
g187
sbasg57
g58
sg59
g253
sbag0
(g13
g2
Ntp8823
Rp8824
(dp8825
g17
I1
sg18
g19
(g23
S'\x03\x00\x00\x00\x00\x00\x00\x00'
p8826
tp8827
Rp8828
sg11
(lp8829
g0
(g13
g2
Ntp8830
Rp8831
(dp8832
g17
I2
sg18
g19
(g23
S'\x01\x00\x00\x00\x00\x00\x00\x00'
p8833
tp8834
Rp8835
sg11
(lp8836
g0
(g44
g2
Ntp8837
Rp8838
(dp8839
g48
g19
(g51
S'\x00\x00\x00\x00\x00\xc0l@'
p8840
tp8841
Rp8842
sbasg57
g58
sg59
g60
sbag0
(g13
g2
Ntp8843
Rp8844
(dp8845
g17
I2
sg18
g19
(g23
S'\x03\x00\x00\x00\x00\x00\x00\x00'
p8846
tp8847
Rp8848
sg11
(lp8849
g0
(g44
g2
Ntp8850
Rp8851
(dp8852
g48
g19
(g51
S'\x00\x00\x00\x00\x000\x94@'
p8853
tp8854
Rp8855
sbasg57
g58
sg59
g60
sbag0
(g13
g2
Ntp8856
Rp8857
(dp8858
g17
I2
sg18
g19
(g23
S'\x05\x00\x00\x00\x00\x00\x00\x00'
p8859
tp8860
Rp8861
sg11
(lp8862
g0
(g44
g2
Ntp8863
Rp8864
(dp8865
g48
g19
(g51
S'\x00\x00\x00\x00\x00\xec\x93@'
p8866
tp8867
Rp8868
sbasg57
g58
sg59
g60
sbasg57
g58
sg59
g253
sbag0
(g13
g2
Ntp8869
Rp8870
(dp8871
g17
I1
sg18
g19
(g23
S' \x00\x00\x00\x00\x00\x00\x00'
p8872
tp8873
Rp8874
sg11
(lp8875
g0
(g13
g2
Ntp8876
Rp8877
(dp8878
g17
I2
sg18
g19
(g23
S'\x01\x00\x00\x00\x00\x00\x00\x00'
p8879
tp8880
Rp8881
sg11
(lp8882
g0
(g44
g2
Ntp8883
Rp8884
(dp8885
g48
g19
(g51
S'\x00\x00\x00\x00\x00\xc0q@'
p8886
tp8887
Rp8888
sbasg57
g58
sg59
g60
sbag0
(g13
g2
Ntp8889
Rp8890
(dp8891
g17
I2
sg18
g19
(g23
S'\x03\x00\x00\x00\x00\x00\x00\x00'
p8892
tp8893
Rp8894
sg11
(lp8895
g0
(g44
g2
Ntp8896
Rp8897
(dp8898
g48
g19
(g51
S'\x00\x00\x00\x00\x00\x10~@'
p8899
tp8900
Rp8901
sbasg57
g58
sg59
g60
sbasg57
g58
sg59
g253
sbag0
(g44
g2
Ntp8902
Rp8903
(dp8904
g48
g19
(g51
S'\xecQ\xb8\x1e\x85\x11\x92@'
p8905
tp8906
Rp8907
sbag0
(g44
g2
Ntp8908
Rp8909
(dp8910
g48
g19
(g51
S'\xecQ\xb8\x1e\x85\x11\x92@'
p8911
tp8912
Rp8913
sbag0
(g13
g2
Ntp8914
Rp8915
(dp8916
g17
I1
sg18
g19
(g23
S'-\x00\x00\x00\x00\x00\x00\x00'
p8917
tp8918
Rp8919
sg11
(lp8920
g0
(g13
g2
Ntp8921
Rp8922
(dp8923
g17
I2
sg18
g19
(g23
S'\n\x00\x00\x00\x00\x00\x00\x00'
p8924
tp8925
Rp8926
sg11
(lp8927
g0
(g44
g2
Ntp8928
Rp8929
(dp8930
g48
g19
(g51
S'\x00\x00\x00\x00\x00 |@'
p8931
tp8932
Rp8933
sbasg57
g58
sg59
g87
sbag0
(g13
g2
Ntp8934
Rp8935
(dp8936
g17
I2
sg18
g19
(g23
S'\x07\x00\x00\x00\x00\x00\x00\x00'
p8937
tp8938
Rp8939
sg11
(lp8940
g0
(g44
g2
Ntp8941
Rp8942
(dp8943
g48
g19
(g51
S'\x00\x00\x00\x00\x00\x08\x80@'
p8944
tp8945
Rp8946
sbasg57
g58
sg59
g87
sbag0
(g13
g2
Ntp8947
Rp8948
(dp8949
g17
I2
sg18
g19
(g23
S'\x0c\x00\x00\x00\x00\x00\x00\x00'
p8950
tp8951
Rp8952
sg11
(lp8953
g0
(g44
g2
Ntp8954
Rp8955
(dp8956
g48
g19
(g51
S'\x00\x00\x00\x00\x00p{@'
p8957
tp8958
Rp8959
sbasg57
g58
sg59
g87
sbasg57
g58
sg59
g253
sbag0
(g44
g2
Ntp8960
Rp8961
(dp8962
g48
g19
(g51
S'\xecQ\xb8\x1e\x85\x11\x92@'
p8963
tp8964
Rp8965
sbag0
(g13
g2
Ntp8966
Rp8967
(dp8968
g17
I1
sg18
g19
(g23
S'\x0b\x00\x00\x00\x00\x00\x00\x00'
p8969
tp8970
Rp8971
sg11
(lp8972
g0
(g13
g2
Ntp8973
Rp8974
(dp8975
g17
I2
sg18
g19
(g23
S'\x04\x00\x00\x00\x00\x00\x00\x00'
p8976
tp8977
Rp8978
sg11
(lp8979
g0
(g44
g2
Ntp8980
Rp8981
(dp8982
g48
g19
(g51
S'\x00\x00\x00\x00\x00\x00{@'
p8983
tp8984
Rp8985
sbasg57
g58
sg59
g60
sbag0
(g13
g2
Ntp8986
Rp8987
(dp8988
g17
I2
sg18
g19
(g23
S'\x03\x00\x00\x00\x00\x00\x00\x00'
p8989
tp8990
Rp8991
sg11
(lp8992
g0
(g44
g2
Ntp8993
Rp8994
(dp8995
g48
g19
(g51
S'\x00\x00\x00\x00\x00P\x89@'
p8996
tp8997
Rp8998
sbasg57
g58
sg59
g60
sbasg57
g58
sg59
g253
sbag0
(g44
g2
Ntp8999
Rp9000
(dp9001
g48
g19
(g51
S'\xecQ\xb8\x1e\x85\x11\x92@'
p9002
tp9003
Rp9004
sbag0
(g44
g2
Ntp9005
Rp9006
(dp9007
g48
g19
(g51
S'\xecQ\xb8\x1e\x85\x11\x92@'
p9008
tp9009
Rp9010
sbag0
(g44
g2
Ntp9011
Rp9012
(dp9013
g48
g19
(g51
S'\xecQ\xb8\x1e\x85\x11\x92@'
p9014
tp9015
Rp9016
sbasg57
g58
sg59
g253
sbsb.