ccopy_reg
_reconstructor
p0
(cclasses
Tree
p1
c__builtin__
object
p2
Ntp3
Rp4
(dp5
S'root'
p6
g0
(cclasses
Root
p7
g2
Ntp8
Rp9
(dp10
S'nodes'
p11
(lp12
g0
(cclasses
Node
p13
g2
Ntp14
Rp15
(dp16
S'depth'
p17
I1
sS'value_condition'
p18
cnumpy.core.multiarray
scalar
p19
(cnumpy
dtype
p20
(S'i8'
p21
I0
I1
tp22
Rp23
(I3
S'<'
p24
NNNI-1
I-1
I0
tp25
bS'\x02\x00\x00\x00\x00\x00\x00\x00'
p26
tp27
Rp28
sg11
(lp29
g0
(g13
g2
Ntp30
Rp31
(dp32
g17
I2
sg18
g19
(g23
S'\t\x00\x00\x00\x00\x00\x00\x00'
p33
tp34
Rp35
sg11
(lp36
g0
(cclasses
Leaf
p37
g2
Ntp38
Rp39
(dp40
S'value'
p41
g19
(g20
(S'f8'
p42
I0
I1
tp43
Rp44
(I3
S'<'
p45
NNNI-1
I-1
I0
tp46
bS'q\xf5\x83\x8e\nd\xaf@'
p47
tp48
Rp49
sbasS'target'
p50
S'duration'
p51
sS'feature'
p52
S'start_date_month'
p53
sbag0
(g13
g2
Ntp54
Rp55
(dp56
g17
I2
sg18
g19
(g23
S'\x07\x00\x00\x00\x00\x00\x00\x00'
p57
tp58
Rp59
sg11
(lp60
g0
(g37
g2
Ntp61
Rp62
(dp63
g41
g19
(g44
S'\xb6\x03s\xed\xc0p\xa1@'
p64
tp65
Rp66
sbasg50
g51
sg52
g53
sbag0
(g13
g2
Ntp67
Rp68
(dp69
g17
I2
sg18
g19
(g23
S'\x0b\x00\x00\x00\x00\x00\x00\x00'
p70
tp71
Rp72
sg11
(lp73
g0
(g37
g2
Ntp74
Rp75
(dp76
g41
g19
(g44
S'\xb7m\xdb\xb6m@\xab@'
p77
tp78
Rp79
sbasg50
g51
sg52
g53
sbag0
(g13
g2
Ntp80
Rp81
(dp82
g17
I2
sg18
g19
(g23
S'\x05\x00\x00\x00\x00\x00\x00\x00'
p83
tp84
Rp85
sg11
(lp86
g0
(g37
g2
Ntp87
Rp88
(dp89
g41
g19
(g44
S'\t\xed%\xb4\x97\xa4\xa4@'
p90
tp91
Rp92
sbasg50
g51
sg52
g53
sbag0
(g13
g2
Ntp93
Rp94
(dp95
g17
I2
sg18
g19
(g23
S'\x08\x00\x00\x00\x00\x00\x00\x00'
p96
tp97
Rp98
sg11
(lp99
g0
(g37
g2
Ntp100
Rp101
(dp102
g41
g19
(g44
S'A\xa7\rt\xda\xda\xae@'
p103
tp104
Rp105
sbasg50
g51
sg52
g53
sbag0
(g13
g2
Ntp106
Rp107
(dp108
g17
I2
sg18
g19
(g23
S'\x0c\x00\x00\x00\x00\x00\x00\x00'
p109
tp110
Rp111
sg11
(lp112
g0
(g37
g2
Ntp113
Rp114
(dp115
g41
g19
(g44
S'\xb4n0E>\xfe\xb9@'
p116
tp117
Rp118
sbasg50
g51
sg52
g53
sbag0
(g13
g2
Ntp119
Rp120
(dp121
g17
I2
sg18
g19
(g23
S'\x03\x00\x00\x00\x00\x00\x00\x00'
p122
tp123
Rp124
sg11
(lp125
g0
(g37
g2
Ntp126
Rp127
(dp128
g41
g19
(g44
S'-d!\x0bY\xea\xaf@'
p129
tp130
Rp131
sbasg50
g51
sg52
g53
sbag0
(g13
g2
Ntp132
Rp133
(dp134
g17
I2
sg18
g19
(g23
S'\n\x00\x00\x00\x00\x00\x00\x00'
p135
tp136
Rp137
sg11
(lp138
g0
(g37
g2
Ntp139
Rp140
(dp141
g41
g19
(g44
S'\xa6\xa5\xa5\xa5\xa5\xeb\x9e@'
p142
tp143
Rp144
sbasg50
g51
sg52
g53
sbag0
(g13
g2
Ntp145
Rp146
(dp147
g17
I2
sg18
g19
(g23
S'\x01\x00\x00\x00\x00\x00\x00\x00'
p148
tp149
Rp150
sg11
(lp151
g0
(g37
g2
Ntp152
Rp153
(dp154
g41
g19
(g44
S'\xfb\x1cR\x13\x8c\x83\xa5@'
p155
tp156
Rp157
sbasg50
g51
sg52
g53
sbag0
(g13
g2
Ntp158
Rp159
(dp160
g17
I2
sg18
g19
(g23
S'\x02\x00\x00\x00\x00\x00\x00\x00'
p161
tp162
Rp163
sg11
(lp164
g0
(g37
g2
Ntp165
Rp166
(dp167
g41
g19
(g44
S'3333\x93\xcc\xb7@'
p168
tp169
Rp170
sbasg50
g51
sg52
g53
sbag0
(g13
g2
Ntp171
Rp172
(dp173
g17
I2
sg18
g19
(g23
S'\x06\x00\x00\x00\x00\x00\x00\x00'
p174
tp175
Rp176
sg11
(lp177
g0
(g37
g2
Ntp178
Rp179
(dp180
g41
g19
(g44
S'\xc4\xc3\xc3\xc3\xc3<\xb6@'
p181
tp182
Rp183
sbasg50
g51
sg52
g53
sbag0
(g13
g2
Ntp184
Rp185
(dp186
g17
I2
sg18
g19
(g23
S'\x04\x00\x00\x00\x00\x00\x00\x00'
p187
tp188
Rp189
sg11
(lp190
g0
(g37
g2
Ntp191
Rp192
(dp193
g41
g19
(g44
S'R\xb8\x1e\x85\xeb\r\xa6@'
p194
tp195
Rp196
sbasg50
g51
sg52
g53
sbasg50
g51
sg52
S'subscription_type'
p197
sbag0
(g13
g2
Ntp198
Rp199
(dp200
g17
I1
sg18
g19
(g23
S'\x01\x00\x00\x00\x00\x00\x00\x00'
p201
tp202
Rp203
sg11
(lp204
g0
(g13
g2
Ntp205
Rp206
(dp207
g17
I2
sg18
g19
(g23
S'"\x00\x00\x00\x00\x00\x00\x00'
p208
tp209
Rp210
sg11
(lp211
g0
(g37
g2
Ntp212
Rp213
(dp214
g41
g19
(g44
S'Cy\r\xe55\x14\x7f@'
p215
tp216
Rp217
sbasg50
g51
sg52
S'start_station_id'
p218
sbag0
(g13
g2
Ntp219
Rp220
(dp221
g17
I2
sg18
g19
(g23
S'A\x00\x00\x00\x00\x00\x00\x00'
p222
tp223
Rp224
sg11
(lp225
g0
(g37
g2
Ntp226
Rp227
(dp228
g41
g19
(g44
S'x\xfe\x16\xa75\xf3\x82@'
p229
tp230
Rp231
sbasg50
g51
sg52
g218
sbag0
(g13
g2
Ntp232
Rp233
(dp234
g17
I2
sg18
g19
(g23
S'7\x00\x00\x00\x00\x00\x00\x00'
p235
tp236
Rp237
sg11
(lp238
g0
(g37
g2
Ntp239
Rp240
(dp241
g41
g19
(g44
S'\xa2\x89&\x9ahJ\x80@'
p242
tp243
Rp244
sbasg50
g51
sg52
g218
sbag0
(g13
g2
Ntp245
Rp246
(dp247
g17
I2
sg18
g19
(g23
S'@\x00\x00\x00\x00\x00\x00\x00'
p248
tp249
Rp250
sg11
(lp251
g0
(g37
g2
Ntp252
Rp253
(dp254
g41
g19
(g44
S'\xae\x89@\xae\x89\x10\x7f@'
p255
tp256
Rp257
sbasg50
g51
sg52
g218
sbag0
(g13
g2
Ntp258
Rp259
(dp260
g17
I2
sg18
g19
(g23
S'B\x00\x00\x00\x00\x00\x00\x00'
p261
tp262
Rp263
sg11
(lp264
g0
(g37
g2
Ntp265
Rp266
(dp267
g41
g19
(g44
S'.p\x81\x0b\\\xa0\x85@'
p268
tp269
Rp270
sbasg50
g51
sg52
g218
sbag0
(g13
g2
Ntp271
Rp272
(dp273
g17
I2
sg18
g19
(g23
S'\x02\x00\x00\x00\x00\x00\x00\x00'
p274
tp275
Rp276
sg11
(lp277
g0
(g37
g2
Ntp278
Rp279
(dp280
g41
g19
(g44
S'\xd1\x0b\xbd\xd0\x0b\x9d\x80@'
p281
tp282
Rp283
sbasg50
g51
sg52
g218
sbag0
(g13
g2
Ntp284
Rp285
(dp286
g17
I2
sg18
g19
(g23
S'6\x00\x00\x00\x00\x00\x00\x00'
p287
tp288
Rp289
sg11
(lp290
g0
(g37
g2
Ntp291
Rp292
(dp293
g41
g19
(g44
S'\xa7~\xcf-qZ\x80@'
p294
tp295
Rp296
sbasg50
g51
sg52
g218
sbag0
(g13
g2
Ntp297
Rp298
(dp299
g17
I2
sg18
g19
(g23
S"'\x00\x00\x00\x00\x00\x00\x00"
p300
tp301
Rp302
sg11
(lp303
g0
(g37
g2
Ntp304
Rp305
(dp306
g41
g19
(g44
S'\xf1\xab1\x91\x1e@}@'
p307
tp308
Rp309
sbasg50
g51
sg52
g218
sbag0
(g13
g2
Ntp310
Rp311
(dp312
g17
I2
sg18
g19
(g23
S'G\x00\x00\x00\x00\x00\x00\x00'
p313
tp314
Rp315
sg11
(lp316
g0
(g37
g2
Ntp317
Rp318
(dp319
g41
g19
(g44
S'Xc"=Py}@'
p320
tp321
Rp322
sbasg50
g51
sg52
g218
sbag0
(g13
g2
Ntp323
Rp324
(dp325
g17
I2
sg18
g19
(g23
S'1\x00\x00\x00\x00\x00\x00\x00'
p326
tp327
Rp328
sg11
(lp329
g0
(g37
g2
Ntp330
Rp331
(dp332
g41
g19
(g44
S'\xf1\xf0\xf0\xf0\xf08}@'
p333
tp334
Rp335
sbasg50
g51
sg52
g218
sbag0
(g13
g2
Ntp336
Rp337
(dp338
g17
I2
sg18
g19
(g23
S'\x06\x00\x00\x00\x00\x00\x00\x00'
p339
tp340
Rp341
sg11
(lp342
g0
(g37
g2
Ntp343
Rp344
(dp345
g41
g19
(g44
S'UUUUU\x1e\x88@'
p346
tp347
Rp348
sbasg50
g51
sg52
g218
sbag0
(g13
g2
Ntp349
Rp350
(dp351
g17
I2
sg18
g19
(g23
S'*\x00\x00\x00\x00\x00\x00\x00'
p352
tp353
Rp354
sg11
(lp355
g0
(g37
g2
Ntp356
Rp357
(dp358
g41
g19
(g44
S'\x00\x00\x00\x00\xe0\xd3\x81@'
p359
tp360
Rp361
sbasg50
g51
sg52
g218
sbag0
(g13
g2
Ntp362
Rp363
(dp364
g17
I2
sg18
g19
(g23
S'M\x00\x00\x00\x00\x00\x00\x00'
p365
tp366
Rp367
sg11
(lp368
g0
(g37
g2
Ntp369
Rp370
(dp371
g41
g19
(g44
S'\x97q\xcb\xb8e\xec{@'
p372
tp373
Rp374
sbasg50
g51
sg52
g218
sbag0
(g13
g2
Ntp375
Rp376
(dp377
g17
I2
sg18
g19
(g23
S'?\x00\x00\x00\x00\x00\x00\x00'
p378
tp379
Rp380
sg11
(lp381
g0
(g37
g2
Ntp382
Rp383
(dp384
g41
g19
(g44
S'\xe6\x9eFX\xeey\x87@'
p385
tp386
Rp387
sbasg50
g51
sg52
g218
sbag0
(g13
g2
Ntp388
Rp389
(dp390
g17
I2
sg18
g19
(g23
S'E\x00\x00\x00\x00\x00\x00\x00'
p391
tp392
Rp393
sg11
(lp394
g0
(g37
g2
Ntp395
Rp396
(dp397
g41
g19
(g44
S'\x05K\xb0\x04K\x80\x81@'
p398
tp399
Rp400
sbasg50
g51
sg52
g218
sbag0
(g13
g2
Ntp401
Rp402
(dp403
g17
I2
sg18
g19
(g23
S'\x1f\x00\x00\x00\x00\x00\x00\x00'
p404
tp405
Rp406
sg11
(lp407
g0
(g37
g2
Ntp408
Rp409
(dp410
g41
g19
(g44
S'UUUUU\xa9s@'
p411
tp412
Rp413
sbasg50
g51
sg52
g218
sbag0
(g13
g2
Ntp414
Rp415
(dp416
g17
I2
sg18
g19
(g23
S'F\x00\x00\x00\x00\x00\x00\x00'
p417
tp418
Rp419
sg11
(lp420
g0
(g37
g2
Ntp421
Rp422
(dp423
g41
g19
(g44
S'w/\xab\x04**\x86@'
p424
tp425
Rp426
sbasg50
g51
sg52
g218
sbag0
(g13
g2
Ntp427
Rp428
(dp429
g17
I2
sg18
g19
(g23
S'>\x00\x00\x00\x00\x00\x00\x00'
p430
tp431
Rp432
sg11
(lp433
g0
(g37
g2
Ntp434
Rp435
(dp436
g41
g19
(g44
S'\x9e\x8d\xfa\xceF\xa5y@'
p437
tp438
Rp439
sbasg50
g51
sg52
g218
sbag0
(g13
g2
Ntp440
Rp441
(dp442
g17
I2
sg18
g19
(g23
S'L\x00\x00\x00\x00\x00\x00\x00'
p443
tp444
Rp445
sg11
(lp446
g0
(g37
g2
Ntp447
Rp448
(dp449
g41
g19
(g44
S'\x92\x91\x91\x91\x91\xd9}@'
p450
tp451
Rp452
sbasg50
g51
sg52
g218
sbag0
(g13
g2
Ntp453
Rp454
(dp455
g17
I2
sg18
g19
(g23
S'J\x00\x00\x00\x00\x00\x00\x00'
p456
tp457
Rp458
sg11
(lp459
g0
(g37
g2
Ntp460
Rp461
(dp462
g41
g19
(g44
S'\xc4\x1dqG\xdc\x89\x85@'
p463
tp464
Rp465
sbasg50
g51
sg52
g218
sbag0
(g13
g2
Ntp466
Rp467
(dp468
g17
I2
sg18
g19
(g23
S'R\x00\x00\x00\x00\x00\x00\x00'
p469
tp470
Rp471
sg11
(lp472
g0
(g37
g2
Ntp473
Rp474
(dp475
g41
g19
(g44
S'\xde\xdd\xdd\xdd\xddW\x80@'
p476
tp477
Rp478
sbasg50
g51
sg52
g218
sbag0
(g13
g2
Ntp479
Rp480
(dp481
g17
I2
sg18
g19
(g23
S'=\x00\x00\x00\x00\x00\x00\x00'
p482
tp483
Rp484
sg11
(lp485
g0
(g37
g2
Ntp486
Rp487
(dp488
g41
g19
(g44
S'\xca\x9a\xb2\xa6\xac=\x7f@'
p489
tp490
Rp491
sbasg50
g51
sg52
g218
sbag0
(g13
g2
Ntp492
Rp493
(dp494
g17
I2
sg18
g19
(g23
S'0\x00\x00\x00\x00\x00\x00\x00'
p495
tp496
Rp497
sg11
(lp498
g0
(g37
g2
Ntp499
Rp500
(dp501
g41
g19
(g44
S'DDDDD\xd4\x84@'
p502
tp503
Rp504
sbasg50
g51
sg52
g218
sbag0
(g13
g2
Ntp505
Rp506
(dp507
g17
I2
sg18
g19
(g23
S'8\x00\x00\x00\x00\x00\x00\x00'
p508
tp509
Rp510
sg11
(lp511
g0
(g37
g2
Ntp512
Rp513
(dp514
g41
g19
(g44
S'k\xdf\xb0\xf6\r[|@'
p515
tp516
Rp517
sbasg50
g51
sg52
g218
sbag0
(g13
g2
Ntp518
Rp519
(dp520
g17
I2
sg18
g19
(g23
S'\x1c\x00\x00\x00\x00\x00\x00\x00'
p521
tp522
Rp523
sg11
(lp524
g0
(g37
g2
Ntp525
Rp526
(dp527
g41
g19
(g44
S'1\xb9\x82\x98\\\x81y@'
p528
tp529
Rp530
sbasg50
g51
sg52
g218
sbag0
(g13
g2
Ntp531
Rp532
(dp533
g17
I2
sg18
g19
(g23
S'C\x00\x00\x00\x00\x00\x00\x00'
p534
tp535
Rp536
sg11
(lp537
g0
(g37
g2
Ntp538
Rp539
(dp540
g41
g19
(g44
S'\x95RJ)\xa5\x94\x81@'
p541
tp542
Rp543
sbasg50
g51
sg52
g218
sbag0
(g13
g2
Ntp544
Rp545
(dp546
g17
I2
sg18
g19
(g23
S'/\x00\x00\x00\x00\x00\x00\x00'
p547
tp548
Rp549
sg11
(lp550
g0
(g37
g2
Ntp551
Rp552
(dp553
g41
g19
(g44
S'\x00\x00\x00\x00\x00\x06\x80@'
p554
tp555
Rp556
sbasg50
g51
sg52
g218
sbag0
(g13
g2
Ntp557
Rp558
(dp559
g17
I2
sg18
g19
(g23
S'\x08\x00\x00\x00\x00\x00\x00\x00'
p560
tp561
Rp562
sg11
(lp563
g0
(g37
g2
Ntp564
Rp565
(dp566
g41
g19
(g44
S'\x00\x00\x00\x00\x00hy@'
p567
tp568
Rp569
sbasg50
g51
sg52
g218
sbag0
(g13
g2
Ntp570
Rp571
(dp572
g17
I2
sg18
g19
(g23
S'<\x00\x00\x00\x00\x00\x00\x00'
p573
tp574
Rp575
sg11
(lp576
g0
(g37
g2
Ntp577
Rp578
(dp579
g41
g19
(g44
S'7\xc5\xa8\xe1o\x93\x81@'
p580
tp581
Rp582
sbasg50
g51
sg52
g218
sbag0
(g13
g2
Ntp583
Rp584
(dp585
g17
I2
sg18
g19
(g23
S'\x07\x00\x00\x00\x00\x00\x00\x00'
p586
tp587
Rp588
sg11
(lp589
g0
(g37
g2
Ntp590
Rp591
(dp592
g41
g19
(g44
S'Cy\r\xe55D{@'
p593
tp594
Rp595
sbasg50
g51
sg52
g218
sbag0
(g13
g2
Ntp596
Rp597
(dp598
g17
I2
sg18
g19
(g23
S'2\x00\x00\x00\x00\x00\x00\x00'
p599
tp600
Rp601
sg11
(lp602
g0
(g37
g2
Ntp603
Rp604
(dp605
g41
g19
(g44
S'\xb7m\xdb\xb6m\xab\x8b@'
p606
tp607
Rp608
sbasg50
g51
sg52
g218
sbag0
(g13
g2
Ntp609
Rp610
(dp611
g17
I2
sg18
g19
(g23
S'9\x00\x00\x00\x00\x00\x00\x00'
p612
tp613
Rp614
sg11
(lp615
g0
(g37
g2
Ntp616
Rp617
(dp618
g41
g19
(g44
S'\x8c.\xba\xe8\xa2\x99|@'
p619
tp620
Rp621
sbasg50
g51
sg52
g218
sbag0
(g13
g2
Ntp622
Rp623
(dp624
g17
I2
sg18
g19
(g23
S'I\x00\x00\x00\x00\x00\x00\x00'
p625
tp626
Rp627
sg11
(lp628
g0
(g37
g2
Ntp629
Rp630
(dp631
g41
g19
(g44
S'\x1b\xf5\x9d\x8d\xfa\x82\x83@'
p632
tp633
Rp634
sbasg50
g51
sg52
g218
sbag0
(g13
g2
Ntp635
Rp636
(dp637
g17
I2
sg18
g19
(g23
S')\x00\x00\x00\x00\x00\x00\x00'
p638
tp639
Rp640
sg11
(lp641
g0
(g37
g2
Ntp642
Rp643
(dp644
g41
g19
(g44
S'!\x0bY\xc8B\x9e\x81@'
p645
tp646
Rp647
sbasg50
g51
sg52
g218
sbag0
(g13
g2
Ntp648
Rp649
(dp650
g17
I2
sg18
g19
(g23
S'K\x00\x00\x00\x00\x00\x00\x00'
p651
tp652
Rp653
sg11
(lp654
g0
(g37
g2
Ntp655
Rp656
(dp657
g41
g19
(g44
S'fffff\xa1\x7f@'
p658
tp659
Rp660
sbasg50
g51
sg52
g218
sbag0
(g13
g2
Ntp661
Rp662
(dp663
g17
I2
sg18
g19
(g23
S'T\x00\x00\x00\x00\x00\x00\x00'
p664
tp665
Rp666
sg11
(lp667
g0
(g37
g2
Ntp668
Rp669
(dp670
g41
g19
(g44
S'\xab\xaa\xaa\xaa\xaaj\x82@'
p671
tp672
Rp673
sbasg50
g51
sg52
g218
sbag0
(g13
g2
Ntp674
Rp675
(dp676
g17
I2
sg18
g19
(g23
S':\x00\x00\x00\x00\x00\x00\x00'
p677
tp678
Rp679
sg11
(lp680
g0
(g37
g2
Ntp681
Rp682
(dp683
g41
g19
(g44
S'\x00\x00\x00\x00\x00V\x80@'
p684
tp685
Rp686
sbasg50
g51
sg52
g218
sbag0
(g13
g2
Ntp687
Rp688
(dp689
g17
I2
sg18
g19
(g23
S'H\x00\x00\x00\x00\x00\x00\x00'
p690
tp691
Rp692
sg11
(lp693
g0
(g37
g2
Ntp694
Rp695
(dp696
g41
g19
(g44
S'\xdc\x11w\xc4\x1d!|@'
p697
tp698
Rp699
sbasg50
g51
sg52
g218
sbag0
(g13
g2
Ntp700
Rp701
(dp702
g17
I2
sg18
g19
(g23
S';\x00\x00\x00\x00\x00\x00\x00'
p703
tp704
Rp705
sg11
(lp706
g0
(g37
g2
Ntp707
Rp708
(dp709
g41
g19
(g44
S']t\xd1E\x17\xc9\x83@'
p710
tp711
Rp712
sbasg50
g51
sg52
g218
sbag0
(g13
g2
Ntp713
Rp714
(dp715
g17
I2
sg18
g19
(g23
S'\x16\x00\x00\x00\x00\x00\x00\x00'
p716
tp717
Rp718
sg11
(lp719
g0
(g37
g2
Ntp720
Rp721
(dp722
g41
g19
(g44
S'I\x92$I\x92tz@'
p723
tp724
Rp725
sbasg50
g51
sg52
g218
sbag0
(g13
g2
Ntp726
Rp727
(dp728
g17
I2
sg18
g19
(g23
S'.\x00\x00\x00\x00\x00\x00\x00'
p729
tp730
Rp731
sg11
(lp732
g0
(g37
g2
Ntp733
Rp734
(dp735
g41
g19
(g44
S'\xbd\xe9Moz3\x83@'
p736
tp737
Rp738
sbasg50
g51
sg52
g218
sbag0
(g13
g2
Ntp739
Rp740
(dp741
g17
I2
sg18
g19
(g23
S'3\x00\x00\x00\x00\x00\x00\x00'
p742
tp743
Rp744
sg11
(lp745
g0
(g37
g2
Ntp746
Rp747
(dp748
g41
g19
(g44
S'\xc5\xbc\x9d!1\x07\x81@'
p749
tp750
Rp751
sbasg50
g51
sg52
g218
sbag0
(g13
g2
Ntp752
Rp753
(dp754
g17
I2
sg18
g19
(g23
S'-\x00\x00\x00\x00\x00\x00\x00'
p755
tp756
Rp757
sg11
(lp758
g0
(g37
g2
Ntp759
Rp760
(dp761
g41
g19
(g44
S'\xba5?,R&\x80@'
p762
tp763
Rp764
sbasg50
g51
sg52
g218
sbag0
(g13
g2
Ntp765
Rp766
(dp767
g17
I2
sg18
g19
(g23
S'D\x00\x00\x00\x00\x00\x00\x00'
p768
tp769
Rp770
sg11
(lp771
g0
(g37
g2
Ntp772
Rp773
(dp774
g41
g19
(g44
S'\xc8B\x16\xb2\x90E}@'
p775
tp776
Rp777
sbasg50
g51
sg52
g218
sbag0
(g13
g2
Ntp778
Rp779
(dp780
g17
I2
sg18
g19
(g23
S'\x04\x00\x00\x00\x00\x00\x00\x00'
p781
tp782
Rp783
sg11
(lp784
g0
(g37
g2
Ntp785
Rp786
(dp787
g41
g19
(g44
S';\xb1\x13;\xb1su@'
p788
tp789
Rp790
sbasg50
g51
sg52
g218
sbag0
(g13
g2
Ntp791
Rp792
(dp793
g17
I2
sg18
g19
(g23
S'\x0b\x00\x00\x00\x00\x00\x00\x00'
p794
tp795
Rp796
sg11
(lp797
g0
(g37
g2
Ntp798
Rp799
(dp800
g41
g19
(g44
S'\x00\x00\x00\x00\x00\xd8\x7f@'
p801
tp802
Rp803
sbasg50
g51
sg52
g218
sbag0
(g13
g2
Ntp804
Rp805
(dp806
g17
I2
sg18
g19
(g23
S'\x18\x00\x00\x00\x00\x00\x00\x00'
p807
tp808
Rp809
sg11
(lp810
g0
(g37
g2
Ntp811
Rp812
(dp813
g41
g19
(g44
S'\x00\x00\x00\x00\x00\xb0r@'
p814
tp815
Rp816
sbasg50
g51
sg52
g218
sbag0
(g13
g2
Ntp817
Rp818
(dp819
g17
I2
sg18
g19
(g23
S'\x19\x00\x00\x00\x00\x00\x00\x00'
p820
tp821
Rp822
sg11
(lp823
g0
(g37
g2
Ntp824
Rp825
(dp826
g41
g19
(g44
S'\x00\x00\x00\x00\x004\x89@'
p827
tp828
Rp829
sbasg50
g51
sg52
g218
sbag0
(g13
g2
Ntp830
Rp831
(dp832
g17
I2
sg18
g19
(g23
S'\r\x00\x00\x00\x00\x00\x00\x00'
p833
tp834
Rp835
sg11
(lp836
g0
(g37
g2
Ntp837
Rp838
(dp839
g41
g19
(g44
S'\x0f\x0f\x0f\x0f\x0f?\x7f@'
p840
tp841
Rp842
sbasg50
g51
sg52
g218
sbag0
(g13
g2
Ntp843
Rp844
(dp845
g17
I2
sg18
g19
(g23
S'\x10\x00\x00\x00\x00\x00\x00\x00'
p846
tp847
Rp848
sg11
(lp849
g0
(g37
g2
Ntp850
Rp851
(dp852
g41
g19
(g44
S'\x00\x00\x00\x00\x000\x83@'
p853
tp854
Rp855
sbasg50
g51
sg52
g218
sbag0
(g13
g2
Ntp856
Rp857
(dp858
g17
I2
sg18
g19
(g23
S'\x0e\x00\x00\x00\x00\x00\x00\x00'
p859
tp860
Rp861
sg11
(lp862
g0
(g37
g2
Ntp863
Rp864
(dp865
g41
g19
(g44
S'\x1c\xc7q\x1c\xc71\x7f@'
p866
tp867
Rp868
sbasg50
g51
sg52
g218
sbag0
(g13
g2
Ntp869
Rp870
(dp871
g17
I2
sg18
g19
(g23
S'\n\x00\x00\x00\x00\x00\x00\x00'
p872
tp873
Rp874
sg11
(lp875
g0
(g37
g2
Ntp876
Rp877
(dp878
g41
g19
(g44
S'\xe9\xa2\x8b.\xbax~@'
p879
tp880
Rp881
sbasg50
g51
sg52
g218
sbag0
(g13
g2
Ntp882
Rp883
(dp884
g17
I2
sg18
g19
(g23
S'\x05\x00\x00\x00\x00\x00\x00\x00'
p885
tp886
Rp887
sg11
(lp888
g0
(g37
g2
Ntp889
Rp890
(dp891
g41
g19
(g44
S'\xdb\xb6m\xdb\xb6\xf5\x82@'
p892
tp893
Rp894
sbasg50
g51
sg52
g218
sbag0
(g13
g2
Ntp895
Rp896
(dp897
g17
I2
sg18
g19
(g23
S'\x1d\x00\x00\x00\x00\x00\x00\x00'
p898
tp899
Rp900
sg11
(lp901
g0
(g37
g2
Ntp902
Rp903
(dp904
g41
g19
(g44
S'fffff\x8e\x7f@'
p905
tp906
Rp907
sbasg50
g51
sg52
g218
sbag0
(g13
g2
Ntp908
Rp909
(dp910
g17
I2
sg18
g19
(g23
S'\x0c\x00\x00\x00\x00\x00\x00\x00'
p911
tp912
Rp913
sg11
(lp914
g0
(g37
g2
Ntp915
Rp916
(dp917
g41
g19
(g44
S'\x00\x00\x00\x00\x00\x00t@'
p918
tp919
Rp920
sbasg50
g51
sg52
g218
sbag0
(g13
g2
Ntp921
Rp922
(dp923
g17
I2
sg18
g19
(g23
S'\x03\x00\x00\x00\x00\x00\x00\x00'
p924
tp925
Rp926
sg11
(lp927
g0
(g37
g2
Ntp928
Rp929
(dp930
g41
g19
(g44
S'\x00\x00\x00\x00\x00Pt@'
p931
tp932
Rp933
sbasg50
g51
sg52
g218
sbag0
(g13
g2
Ntp934
Rp935
(dp936
g17
I2
sg18
g19
(g23
S'\x1b\x00\x00\x00\x00\x00\x00\x00'
p937
tp938
Rp939
sg11
(lp940
g0
(g37
g2
Ntp941
Rp942
(dp943
g41
g19
(g44
S'\xab\xaa\xaa\xaa\xaaz|@'
p944
tp945
Rp946
sbasg50
g51
sg52
g218
sbag0
(g13
g2
Ntp947
Rp948
(dp949
g17
I2
sg18
g19
(g23
S'%\x00\x00\x00\x00\x00\x00\x00'
p950
tp951
Rp952
sg11
(lp953
g0
(g37
g2
Ntp954
Rp955
(dp956
g41
g19
(g44
S'\xcd\xcc\xcc\xcc\xcc\xbcx@'
p957
tp958
Rp959
sbasg50
g51
sg52
g218
sbag0
(g13
g2
Ntp960
Rp961
(dp962
g17
I2
sg18
g19
(g23
S'P\x00\x00\x00\x00\x00\x00\x00'
p963
tp964
Rp965
sg11
(lp966
g0
(g37
g2
Ntp967
Rp968
(dp969
g41
g19
(g44
S'33333\xbb\x87@'
p970
tp971
Rp972
sbasg50
g51
sg52
g218
sbag0
(g13
g2
Ntp973
Rp974
(dp975
g17
I2
sg18
g19
(g23
S'\x1e\x00\x00\x00\x00\x00\x00\x00'
p976
tp977
Rp978
sg11
(lp979
g0
(g37
g2
Ntp980
Rp981
(dp982
g41
g19
(g44
S'\xab\xaa\xaa\xaa\xaazq@'
p983
tp984
Rp985
sbasg50
g51
sg52
g218
sbag0
(g13
g2
Ntp986
Rp987
(dp988
g17
I2
sg18
g19
(g23
S'&\x00\x00\x00\x00\x00\x00\x00'
p989
tp990
Rp991
sg11
(lp992
g0
(g37
g2
Ntp993
Rp994
(dp995
g41
g19
(g44
S'\x00\x00\x00\x00\x00\xa2\x94@'
p996
tp997
Rp998
sbasg50
g51
sg52
g218
sbag0
(g13
g2
Ntp999
Rp1000
(dp1001
g17
I2
sg18
g19
(g23
S'\t\x00\x00\x00\x00\x00\x00\x00'
p1002
tp1003
Rp1004
sg11
(lp1005
g0
(g37
g2
Ntp1006
Rp1007
(dp1008
g41
g19
(g44
S'UUUUU%\x85@'
p1009
tp1010
Rp1011
sbasg50
g51
sg52
g218
sbag0
(g13
g2
Ntp1012
Rp1013
(dp1014
g17
I2
sg18
g19
(g23
S'!\x00\x00\x00\x00\x00\x00\x00'
p1015
tp1016
Rp1017
sg11
(lp1018
g0
(g37
g2
Ntp1019
Rp1020
(dp1021
g41
g19
(g44
S'\x00\x00\x00\x00\x00S\x89@'
p1022
tp1023
Rp1024
sbasg50
g51
sg52
g218
sbag0
(g13
g2
Ntp1025
Rp1026
(dp1027
g17
I2
sg18
g19
(g23
S' \x00\x00\x00\x00\x00\x00\x00'
p1028
tp1029
Rp1030
sg11
(lp1031
g0
(g37
g2
Ntp1032
Rp1033
(dp1034
g41
g19
(g44
S'\xb7m\xdb\xb6m\xa3q@'
p1035
tp1036
Rp1037
sbasg50
g51
sg52
g218
sbag0
(g13
g2
Ntp1038
Rp1039
(dp1040
g17
I2
sg18
g19
(g23
S'#\x00\x00\x00\x00\x00\x00\x00'
p1041
tp1042
Rp1043
sg11
(lp1044
g0
(g37
g2
Ntp1045
Rp1046
(dp1047
g41
g19
(g44
S'UUUUU5\x82@'
p1048
tp1049
Rp1050
sbasg50
g51
sg52
g218
sbag0
(g13
g2
Ntp1051
Rp1052
(dp1053
g17
I2
sg18
g19
(g23
S'S\x00\x00\x00\x00\x00\x00\x00'
p1054
tp1055
Rp1056
sg11
(lp1057
g0
(g37
g2
Ntp1058
Rp1059
(dp1060
g41
g19
(g44
S'\x00\x00\x00\x00\x00\x10q@'
p1061
tp1062
Rp1063
sbasg50
g51
sg52
g218
sbag0
(g13
g2
Ntp1064
Rp1065
(dp1066
g17
I2
sg18
g19
(g23
S'$\x00\x00\x00\x00\x00\x00\x00'
p1067
tp1068
Rp1069
sg11
(lp1070
g0
(g37
g2
Ntp1071
Rp1072
(dp1073
g41
g19
(g44
S'\x00\x00\x00\x00\x00\x14\x86@'
p1074
tp1075
Rp1076
sbasg50
g51
sg52
g218
sbag0
(g13
g2
Ntp1077
Rp1078
(dp1079
g17
I2
sg18
g19
(g23
S'\x1a\x00\x00\x00\x00\x00\x00\x00'
p1080
tp1081
Rp1082
sg11
(lp1083
g0
(g37
g2
Ntp1084
Rp1085
(dp1086
g41
g19
(g44
S'\x00\x00\x00\x00\x00\x08p@'
p1087
tp1088
Rp1089
sbasg50
g51
sg52
g218
sbasg50
g51
sg52
g197
sbasg50
g51
sg52
g197
sbsb.